
WhiteBoard_Plotter_MSS_CM3_0_app:     file format elf32-littlearm

Sections:
Idx Name          Size      VMA       LMA       File off  Algn
  0 .init         00000470  00000000  60000000  00008000  2**4
                  CONTENTS, ALLOC, LOAD, READONLY, CODE
  1 .text         00007124  00000470  60000470  00008470  2**3
                  CONTENTS, ALLOC, LOAD, READONLY, CODE
  2 .data         00000138  20000000  60007594  00010000  2**3
                  CONTENTS, ALLOC, LOAD, DATA
  3 .bss          00003da8  20000138  600076cc  00010138  2**3
                  ALLOC
  4 .comment      000000d7  00000000  00000000  00010138  2**0
                  CONTENTS, READONLY
  5 .debug_aranges 00000310  00000000  00000000  0001020f  2**0
                  CONTENTS, READONLY, DEBUGGING
  6 .debug_pubnames 000006fb  00000000  00000000  0001051f  2**0
                  CONTENTS, READONLY, DEBUGGING
  7 .debug_info   00004af2  00000000  00000000  00010c1a  2**0
                  CONTENTS, READONLY, DEBUGGING
  8 .debug_abbrev 000008e5  00000000  00000000  0001570c  2**0
                  CONTENTS, READONLY, DEBUGGING
  9 .debug_line   00001c40  00000000  00000000  00015ff1  2**0
                  CONTENTS, READONLY, DEBUGGING
 10 .debug_frame  00000b00  00000000  00000000  00017c34  2**2
                  CONTENTS, READONLY, DEBUGGING
 11 .debug_str    00001fe6  00000000  00000000  00018734  2**0
                  CONTENTS, READONLY, DEBUGGING
 12 .debug_loc    0000110b  00000000  00000000  0001a71a  2**0
                  CONTENTS, READONLY, DEBUGGING
 13 .debug_macinfo 00025495  00000000  00000000  0001b825  2**0
                  CONTENTS, READONLY, DEBUGGING
 14 .ARM.attributes 00000025  00000000  00000000  00040cba  2**0
                  CONTENTS, READONLY
 15 .debug_ranges 00000300  00000000  00000000  00040cdf  2**0
                  CONTENTS, READONLY, DEBUGGING

Disassembly of section .init:

00000000 <__vector_table_vma_base_address>:
	yPos = sqrt(pow(RadiusLeft, 2) - pow(xPos, 2));
	MSS_TIM1_stop();
	MSS_TIM2_stop();
}

void returnToCenter(){
   0:	20010000 	.word	0x20010000
   4:	00000299 	.word	0x00000299
	double disX = 42.5 - xPos;
   8:	00000309 	.word	0x00000309
   c:	0000030b 	.word	0x0000030b
	double disY = 28.5 - yPos;
	makeLine(disX, disY);
}

void returnToPoint(double x, double y){
	double disX = x - xPos;
  10:	0000030d 	.word	0x0000030d
  14:	0000030f 	.word	0x0000030f
  18:	00000311 	.word	0x00000311
	...
	double disY = y - yPos;
  2c:	00000313 	.word	0x00000313
  30:	00000315 	.word	0x00000315
  34:	00000000 	.word	0x00000000
  38:	00000317 	.word	0x00000317
  3c:	00000319 	.word	0x00000319
  40:	0000031b 	.word	0x0000031b
  44:	0000031d 	.word	0x0000031d
}

void returnToCenter(){
	double disX = 42.5 - xPos;
	double disY = 28.5 - yPos;
	makeLine(disX, disY);
  48:	0000031f 	.word	0x0000031f
  4c:	00000321 	.word	0x00000321
  50:	00000323 	.word	0x00000323
}
  54:	00000325 	.word	0x00000325
  58:	00000327 	.word	0x00000327
        {
            this_uart->hw_reg_bit->MCR_LOOP = 0U;
        }
        else
        {
            this_uart->hw_reg_bit->MCR_LOOP = 1U;
  5c:	00000329 	.word	0x00000329
    {
        this_uart->tx_handler = handler;

        /* Make TX buffer info invalid */
        this_uart->tx_buffer = (const uint8_t *)0;
        this_uart->tx_buff_size = 0U;
  60:	0000032b 	.word	0x0000032b
         */
        while ( 0U != data_byte )
        {
            /* Wait until TX FIFO is empty. */
            do {
                status = this_uart->hw_reg->LSR;
  64:	0000032d 	.word	0x0000032d
    if ( ( tx_size > 0U ) && ( pbuff != ((uint8_t *)0) ) &&
       ( (this_uart == &g_mss_uart0) || (this_uart == &g_mss_uart1) ) )
    {
        /*Initialise the transmit info for the UART instance with the arguments.*/
        this_uart->tx_buffer = pbuff;
        this_uart->tx_buff_size = tx_size;
  68:	000066bd 	.word	0x000066bd
        while ( 0U != data_byte )
        {
            /* Wait until TX FIFO is empty. */
            do {
                status = this_uart->hw_reg->LSR;
                this_uart->status |= status;
  6c:	000066e9 	.word	0x000066e9

        /* Enable receiver line status interrupt. */
        this_uart->hw_reg_bit->IER_ELSI = 1U;

        /* Enable UART instance interrupt in Cortex-M3 NVIC. */
        NVIC_EnableIRQ( this_uart->irqn );
  70:	00000333 	.word	0x00000333
    {
        /* Read the Line Status Register and update the sticky record. */
        status = this_uart->hw_reg->LSR;
        this_uart->status |= status;

        if ( ( TX_COMPLETE == this_uart->tx_buff_size ) &&
  74:	00000335 	.word	0x00000335
             ( status & MSS_UART_TEMT ) )
        {
            ret_value = (int8_t)1;
  78:	00000337 	.word	0x00000337
        {
            /* Wait until TX FIFO is empty. */
            do {
                status = this_uart->hw_reg->LSR;
                this_uart->status |= status;
            } while ( !( status & MSS_UART_THRE ) );
  7c:	00000339 	.word	0x00000339

        /* Enable transmitter holding register Empty interrupt. */
        this_uart->hw_reg_bit->IER_ETBEI = 1U;

        /* Enable UART instance interrupt in Cortex-M3 NVIC. */
        NVIC_EnableIRQ( this_uart->irqn );
  80:	0000033b 	.word	0x0000033b
    {
      _write_r ((void *)0, 1, "Heap and stack collision\n", 25);
      _exit (1);
    }
  
    heap_end += incr;
  84:	0000033d 	.word	0x0000033d
            } while ( !( status & MSS_UART_THRE ) );

            /* Send bytes from the input buffer until the TX FIFO is full
             * or we reach the NULL terminator byte.
             */
            fill_size = 0U;
  88:	0000033f 	.word	0x0000033f
            while ( (0U != data_byte) && (fill_size < TX_FIFO_SIZE) )
  8c:	00000341 	.word	0x00000341
        status = this_uart->hw_reg->LSR;
        this_uart->status |= status;

        if( status & MSS_UART_THRE )
        {
            uint32_t fill_size = TX_FIFO_SIZE;
  90:	00000ec9 	.word	0x00000ec9
  94:	00000efd 	.word	0x00000efd
            fill_size = 0U;
            while ( (0U != data_byte) && (fill_size < TX_FIFO_SIZE) )
            {
                /* Send the data byte */
                this_uart->hw_reg->THR = data_byte;
                ++fill_size;
  98:	00000347 	.word	0x00000347
        {
            uint32_t fill_size = TX_FIFO_SIZE;

            if ( tx_size < TX_FIFO_SIZE )
            {
                fill_size = tx_size;
  9c:	00000349 	.word	0x00000349
            while ( (0U != data_byte) && (fill_size < TX_FIFO_SIZE) )
            {
                /* Send the data byte */
                this_uart->hw_reg->THR = data_byte;
                ++fill_size;
                char_idx++;
  a0:	0000034b 	.word	0x0000034b
	...
            if ( tx_size < TX_FIFO_SIZE )
            {
                fill_size = tx_size;
            }
            /* Fill up FIFO */
            for ( size_sent = 0U; size_sent < fill_size; ++size_sent )
  bc:	0000034d 	.word	0x0000034d

        /* First check for the NULL terminator byte.
         * Then remain in this loop until the entire string in the input buffer
         * has been transferred to the UART.
         */
        while ( 0U != data_byte )
  c0:	0000034f 	.word	0x0000034f
                /* Get the next data byte from the input buffer */
                data_byte = (uint_fast8_t)p_sz_string[char_idx];
            }
        }
    }
}
  c4:	00000351 	.word	0x00000351
                this_uart->hw_reg->THR = tx_buffer[size_sent];
            }
        }
    }
    return size_sent;
}
  c8:	00000353 	.word	0x00000353
  cc:	00000355 	.word	0x00000355
  d0:	00000357 	.word	0x00000357
  d4:	00000359 	.word	0x00000359
  d8:	0000035b 	.word	0x0000035b
  dc:	0000035d 	.word	0x0000035d
  e0:	0000035f 	.word	0x0000035f
  e4:	00000361 	.word	0x00000361
  e8:	00000363 	.word	0x00000363
  ec:	00000365 	.word	0x00000365
  f0:	00000367 	.word	0x00000367
  f4:	00000369 	.word	0x00000369
  f8:	0000036b 	.word	0x0000036b
  fc:	0000036d 	.word	0x0000036d
 100:	0000036f 	.word	0x0000036f
 104:	00000371 	.word	0x00000371
 108:	00000373 	.word	0x00000373
 10c:	00000375 	.word	0x00000375
 110:	00000377 	.word	0x00000377
 114:	00000379 	.word	0x00000379
 118:	0000037b 	.word	0x0000037b
 11c:	0000037d 	.word	0x0000037d
 120:	0000037f 	.word	0x0000037f
 124:	00000381 	.word	0x00000381
 128:	00000383 	.word	0x00000383
 12c:	00000385 	.word	0x00000385
 130:	00000387 	.word	0x00000387
 134:	00000389 	.word	0x00000389
 138:	0000038b 	.word	0x0000038b
 13c:	0000038d 	.word	0x0000038d
 140:	0000038f 	.word	0x0000038f
 144:	00000391 	.word	0x00000391
 148:	00000393 	.word	0x00000393
 14c:	00000395 	.word	0x00000395
 150:	00000397 	.word	0x00000397
 154:	00000399 	.word	0x00000399
 158:	0000039b 	.word	0x0000039b
 15c:	0000039d 	.word	0x0000039d
 160:	0000039f 	.word	0x0000039f
 164:	000003a1 	.word	0x000003a1
 168:	000003a3 	.word	0x000003a3
 16c:	000003a5 	.word	0x000003a5
 170:	000003a7 	.word	0x000003a7
 174:	000003a9 	.word	0x000003a9
 178:	000003ab 	.word	0x000003ab
 17c:	000003ad 	.word	0x000003ad
 180:	000003af 	.word	0x000003af
 184:	000003b1 	.word	0x000003b1
 188:	000003b3 	.word	0x000003b3
 18c:	000003b5 	.word	0x000003b5
 190:	000003b7 	.word	0x000003b7
 194:	000003b9 	.word	0x000003b9
 198:	000003bb 	.word	0x000003bb
 19c:	000003bd 	.word	0x000003bd
 1a0:	000003bf 	.word	0x000003bf
 1a4:	000003c1 	.word	0x000003c1
 1a8:	000003c3 	.word	0x000003c3
 1ac:	000003c5 	.word	0x000003c5
 1b0:	000003c7 	.word	0x000003c7
 1b4:	000003c9 	.word	0x000003c9
 1b8:	000003cb 	.word	0x000003cb
 1bc:	000003cd 	.word	0x000003cd
 1c0:	000003cf 	.word	0x000003cf
 1c4:	000003d1 	.word	0x000003d1
 1c8:	000003d3 	.word	0x000003d3
 1cc:	000003d5 	.word	0x000003d5
 1d0:	000003d7 	.word	0x000003d7
 1d4:	000003d9 	.word	0x000003d9
 1d8:	000003db 	.word	0x000003db
 1dc:	000003dd 	.word	0x000003dd
 1e0:	000003df 	.word	0x000003df
 1e4:	000003e1 	.word	0x000003e1
 1e8:	000003e3 	.word	0x000003e3
 1ec:	000003e5 	.word	0x000003e5
 1f0:	000003e7 	.word	0x000003e7
 1f4:	000003e9 	.word	0x000003e9
 1f8:	000003eb 	.word	0x000003eb
 1fc:	000003ed 	.word	0x000003ed
 200:	000003ef 	.word	0x000003ef
 204:	000003f1 	.word	0x000003f1
 208:	000003f3 	.word	0x000003f3
 20c:	000003f5 	.word	0x000003f5
 210:	000003f7 	.word	0x000003f7
 214:	000003f9 	.word	0x000003f9
 218:	000003fb 	.word	0x000003fb
 21c:	000003fd 	.word	0x000003fd
 220:	000003ff 	.word	0x000003ff
 224:	00000401 	.word	0x00000401
 228:	00000403 	.word	0x00000403
 22c:	00000405 	.word	0x00000405
 230:	00000407 	.word	0x00000407
 234:	00000409 	.word	0x00000409
 238:	0000040b 	.word	0x0000040b
 23c:	0000040d 	.word	0x0000040d
 240:	0000040f 	.word	0x0000040f
 244:	00000411 	.word	0x00000411
 248:	00000413 	.word	0x00000413
 24c:	00000415 	.word	0x00000415
 250:	00000417 	.word	0x00000417
 254:	00000419 	.word	0x00000419
 258:	0000041b 	.word	0x0000041b
 25c:	0000041d 	.word	0x0000041d
 260:	0000041f 	.word	0x0000041f
 264:	00000421 	.word	0x00000421
 268:	00000423 	.word	0x00000423
 26c:	00000425 	.word	0x00000425
 270:	00000427 	.word	0x00000427
 274:	00000429 	.word	0x00000429
 278:	0000042b 	.word	0x0000042b
 27c:	0000042d 	.word	0x0000042d
 280:	0000042f 	.word	0x0000042f
 284:	00000431 	.word	0x00000431
 288:	00000433 	.word	0x00000433
 28c:	00000435 	.word	0x00000435
 290:	00000437 	.word	0x00000437
 294:	00000439 	.word	0x00000439

00000298 <Reset_Handler>:
 298:	4868      	ldr	r0, [pc, #416]	; (43c <ACE_PPE_Flag31_IRQHandler+0x4>)
 29a:	4780      	blx	r0
 29c:	4868      	ldr	r0, [pc, #416]	; (440 <ACE_PPE_Flag31_IRQHandler+0x8>)
 29e:	2800      	cmp	r0, #0
 2a0:	d10b      	bne.n	2ba <copy_data>
 2a2:	4868      	ldr	r0, [pc, #416]	; (444 <ACE_PPE_Flag31_IRQHandler+0xc>)
 2a4:	4968      	ldr	r1, [pc, #416]	; (448 <ACE_PPE_Flag31_IRQHandler+0x10>)
 2a6:	4a69      	ldr	r2, [pc, #420]	; (44c <ACE_PPE_Flag31_IRQHandler+0x14>)
 2a8:	4288      	cmp	r0, r1
 2aa:	d006      	beq.n	2ba <copy_data>

000002ac <copy_code_loop>:
 2ac:	4291      	cmp	r1, r2
 2ae:	bf1c      	itt	ne
 2b0:	f850 3b04 	ldrne.w	r3, [r0], #4
 2b4:	f841 3b04 	strne.w	r3, [r1], #4
 2b8:	d1f8      	bne.n	2ac <copy_code_loop>

000002ba <copy_data>:
 2ba:	4865      	ldr	r0, [pc, #404]	; (450 <ACE_PPE_Flag31_IRQHandler+0x18>)
 2bc:	4965      	ldr	r1, [pc, #404]	; (454 <ACE_PPE_Flag31_IRQHandler+0x1c>)
 2be:	4a66      	ldr	r2, [pc, #408]	; (458 <ACE_PPE_Flag31_IRQHandler+0x20>)
 2c0:	4288      	cmp	r0, r1
 2c2:	d006      	beq.n	2d2 <clear_bss>

000002c4 <copy_data_loop>:
 2c4:	4291      	cmp	r1, r2
 2c6:	bf1c      	itt	ne
 2c8:	f850 3b04 	ldrne.w	r3, [r0], #4
 2cc:	f841 3b04 	strne.w	r3, [r1], #4
 2d0:	d1f8      	bne.n	2c4 <copy_data_loop>

000002d2 <clear_bss>:
 2d2:	4862      	ldr	r0, [pc, #392]	; (45c <ACE_PPE_Flag31_IRQHandler+0x24>)
 2d4:	4962      	ldr	r1, [pc, #392]	; (460 <ACE_PPE_Flag31_IRQHandler+0x28>)
 2d6:	4a63      	ldr	r2, [pc, #396]	; (464 <ACE_PPE_Flag31_IRQHandler+0x2c>)

000002d8 <clear_bss_loop>:
 2d8:	4291      	cmp	r1, r2
 2da:	bf18      	it	ne
 2dc:	f841 0b04 	strne.w	r0, [r1], #4
 2e0:	d1fa      	bne.n	2d8 <clear_bss_loop>
	...

000002f0 <call_glob_ctor>:
 2f0:	f8df 0174 	ldr.w	r0, [pc, #372]	; 468 <ACE_PPE_Flag31_IRQHandler+0x30>
 2f4:	f20f 0e03 	addw	lr, pc, #3
 2f8:	4700      	bx	r0

000002fa <branch_to_main>:
 2fa:	f04f 0000 	mov.w	r0, #0
 2fe:	f04f 0100 	mov.w	r1, #0
 302:	f8df f168 	ldr.w	pc, [pc, #360]	; 46c <ACE_PPE_Flag31_IRQHandler+0x34>

00000306 <ExitLoop>:
 306:	e7fe      	b.n	306 <ExitLoop>

00000308 <NMI_Handler>:
 308:	e7fe      	b.n	308 <NMI_Handler>

0000030a <HardFault_Handler>:
 30a:	e7fe      	b.n	30a <HardFault_Handler>

0000030c <MemManage_Handler>:
 30c:	e7fe      	b.n	30c <MemManage_Handler>

0000030e <BusFault_Handler>:
 30e:	e7fe      	b.n	30e <BusFault_Handler>

00000310 <UsageFault_Handler>:
 310:	e7fe      	b.n	310 <UsageFault_Handler>

00000312 <SVC_Handler>:
 312:	e7fe      	b.n	312 <SVC_Handler>

00000314 <DebugMon_Handler>:
 314:	e7fe      	b.n	314 <DebugMon_Handler>

00000316 <PendSV_Handler>:
 316:	e7fe      	b.n	316 <PendSV_Handler>

00000318 <SysTick_Handler>:
 318:	e7fe      	b.n	318 <SysTick_Handler>

0000031a <WdogWakeup_IRQHandler>:
 31a:	e7fe      	b.n	31a <WdogWakeup_IRQHandler>

0000031c <BrownOut_1_5V_IRQHandler>:
 31c:	e7fe      	b.n	31c <BrownOut_1_5V_IRQHandler>

0000031e <BrownOut_3_3V_IRQHandler>:
 31e:	e7fe      	b.n	31e <BrownOut_3_3V_IRQHandler>

00000320 <RTC_Match_IRQHandler>:
 320:	e7fe      	b.n	320 <RTC_Match_IRQHandler>

00000322 <RTCIF_Pub_IRQHandler>:
 322:	e7fe      	b.n	322 <RTCIF_Pub_IRQHandler>

00000324 <EthernetMAC_IRQHandler>:
 324:	e7fe      	b.n	324 <EthernetMAC_IRQHandler>

00000326 <IAP_IRQHandler>:
 326:	e7fe      	b.n	326 <IAP_IRQHandler>

00000328 <ENVM0_IRQHandler>:
 328:	e7fe      	b.n	328 <ENVM0_IRQHandler>

0000032a <ENVM1_IRQHandler>:
 32a:	e7fe      	b.n	32a <ENVM1_IRQHandler>

0000032c <DMA_IRQHandler>:
 32c:	e7fe      	b.n	32c <DMA_IRQHandler>
 32e:	e7fe      	b.n	32e <DMA_IRQHandler+0x2>
 330:	e7fe      	b.n	330 <DMA_IRQHandler+0x4>

00000332 <SPI0_IRQHandler>:
 332:	e7fe      	b.n	332 <SPI0_IRQHandler>

00000334 <SPI1_IRQHandler>:
 334:	e7fe      	b.n	334 <SPI1_IRQHandler>

00000336 <I2C0_IRQHandler>:
 336:	e7fe      	b.n	336 <I2C0_IRQHandler>

00000338 <I2C0_SMBAlert_IRQHandler>:
 338:	e7fe      	b.n	338 <I2C0_SMBAlert_IRQHandler>

0000033a <I2C0_SMBus_IRQHandler>:
 33a:	e7fe      	b.n	33a <I2C0_SMBus_IRQHandler>

0000033c <I2C1_IRQHandler>:
 33c:	e7fe      	b.n	33c <I2C1_IRQHandler>

0000033e <I2C1_SMBAlert_IRQHandler>:
 33e:	e7fe      	b.n	33e <I2C1_SMBAlert_IRQHandler>

00000340 <I2C1_SMBus_IRQHandler>:
 340:	e7fe      	b.n	340 <I2C1_SMBus_IRQHandler>
 342:	e7fe      	b.n	342 <I2C1_SMBus_IRQHandler+0x2>
 344:	e7fe      	b.n	344 <I2C1_SMBus_IRQHandler+0x4>

00000346 <PLL_Lock_IRQHandler>:
 346:	e7fe      	b.n	346 <PLL_Lock_IRQHandler>

00000348 <PLL_LockLost_IRQHandler>:
 348:	e7fe      	b.n	348 <PLL_LockLost_IRQHandler>

0000034a <CommError_IRQHandler>:
 34a:	e7fe      	b.n	34a <CommError_IRQHandler>

0000034c <Fabric_IRQHandler>:
 34c:	e7fe      	b.n	34c <Fabric_IRQHandler>

0000034e <GPIO0_IRQHandler>:
 34e:	e7fe      	b.n	34e <GPIO0_IRQHandler>

00000350 <GPIO1_IRQHandler>:
 350:	e7fe      	b.n	350 <GPIO1_IRQHandler>

00000352 <GPIO2_IRQHandler>:
 352:	e7fe      	b.n	352 <GPIO2_IRQHandler>

00000354 <GPIO3_IRQHandler>:
 354:	e7fe      	b.n	354 <GPIO3_IRQHandler>

00000356 <GPIO4_IRQHandler>:
 356:	e7fe      	b.n	356 <GPIO4_IRQHandler>

00000358 <GPIO5_IRQHandler>:
 358:	e7fe      	b.n	358 <GPIO5_IRQHandler>

0000035a <GPIO6_IRQHandler>:
 35a:	e7fe      	b.n	35a <GPIO6_IRQHandler>

0000035c <GPIO7_IRQHandler>:
 35c:	e7fe      	b.n	35c <GPIO7_IRQHandler>

0000035e <GPIO8_IRQHandler>:
 35e:	e7fe      	b.n	35e <GPIO8_IRQHandler>

00000360 <GPIO9_IRQHandler>:
 360:	e7fe      	b.n	360 <GPIO9_IRQHandler>

00000362 <GPIO10_IRQHandler>:
 362:	e7fe      	b.n	362 <GPIO10_IRQHandler>

00000364 <GPIO11_IRQHandler>:
 364:	e7fe      	b.n	364 <GPIO11_IRQHandler>

00000366 <GPIO12_IRQHandler>:
 366:	e7fe      	b.n	366 <GPIO12_IRQHandler>

00000368 <GPIO13_IRQHandler>:
 368:	e7fe      	b.n	368 <GPIO13_IRQHandler>

0000036a <GPIO14_IRQHandler>:
 36a:	e7fe      	b.n	36a <GPIO14_IRQHandler>

0000036c <GPIO15_IRQHandler>:
 36c:	e7fe      	b.n	36c <GPIO15_IRQHandler>

0000036e <GPIO16_IRQHandler>:
 36e:	e7fe      	b.n	36e <GPIO16_IRQHandler>

00000370 <GPIO17_IRQHandler>:
 370:	e7fe      	b.n	370 <GPIO17_IRQHandler>

00000372 <GPIO18_IRQHandler>:
 372:	e7fe      	b.n	372 <GPIO18_IRQHandler>

00000374 <GPIO19_IRQHandler>:
 374:	e7fe      	b.n	374 <GPIO19_IRQHandler>

00000376 <GPIO20_IRQHandler>:
 376:	e7fe      	b.n	376 <GPIO20_IRQHandler>

00000378 <GPIO21_IRQHandler>:
 378:	e7fe      	b.n	378 <GPIO21_IRQHandler>

0000037a <GPIO22_IRQHandler>:
 37a:	e7fe      	b.n	37a <GPIO22_IRQHandler>

0000037c <GPIO23_IRQHandler>:
 37c:	e7fe      	b.n	37c <GPIO23_IRQHandler>

0000037e <GPIO24_IRQHandler>:
 37e:	e7fe      	b.n	37e <GPIO24_IRQHandler>

00000380 <GPIO25_IRQHandler>:
 380:	e7fe      	b.n	380 <GPIO25_IRQHandler>

00000382 <GPIO26_IRQHandler>:
 382:	e7fe      	b.n	382 <GPIO26_IRQHandler>

00000384 <GPIO27_IRQHandler>:
 384:	e7fe      	b.n	384 <GPIO27_IRQHandler>

00000386 <GPIO28_IRQHandler>:
 386:	e7fe      	b.n	386 <GPIO28_IRQHandler>

00000388 <GPIO29_IRQHandler>:
 388:	e7fe      	b.n	388 <GPIO29_IRQHandler>

0000038a <GPIO30_IRQHandler>:
 38a:	e7fe      	b.n	38a <GPIO30_IRQHandler>

0000038c <GPIO31_IRQHandler>:
 38c:	e7fe      	b.n	38c <GPIO31_IRQHandler>

0000038e <ACE_PC0_Flag0_IRQHandler>:
 38e:	e7fe      	b.n	38e <ACE_PC0_Flag0_IRQHandler>

00000390 <ACE_PC0_Flag1_IRQHandler>:
 390:	e7fe      	b.n	390 <ACE_PC0_Flag1_IRQHandler>

00000392 <ACE_PC0_Flag2_IRQHandler>:
 392:	e7fe      	b.n	392 <ACE_PC0_Flag2_IRQHandler>

00000394 <ACE_PC0_Flag3_IRQHandler>:
 394:	e7fe      	b.n	394 <ACE_PC0_Flag3_IRQHandler>

00000396 <ACE_PC1_Flag0_IRQHandler>:
 396:	e7fe      	b.n	396 <ACE_PC1_Flag0_IRQHandler>

00000398 <ACE_PC1_Flag1_IRQHandler>:
 398:	e7fe      	b.n	398 <ACE_PC1_Flag1_IRQHandler>

0000039a <ACE_PC1_Flag2_IRQHandler>:
 39a:	e7fe      	b.n	39a <ACE_PC1_Flag2_IRQHandler>

0000039c <ACE_PC1_Flag3_IRQHandler>:
 39c:	e7fe      	b.n	39c <ACE_PC1_Flag3_IRQHandler>

0000039e <ACE_PC2_Flag0_IRQHandler>:
 39e:	e7fe      	b.n	39e <ACE_PC2_Flag0_IRQHandler>

000003a0 <ACE_PC2_Flag1_IRQHandler>:
 3a0:	e7fe      	b.n	3a0 <ACE_PC2_Flag1_IRQHandler>

000003a2 <ACE_PC2_Flag2_IRQHandler>:
 3a2:	e7fe      	b.n	3a2 <ACE_PC2_Flag2_IRQHandler>

000003a4 <ACE_PC2_Flag3_IRQHandler>:
 3a4:	e7fe      	b.n	3a4 <ACE_PC2_Flag3_IRQHandler>

000003a6 <ACE_ADC0_DataValid_IRQHandler>:
 3a6:	e7fe      	b.n	3a6 <ACE_ADC0_DataValid_IRQHandler>

000003a8 <ACE_ADC1_DataValid_IRQHandler>:
 3a8:	e7fe      	b.n	3a8 <ACE_ADC1_DataValid_IRQHandler>

000003aa <ACE_ADC2_DataValid_IRQHandler>:
 3aa:	e7fe      	b.n	3aa <ACE_ADC2_DataValid_IRQHandler>

000003ac <ACE_ADC0_CalDone_IRQHandler>:
 3ac:	e7fe      	b.n	3ac <ACE_ADC0_CalDone_IRQHandler>

000003ae <ACE_ADC1_CalDone_IRQHandler>:
 3ae:	e7fe      	b.n	3ae <ACE_ADC1_CalDone_IRQHandler>

000003b0 <ACE_ADC2_CalDone_IRQHandler>:
 3b0:	e7fe      	b.n	3b0 <ACE_ADC2_CalDone_IRQHandler>

000003b2 <ACE_ADC0_CalStart_IRQHandler>:
 3b2:	e7fe      	b.n	3b2 <ACE_ADC0_CalStart_IRQHandler>

000003b4 <ACE_ADC1_CalStart_IRQHandler>:
 3b4:	e7fe      	b.n	3b4 <ACE_ADC1_CalStart_IRQHandler>

000003b6 <ACE_ADC2_CalStart_IRQHandler>:
 3b6:	e7fe      	b.n	3b6 <ACE_ADC2_CalStart_IRQHandler>

000003b8 <ACE_Comp0_Fall_IRQHandler>:
 3b8:	e7fe      	b.n	3b8 <ACE_Comp0_Fall_IRQHandler>

000003ba <ACE_Comp1_Fall_IRQHandler>:
 3ba:	e7fe      	b.n	3ba <ACE_Comp1_Fall_IRQHandler>

000003bc <ACE_Comp2_Fall_IRQHandler>:
 3bc:	e7fe      	b.n	3bc <ACE_Comp2_Fall_IRQHandler>

000003be <ACE_Comp3_Fall_IRQHandler>:
 3be:	e7fe      	b.n	3be <ACE_Comp3_Fall_IRQHandler>

000003c0 <ACE_Comp4_Fall_IRQHandler>:
 3c0:	e7fe      	b.n	3c0 <ACE_Comp4_Fall_IRQHandler>

000003c2 <ACE_Comp5_Fall_IRQHandler>:
 3c2:	e7fe      	b.n	3c2 <ACE_Comp5_Fall_IRQHandler>

000003c4 <ACE_Comp6_Fall_IRQHandler>:
 3c4:	e7fe      	b.n	3c4 <ACE_Comp6_Fall_IRQHandler>

000003c6 <ACE_Comp7_Fall_IRQHandler>:
 3c6:	e7fe      	b.n	3c6 <ACE_Comp7_Fall_IRQHandler>

000003c8 <ACE_Comp8_Fall_IRQHandler>:
 3c8:	e7fe      	b.n	3c8 <ACE_Comp8_Fall_IRQHandler>

000003ca <ACE_Comp9_Fall_IRQHandler>:
 3ca:	e7fe      	b.n	3ca <ACE_Comp9_Fall_IRQHandler>

000003cc <ACE_Comp10_Fall_IRQHandler>:
 3cc:	e7fe      	b.n	3cc <ACE_Comp10_Fall_IRQHandler>

000003ce <ACE_Comp11_Fall_IRQHandler>:
 3ce:	e7fe      	b.n	3ce <ACE_Comp11_Fall_IRQHandler>

000003d0 <ACE_Comp0_Rise_IRQHandler>:
 3d0:	e7fe      	b.n	3d0 <ACE_Comp0_Rise_IRQHandler>

000003d2 <ACE_Comp1_Rise_IRQHandler>:
 3d2:	e7fe      	b.n	3d2 <ACE_Comp1_Rise_IRQHandler>

000003d4 <ACE_Comp2_Rise_IRQHandler>:
 3d4:	e7fe      	b.n	3d4 <ACE_Comp2_Rise_IRQHandler>

000003d6 <ACE_Comp3_Rise_IRQHandler>:
 3d6:	e7fe      	b.n	3d6 <ACE_Comp3_Rise_IRQHandler>

000003d8 <ACE_Comp4_Rise_IRQHandler>:
 3d8:	e7fe      	b.n	3d8 <ACE_Comp4_Rise_IRQHandler>

000003da <ACE_Comp5_Rise_IRQHandler>:
 3da:	e7fe      	b.n	3da <ACE_Comp5_Rise_IRQHandler>

000003dc <ACE_Comp6_Rise_IRQHandler>:
 3dc:	e7fe      	b.n	3dc <ACE_Comp6_Rise_IRQHandler>

000003de <ACE_Comp7_Rise_IRQHandler>:
 3de:	e7fe      	b.n	3de <ACE_Comp7_Rise_IRQHandler>

000003e0 <ACE_Comp8_Rise_IRQHandler>:
 3e0:	e7fe      	b.n	3e0 <ACE_Comp8_Rise_IRQHandler>

000003e2 <ACE_Comp9_Rise_IRQHandler>:
 3e2:	e7fe      	b.n	3e2 <ACE_Comp9_Rise_IRQHandler>

000003e4 <ACE_Comp10_Rise_IRQHandler>:
 3e4:	e7fe      	b.n	3e4 <ACE_Comp10_Rise_IRQHandler>

000003e6 <ACE_Comp11_Rise_IRQHandler>:
 3e6:	e7fe      	b.n	3e6 <ACE_Comp11_Rise_IRQHandler>

000003e8 <ACE_ADC0_FifoFull_IRQHandler>:
 3e8:	e7fe      	b.n	3e8 <ACE_ADC0_FifoFull_IRQHandler>

000003ea <ACE_ADC0_FifoAFull_IRQHandler>:
 3ea:	e7fe      	b.n	3ea <ACE_ADC0_FifoAFull_IRQHandler>

000003ec <ACE_ADC0_FifoEmpty_IRQHandler>:
 3ec:	e7fe      	b.n	3ec <ACE_ADC0_FifoEmpty_IRQHandler>

000003ee <ACE_ADC1_FifoFull_IRQHandler>:
 3ee:	e7fe      	b.n	3ee <ACE_ADC1_FifoFull_IRQHandler>

000003f0 <ACE_ADC1_FifoAFull_IRQHandler>:
 3f0:	e7fe      	b.n	3f0 <ACE_ADC1_FifoAFull_IRQHandler>

000003f2 <ACE_ADC1_FifoEmpty_IRQHandler>:
 3f2:	e7fe      	b.n	3f2 <ACE_ADC1_FifoEmpty_IRQHandler>

000003f4 <ACE_ADC2_FifoFull_IRQHandler>:
 3f4:	e7fe      	b.n	3f4 <ACE_ADC2_FifoFull_IRQHandler>

000003f6 <ACE_ADC2_FifoAFull_IRQHandler>:
 3f6:	e7fe      	b.n	3f6 <ACE_ADC2_FifoAFull_IRQHandler>

000003f8 <ACE_ADC2_FifoEmpty_IRQHandler>:
 3f8:	e7fe      	b.n	3f8 <ACE_ADC2_FifoEmpty_IRQHandler>

000003fa <ACE_PPE_Flag0_IRQHandler>:
 3fa:	e7fe      	b.n	3fa <ACE_PPE_Flag0_IRQHandler>

000003fc <ACE_PPE_Flag1_IRQHandler>:
 3fc:	e7fe      	b.n	3fc <ACE_PPE_Flag1_IRQHandler>

000003fe <ACE_PPE_Flag2_IRQHandler>:
 3fe:	e7fe      	b.n	3fe <ACE_PPE_Flag2_IRQHandler>

00000400 <ACE_PPE_Flag3_IRQHandler>:
 400:	e7fe      	b.n	400 <ACE_PPE_Flag3_IRQHandler>

00000402 <ACE_PPE_Flag4_IRQHandler>:
 402:	e7fe      	b.n	402 <ACE_PPE_Flag4_IRQHandler>

00000404 <ACE_PPE_Flag5_IRQHandler>:
 404:	e7fe      	b.n	404 <ACE_PPE_Flag5_IRQHandler>

00000406 <ACE_PPE_Flag6_IRQHandler>:
 406:	e7fe      	b.n	406 <ACE_PPE_Flag6_IRQHandler>

00000408 <ACE_PPE_Flag7_IRQHandler>:
 408:	e7fe      	b.n	408 <ACE_PPE_Flag7_IRQHandler>

0000040a <ACE_PPE_Flag8_IRQHandler>:
 40a:	e7fe      	b.n	40a <ACE_PPE_Flag8_IRQHandler>

0000040c <ACE_PPE_Flag9_IRQHandler>:
 40c:	e7fe      	b.n	40c <ACE_PPE_Flag9_IRQHandler>

0000040e <ACE_PPE_Flag10_IRQHandler>:
 40e:	e7fe      	b.n	40e <ACE_PPE_Flag10_IRQHandler>

00000410 <ACE_PPE_Flag11_IRQHandler>:
 410:	e7fe      	b.n	410 <ACE_PPE_Flag11_IRQHandler>

00000412 <ACE_PPE_Flag12_IRQHandler>:
 412:	e7fe      	b.n	412 <ACE_PPE_Flag12_IRQHandler>

00000414 <ACE_PPE_Flag13_IRQHandler>:
 414:	e7fe      	b.n	414 <ACE_PPE_Flag13_IRQHandler>

00000416 <ACE_PPE_Flag14_IRQHandler>:
 416:	e7fe      	b.n	416 <ACE_PPE_Flag14_IRQHandler>

00000418 <ACE_PPE_Flag15_IRQHandler>:
 418:	e7fe      	b.n	418 <ACE_PPE_Flag15_IRQHandler>

0000041a <ACE_PPE_Flag16_IRQHandler>:
 41a:	e7fe      	b.n	41a <ACE_PPE_Flag16_IRQHandler>

0000041c <ACE_PPE_Flag17_IRQHandler>:
 41c:	e7fe      	b.n	41c <ACE_PPE_Flag17_IRQHandler>

0000041e <ACE_PPE_Flag18_IRQHandler>:
 41e:	e7fe      	b.n	41e <ACE_PPE_Flag18_IRQHandler>

00000420 <ACE_PPE_Flag19_IRQHandler>:
 420:	e7fe      	b.n	420 <ACE_PPE_Flag19_IRQHandler>

00000422 <ACE_PPE_Flag20_IRQHandler>:
 422:	e7fe      	b.n	422 <ACE_PPE_Flag20_IRQHandler>

00000424 <ACE_PPE_Flag21_IRQHandler>:
 424:	e7fe      	b.n	424 <ACE_PPE_Flag21_IRQHandler>

00000426 <ACE_PPE_Flag22_IRQHandler>:
 426:	e7fe      	b.n	426 <ACE_PPE_Flag22_IRQHandler>

00000428 <ACE_PPE_Flag23_IRQHandler>:
 428:	e7fe      	b.n	428 <ACE_PPE_Flag23_IRQHandler>

0000042a <ACE_PPE_Flag24_IRQHandler>:
 42a:	e7fe      	b.n	42a <ACE_PPE_Flag24_IRQHandler>

0000042c <ACE_PPE_Flag25_IRQHandler>:
 42c:	e7fe      	b.n	42c <ACE_PPE_Flag25_IRQHandler>

0000042e <ACE_PPE_Flag26_IRQHandler>:
 42e:	e7fe      	b.n	42e <ACE_PPE_Flag26_IRQHandler>

00000430 <ACE_PPE_Flag27_IRQHandler>:
 430:	e7fe      	b.n	430 <ACE_PPE_Flag27_IRQHandler>

00000432 <ACE_PPE_Flag28_IRQHandler>:
 432:	e7fe      	b.n	432 <ACE_PPE_Flag28_IRQHandler>

00000434 <ACE_PPE_Flag29_IRQHandler>:
 434:	e7fe      	b.n	434 <ACE_PPE_Flag29_IRQHandler>

00000436 <ACE_PPE_Flag30_IRQHandler>:
 436:	e7fe      	b.n	436 <ACE_PPE_Flag30_IRQHandler>

00000438 <ACE_PPE_Flag31_IRQHandler>:
 438:	e7fe      	b.n	438 <ACE_PPE_Flag31_IRQHandler>
 43a:	0000      	.short	0x0000
 43c:	00006715 	.word	0x00006715
 440:	00000001 	.word	0x00000001
 444:	60000470 	.word	0x60000470
 448:	00000470 	.word	0x00000470
 44c:	00007594 	.word	0x00007594
 450:	60007594 	.word	0x60007594
 454:	20000000 	.word	0x20000000
 458:	20000138 	.word	0x20000138
 45c:	00000000 	.word	0x00000000
 460:	20000138 	.word	0x20000138
 464:	20003ee0 	.word	0x20003ee0
 468:	00007259 	.word	0x00007259
 46c:	00005c81 	.word	0x00005c81

Disassembly of section .text:

00000470 <__do_global_dtors_aux>:
     470:	f240 1338 	movw	r3, #312	; 0x138
     474:	f2c2 0300 	movt	r3, #8192	; 0x2000
     478:	781a      	ldrb	r2, [r3, #0]
     47a:	b90a      	cbnz	r2, 480 <__do_global_dtors_aux+0x10>
     47c:	2001      	movs	r0, #1
     47e:	7018      	strb	r0, [r3, #0]
     480:	4770      	bx	lr
     482:	bf00      	nop

00000484 <frame_dummy>:
     484:	f240 0000 	movw	r0, #0
     488:	f2c2 0000 	movt	r0, #8192	; 0x2000
     48c:	b508      	push	{r3, lr}
     48e:	6803      	ldr	r3, [r0, #0]
     490:	b12b      	cbz	r3, 49e <frame_dummy+0x1a>
     492:	f240 0300 	movw	r3, #0
     496:	f2c0 0300 	movt	r3, #0
     49a:	b103      	cbz	r3, 49e <frame_dummy+0x1a>
     49c:	4798      	blx	r3
     49e:	bd08      	pop	{r3, pc}

000004a0 <NVIC_EnableIRQ>:
 *
 * Enable a device specific interupt in the NVIC interrupt controller.
 * The interrupt number cannot be a negative value.
 */
static __INLINE void NVIC_EnableIRQ(IRQn_Type IRQn)
{
     4a0:	b480      	push	{r7}
     4a2:	b083      	sub	sp, #12
     4a4:	af00      	add	r7, sp, #0
     4a6:	4603      	mov	r3, r0
     4a8:	80fb      	strh	r3, [r7, #6]
  NVIC->ISER[((uint32_t)(IRQn) >> 5)] = (1 << ((uint32_t)(IRQn) & 0x1F)); /* enable interrupt */
     4aa:	f24e 1300 	movw	r3, #57600	; 0xe100
     4ae:	f2ce 0300 	movt	r3, #57344	; 0xe000
     4b2:	f9b7 2006 	ldrsh.w	r2, [r7, #6]
     4b6:	ea4f 1252 	mov.w	r2, r2, lsr #5
     4ba:	88f9      	ldrh	r1, [r7, #6]
     4bc:	f001 011f 	and.w	r1, r1, #31
     4c0:	f04f 0001 	mov.w	r0, #1
     4c4:	fa00 f101 	lsl.w	r1, r0, r1
     4c8:	f843 1022 	str.w	r1, [r3, r2, lsl #2]
}
     4cc:	f107 070c 	add.w	r7, r7, #12
     4d0:	46bd      	mov	sp, r7
     4d2:	bc80      	pop	{r7}
     4d4:	4770      	bx	lr
     4d6:	bf00      	nop

000004d8 <NVIC_DisableIRQ>:
 * 
 * Disable a device specific interupt in the NVIC interrupt controller.
 * The interrupt number cannot be a negative value.
 */
static __INLINE void NVIC_DisableIRQ(IRQn_Type IRQn)
{
     4d8:	b480      	push	{r7}
     4da:	b083      	sub	sp, #12
     4dc:	af00      	add	r7, sp, #0
     4de:	4603      	mov	r3, r0
     4e0:	80fb      	strh	r3, [r7, #6]
  NVIC->ICER[((uint32_t)(IRQn) >> 5)] = (1 << ((uint32_t)(IRQn) & 0x1F)); /* disable interrupt */
     4e2:	f24e 1300 	movw	r3, #57600	; 0xe100
     4e6:	f2ce 0300 	movt	r3, #57344	; 0xe000
     4ea:	f9b7 2006 	ldrsh.w	r2, [r7, #6]
     4ee:	ea4f 1252 	mov.w	r2, r2, lsr #5
     4f2:	88f9      	ldrh	r1, [r7, #6]
     4f4:	f001 011f 	and.w	r1, r1, #31
     4f8:	f04f 0001 	mov.w	r0, #1
     4fc:	fa00 f101 	lsl.w	r1, r0, r1
     500:	f102 0220 	add.w	r2, r2, #32
     504:	f843 1022 	str.w	r1, [r3, r2, lsl #2]
}
     508:	f107 070c 	add.w	r7, r7, #12
     50c:	46bd      	mov	sp, r7
     50e:	bc80      	pop	{r7}
     510:	4770      	bx	lr
     512:	bf00      	nop

00000514 <NVIC_ClearPendingIRQ>:
 *
 * Clear the pending bit for the specified interrupt. 
 * The interrupt number cannot be a negative value.
 */
static __INLINE void NVIC_ClearPendingIRQ(IRQn_Type IRQn)
{
     514:	b480      	push	{r7}
     516:	b083      	sub	sp, #12
     518:	af00      	add	r7, sp, #0
     51a:	4603      	mov	r3, r0
     51c:	80fb      	strh	r3, [r7, #6]
  NVIC->ICPR[((uint32_t)(IRQn) >> 5)] = (1 << ((uint32_t)(IRQn) & 0x1F)); /* Clear pending interrupt */
     51e:	f24e 1300 	movw	r3, #57600	; 0xe100
     522:	f2ce 0300 	movt	r3, #57344	; 0xe000
     526:	f9b7 2006 	ldrsh.w	r2, [r7, #6]
     52a:	ea4f 1252 	mov.w	r2, r2, lsr #5
     52e:	88f9      	ldrh	r1, [r7, #6]
     530:	f001 011f 	and.w	r1, r1, #31
     534:	f04f 0001 	mov.w	r0, #1
     538:	fa00 f101 	lsl.w	r1, r0, r1
     53c:	f102 0260 	add.w	r2, r2, #96	; 0x60
     540:	f843 1022 	str.w	r1, [r3, r2, lsl #2]
}
     544:	f107 070c 	add.w	r7, r7, #12
     548:	46bd      	mov	sp, r7
     54a:	bc80      	pop	{r7}
     54c:	4770      	bx	lr
     54e:	bf00      	nop

00000550 <MSS_TIM1_init>:
    one-shot mode. Allowed values for this parameter are:
        - MSS_TIMER_PERIODIC_MODE
        - MSS_TIMER_ONE_SHOT_MODE
 */
static __INLINE void MSS_TIM1_init( mss_timer_mode_t mode )
{
     550:	b580      	push	{r7, lr}
     552:	b082      	sub	sp, #8
     554:	af00      	add	r7, sp, #0
     556:	4603      	mov	r3, r0
     558:	71fb      	strb	r3, [r7, #7]
    NVIC_DisableIRQ( Timer1_IRQn );             /* Disable timer 1 irq in the Cortex-M3 NVIC */  
     55a:	f04f 0014 	mov.w	r0, #20
     55e:	f7ff ffbb 	bl	4d8 <NVIC_DisableIRQ>
    
    SYSREG->SOFT_RST_CR &= ~SYSREG_TIMER_SOFTRESET_MASK; /* Take timer block out of reset */
     562:	f242 0300 	movw	r3, #8192	; 0x2000
     566:	f2ce 0304 	movt	r3, #57348	; 0xe004
     56a:	f242 0200 	movw	r2, #8192	; 0x2000
     56e:	f2ce 0204 	movt	r2, #57348	; 0xe004
     572:	6b12      	ldr	r2, [r2, #48]	; 0x30
     574:	f022 0240 	bic.w	r2, r2, #64	; 0x40
     578:	631a      	str	r2, [r3, #48]	; 0x30
    
    TIMER->TIM64_MODE = 0U;                     /* switch to 32 bits mode */
     57a:	f245 0300 	movw	r3, #20480	; 0x5000
     57e:	f2c4 0300 	movt	r3, #16384	; 0x4000
     582:	f04f 0200 	mov.w	r2, #0
     586:	655a      	str	r2, [r3, #84]	; 0x54
    
    TIMER_BITBAND->TIM1ENABLE = 0U;             /* disable timer */
     588:	f240 0300 	movw	r3, #0
     58c:	f2c4 230a 	movt	r3, #16906	; 0x420a
     590:	f04f 0200 	mov.w	r2, #0
     594:	f8c3 2180 	str.w	r2, [r3, #384]	; 0x180
    TIMER_BITBAND->TIM1INTEN = 0U;              /* disable interrupt */
     598:	f240 0300 	movw	r3, #0
     59c:	f2c4 230a 	movt	r3, #16906	; 0x420a
     5a0:	f04f 0200 	mov.w	r2, #0
     5a4:	f8c3 2188 	str.w	r2, [r3, #392]	; 0x188
    TIMER_BITBAND->TIM1MODE = (uint32_t)mode;   /* set mode (continuous/one-shot) */
     5a8:	f240 0300 	movw	r3, #0
     5ac:	f2c4 230a 	movt	r3, #16906	; 0x420a
     5b0:	79fa      	ldrb	r2, [r7, #7]
     5b2:	f8c3 2184 	str.w	r2, [r3, #388]	; 0x184
    
    TIMER->TIM1_RIS = 1U;                       /* clear timer 1 interrupt */
     5b6:	f245 0300 	movw	r3, #20480	; 0x5000
     5ba:	f2c4 0300 	movt	r3, #16384	; 0x4000
     5be:	f04f 0201 	mov.w	r2, #1
     5c2:	611a      	str	r2, [r3, #16]
    NVIC_ClearPendingIRQ( Timer1_IRQn );        /* clear timer 1 interrupt within NVIC */
     5c4:	f04f 0014 	mov.w	r0, #20
     5c8:	f7ff ffa4 	bl	514 <NVIC_ClearPendingIRQ>
}
     5cc:	f107 0708 	add.w	r7, r7, #8
     5d0:	46bd      	mov	sp, r7
     5d2:	bd80      	pop	{r7, pc}

000005d4 <MSS_TIM1_start>:
  MSS_TIM1_load_immediate() or MSS_TIM1_load_background() functions. 
  Note: The MSS_TIM1_start() function is also used to resume the down-counter
        if previously stopped using MSS_TIM1_stop() function.
 */
static __INLINE void MSS_TIM1_start( void )
{
     5d4:	b480      	push	{r7}
     5d6:	af00      	add	r7, sp, #0
    TIMER_BITBAND->TIM1ENABLE = 1U;    /* enable timer */
     5d8:	f240 0300 	movw	r3, #0
     5dc:	f2c4 230a 	movt	r3, #16906	; 0x420a
     5e0:	f04f 0201 	mov.w	r2, #1
     5e4:	f8c3 2180 	str.w	r2, [r3, #384]	; 0x180
}
     5e8:	46bd      	mov	sp, r7
     5ea:	bc80      	pop	{r7}
     5ec:	4770      	bx	lr
     5ee:	bf00      	nop

000005f0 <MSS_TIM1_stop>:
/*-------------------------------------------------------------------------*//**
  The MSS_TIM1_stop() function disables Timer 1 and stops its down-counter
  decrementing.
 */
static __INLINE void MSS_TIM1_stop( void )
{
     5f0:	b480      	push	{r7}
     5f2:	af00      	add	r7, sp, #0
    TIMER_BITBAND->TIM1ENABLE = 0U;    /* disable timer */
     5f4:	f240 0300 	movw	r3, #0
     5f8:	f2c4 230a 	movt	r3, #16906	; 0x420a
     5fc:	f04f 0200 	mov.w	r2, #0
     600:	f8c3 2180 	str.w	r2, [r3, #384]	; 0x180
}
     604:	46bd      	mov	sp, r7
     606:	bc80      	pop	{r7}
     608:	4770      	bx	lr
     60a:	bf00      	nop

0000060c <MSS_TIM1_load_immediate>:
  @param load_value
    The load_value parameter specifies the value from which the Timer 1 
    down-counter will start decrementing.
 */
static __INLINE void MSS_TIM1_load_immediate( uint32_t load_value )
{
     60c:	b480      	push	{r7}
     60e:	b083      	sub	sp, #12
     610:	af00      	add	r7, sp, #0
     612:	6078      	str	r0, [r7, #4]
    TIMER->TIM1_LOADVAL = load_value;
     614:	f245 0300 	movw	r3, #20480	; 0x5000
     618:	f2c4 0300 	movt	r3, #16384	; 0x4000
     61c:	687a      	ldr	r2, [r7, #4]
     61e:	605a      	str	r2, [r3, #4]
}
     620:	f107 070c 	add.w	r7, r7, #12
     624:	46bd      	mov	sp, r7
     626:	bc80      	pop	{r7}
     628:	4770      	bx	lr
     62a:	bf00      	nop

0000062c <MSS_TIM1_enable_irq>:
  weak linkage, in the SmartFusion CMSIS-PAL. You must provide your own
  implementation of the Timer1_IRQHandler() function, that will override the
  default implementation, to suit your application.
 */
static __INLINE void MSS_TIM1_enable_irq( void )
{
     62c:	b580      	push	{r7, lr}
     62e:	af00      	add	r7, sp, #0
    TIMER_BITBAND->TIM1INTEN = 1U;
     630:	f240 0300 	movw	r3, #0
     634:	f2c4 230a 	movt	r3, #16906	; 0x420a
     638:	f04f 0201 	mov.w	r2, #1
     63c:	f8c3 2188 	str.w	r2, [r3, #392]	; 0x188
    NVIC_EnableIRQ( Timer1_IRQn );
     640:	f04f 0014 	mov.w	r0, #20
     644:	f7ff ff2c 	bl	4a0 <NVIC_EnableIRQ>
}
     648:	bd80      	pop	{r7, pc}
     64a:	bf00      	nop

0000064c <MSS_TIM1_clear_irq>:
  implementation of the Timer1_IRQHandler() Timer 1 interrupt service routine
  (ISR) in order to prevent the same interrupt event retriggering a call to the
  ISR.
 */
static __INLINE void MSS_TIM1_clear_irq( void )
{
     64c:	b480      	push	{r7}
     64e:	af00      	add	r7, sp, #0
    TIMER->TIM1_RIS = 1U;
     650:	f245 0300 	movw	r3, #20480	; 0x5000
     654:	f2c4 0300 	movt	r3, #16384	; 0x4000
     658:	f04f 0201 	mov.w	r2, #1
     65c:	611a      	str	r2, [r3, #16]
    /*
      To ensure all the previous instructions are completed, data barrier 
      instruction is used. The “dsb” data barriers instruction completes,
      only after all the previous instruction are completed. 
     */
    __ASM volatile ("dsb");
     65e:	f3bf 8f4f 	dsb	sy
}
     662:	46bd      	mov	sp, r7
     664:	bc80      	pop	{r7}
     666:	4770      	bx	lr

00000668 <MSS_TIM2_init>:
    one-shot mode. Allowed values for this parameter are:
        - MSS_TIMER_PERIODIC_MODE
        - MSS_TIMER_ONE_SHOT_MODE 
 */
static __INLINE void MSS_TIM2_init( mss_timer_mode_t mode )
{
     668:	b580      	push	{r7, lr}
     66a:	b082      	sub	sp, #8
     66c:	af00      	add	r7, sp, #0
     66e:	4603      	mov	r3, r0
     670:	71fb      	strb	r3, [r7, #7]
    NVIC_DisableIRQ( Timer2_IRQn );             /* Disable timer 2 irq in the Cortex-M3 NVIC */  
     672:	f04f 0015 	mov.w	r0, #21
     676:	f7ff ff2f 	bl	4d8 <NVIC_DisableIRQ>
    
    SYSREG->SOFT_RST_CR &= ~SYSREG_TIMER_SOFTRESET_MASK; /* Take timer block out of reset */
     67a:	f242 0300 	movw	r3, #8192	; 0x2000
     67e:	f2ce 0304 	movt	r3, #57348	; 0xe004
     682:	f242 0200 	movw	r2, #8192	; 0x2000
     686:	f2ce 0204 	movt	r2, #57348	; 0xe004
     68a:	6b12      	ldr	r2, [r2, #48]	; 0x30
     68c:	f022 0240 	bic.w	r2, r2, #64	; 0x40
     690:	631a      	str	r2, [r3, #48]	; 0x30
    
    TIMER->TIM64_MODE = 0U;                     /* switch to 32 bits mode */
     692:	f245 0300 	movw	r3, #20480	; 0x5000
     696:	f2c4 0300 	movt	r3, #16384	; 0x4000
     69a:	f04f 0200 	mov.w	r2, #0
     69e:	655a      	str	r2, [r3, #84]	; 0x54
    
    TIMER_BITBAND->TIM2ENABLE = 0U;             /* disable timer */
     6a0:	f240 0300 	movw	r3, #0
     6a4:	f2c4 230a 	movt	r3, #16906	; 0x420a
     6a8:	f04f 0200 	mov.w	r2, #0
     6ac:	f8c3 2480 	str.w	r2, [r3, #1152]	; 0x480
    TIMER_BITBAND->TIM2INTEN = 0U;              /* disable interrupt */
     6b0:	f240 0300 	movw	r3, #0
     6b4:	f2c4 230a 	movt	r3, #16906	; 0x420a
     6b8:	f04f 0200 	mov.w	r2, #0
     6bc:	f8c3 2488 	str.w	r2, [r3, #1160]	; 0x488
    TIMER_BITBAND->TIM2MODE = (uint32_t)mode;   /* set mode (continuous/one-shot) */
     6c0:	f240 0300 	movw	r3, #0
     6c4:	f2c4 230a 	movt	r3, #16906	; 0x420a
     6c8:	79fa      	ldrb	r2, [r7, #7]
     6ca:	f8c3 2484 	str.w	r2, [r3, #1156]	; 0x484
    
    TIMER->TIM2_RIS = 1U;                       /* clear timer 2 interrupt */
     6ce:	f245 0300 	movw	r3, #20480	; 0x5000
     6d2:	f2c4 0300 	movt	r3, #16384	; 0x4000
     6d6:	f04f 0201 	mov.w	r2, #1
     6da:	629a      	str	r2, [r3, #40]	; 0x28
    NVIC_ClearPendingIRQ( Timer2_IRQn );        /* clear timer 2 interrupt within NVIC */
     6dc:	f04f 0015 	mov.w	r0, #21
     6e0:	f7ff ff18 	bl	514 <NVIC_ClearPendingIRQ>
}
     6e4:	f107 0708 	add.w	r7, r7, #8
     6e8:	46bd      	mov	sp, r7
     6ea:	bd80      	pop	{r7, pc}

000006ec <MSS_TIM2_start>:
  MSS_TIM2_load_immediate() or MSS_TIM2_load_background() functions. 
  Note: The MSS_TIM2_start() function is also used to resume the down-counter
        if previously stopped using the MSS_TIM2_stop() function.
 */
static __INLINE void MSS_TIM2_start( void )
{
     6ec:	b480      	push	{r7}
     6ee:	af00      	add	r7, sp, #0
    TIMER_BITBAND->TIM2ENABLE = 1U;    /* enable timer */
     6f0:	f240 0300 	movw	r3, #0
     6f4:	f2c4 230a 	movt	r3, #16906	; 0x420a
     6f8:	f04f 0201 	mov.w	r2, #1
     6fc:	f8c3 2480 	str.w	r2, [r3, #1152]	; 0x480
}
     700:	46bd      	mov	sp, r7
     702:	bc80      	pop	{r7}
     704:	4770      	bx	lr
     706:	bf00      	nop

00000708 <MSS_TIM2_stop>:
/*-------------------------------------------------------------------------*//**
  The MSS_TIM2_stop() function disables Timer 2 and stops its down-counter
  decrementing.
 */
static __INLINE void MSS_TIM2_stop( void )
{
     708:	b480      	push	{r7}
     70a:	af00      	add	r7, sp, #0
    TIMER_BITBAND->TIM2ENABLE = 0U;    /* disable timer */
     70c:	f240 0300 	movw	r3, #0
     710:	f2c4 230a 	movt	r3, #16906	; 0x420a
     714:	f04f 0200 	mov.w	r2, #0
     718:	f8c3 2480 	str.w	r2, [r3, #1152]	; 0x480
}
     71c:	46bd      	mov	sp, r7
     71e:	bc80      	pop	{r7}
     720:	4770      	bx	lr
     722:	bf00      	nop

00000724 <MSS_TIM2_load_immediate>:
  @param load_value
    The load_value parameter specifies the value from which the Timer 2
    down-counter will start decrementing. 
 */
static __INLINE void MSS_TIM2_load_immediate(uint32_t load_value)
{
     724:	b480      	push	{r7}
     726:	b083      	sub	sp, #12
     728:	af00      	add	r7, sp, #0
     72a:	6078      	str	r0, [r7, #4]
    TIMER->TIM2_LOADVAL = load_value;
     72c:	f245 0300 	movw	r3, #20480	; 0x5000
     730:	f2c4 0300 	movt	r3, #16384	; 0x4000
     734:	687a      	ldr	r2, [r7, #4]
     736:	61da      	str	r2, [r3, #28]
}
     738:	f107 070c 	add.w	r7, r7, #12
     73c:	46bd      	mov	sp, r7
     73e:	bc80      	pop	{r7}
     740:	4770      	bx	lr
     742:	bf00      	nop

00000744 <MSS_TIM2_enable_irq>:
  linkage, in the SmartFusion CMSIS-PAL. You must provide your own implementation
  of the Timer2_IRQHandler() function, that will override the default
  implementation, to suit your application.
 */
static __INLINE void MSS_TIM2_enable_irq(void)
{
     744:	b580      	push	{r7, lr}
     746:	af00      	add	r7, sp, #0
    TIMER_BITBAND->TIM2INTEN = 1U;
     748:	f240 0300 	movw	r3, #0
     74c:	f2c4 230a 	movt	r3, #16906	; 0x420a
     750:	f04f 0201 	mov.w	r2, #1
     754:	f8c3 2488 	str.w	r2, [r3, #1160]	; 0x488
    NVIC_EnableIRQ( Timer2_IRQn );
     758:	f04f 0015 	mov.w	r0, #21
     75c:	f7ff fea0 	bl	4a0 <NVIC_EnableIRQ>
}
     760:	bd80      	pop	{r7, pc}
     762:	bf00      	nop

00000764 <MSS_TIM2_clear_irq>:
  implementation of the Timer2_IRQHandler() Timer 2 interrupt service routine
  (ISR) in order to prevent the same interrupt event re-triggering a call to the
  ISR.
 */
static __INLINE void MSS_TIM2_clear_irq(void)
{
     764:	b480      	push	{r7}
     766:	af00      	add	r7, sp, #0
    TIMER->TIM2_RIS = 1U;
     768:	f245 0300 	movw	r3, #20480	; 0x5000
     76c:	f2c4 0300 	movt	r3, #16384	; 0x4000
     770:	f04f 0201 	mov.w	r2, #1
     774:	629a      	str	r2, [r3, #40]	; 0x28
    /*
      To ensure all the previous instructions are completed, data barrier 
      instruction is used. The “dsb” data barriers instruction completes,
      only after all the previous instruction are completed. 
     */
    __ASM volatile ("dsb");
     776:	f3bf 8f4f 	dsb	sy
}
     77a:	46bd      	mov	sp, r7
     77c:	bc80      	pop	{r7}
     77e:	4770      	bx	lr

00000780 <calculateSquaredDistance>:
#define PI 3.141592654

enum side{LEFT, RIGHT};

//Pythagoras thm: NOTE!! RETURNS c^2 since calculating motor direction only compares two distances, not their true distances
double calculateSquaredDistance(double oneX, double oneY, double twoX, double twoY) {
     780:	b5b0      	push	{r4, r5, r7, lr}
     782:	b084      	sub	sp, #16
     784:	af00      	add	r7, sp, #0
     786:	e9c7 0102 	strd	r0, r1, [r7, #8]
     78a:	e9c7 2300 	strd	r2, r3, [r7]
	return pow(twoX - oneX, 2) + pow(twoY - oneY, 2);
     78e:	e9d7 0108 	ldrd	r0, r1, [r7, #32]
     792:	e9d7 2302 	ldrd	r2, r3, [r7, #8]
     796:	f006 f8e3 	bl	6960 <__aeabi_dsub>
     79a:	4602      	mov	r2, r0
     79c:	460b      	mov	r3, r1
     79e:	4610      	mov	r0, r2
     7a0:	4619      	mov	r1, r3
     7a2:	f006 fa91 	bl	6cc8 <__aeabi_dmul>
     7a6:	4602      	mov	r2, r0
     7a8:	460b      	mov	r3, r1
     7aa:	4614      	mov	r4, r2
     7ac:	461d      	mov	r5, r3
     7ae:	e9d7 010a 	ldrd	r0, r1, [r7, #40]	; 0x28
     7b2:	e9d7 2300 	ldrd	r2, r3, [r7]
     7b6:	f006 f8d3 	bl	6960 <__aeabi_dsub>
     7ba:	4602      	mov	r2, r0
     7bc:	460b      	mov	r3, r1
     7be:	4610      	mov	r0, r2
     7c0:	4619      	mov	r1, r3
     7c2:	f006 fa81 	bl	6cc8 <__aeabi_dmul>
     7c6:	4602      	mov	r2, r0
     7c8:	460b      	mov	r3, r1
     7ca:	4620      	mov	r0, r4
     7cc:	4629      	mov	r1, r5
     7ce:	f006 f8c9 	bl	6964 <__adddf3>
     7d2:	4602      	mov	r2, r0
     7d4:	460b      	mov	r3, r1
}
     7d6:	4610      	mov	r0, r2
     7d8:	4619      	mov	r1, r3
     7da:	f107 0710 	add.w	r7, r7, #16
     7de:	46bd      	mov	sp, r7
     7e0:	bdb0      	pop	{r4, r5, r7, pc}
     7e2:	bf00      	nop
     7e4:	0000      	lsls	r0, r0, #0
	...

000007e8 <calculateMotorDir>:

int calculateMotorDir(double currentX, double currentY, double targetX, double targetY, int side) {
     7e8:	b5f0      	push	{r4, r5, r6, r7, lr}
     7ea:	b089      	sub	sp, #36	; 0x24
     7ec:	af04      	add	r7, sp, #16
     7ee:	e9c7 0102 	strd	r0, r1, [r7, #8]
     7f2:	e9c7 2300 	strd	r2, r3, [r7]
	//If right motor
	if(side) {
     7f6:	6bbb      	ldr	r3, [r7, #56]	; 0x38
     7f8:	2b00      	cmp	r3, #0
     7fa:	d03b      	beq.n	874 <calculateMotorDir+0x8c>
		//If current radius is more than final radius, then right motor needs to spin CW
		if(calculateSquaredDistance(currentX, currentY, BOARDWIDTH, 0.0) >
     7fc:	a33e      	add	r3, pc, #248	; (adr r3, 8f8 <calculateMotorDir+0x110>)
     7fe:	e9d3 2300 	ldrd	r2, r3, [r3]
     802:	e9cd 2300 	strd	r2, r3, [sp]
     806:	f04f 0200 	mov.w	r2, #0
     80a:	f04f 0300 	mov.w	r3, #0
     80e:	e9cd 2302 	strd	r2, r3, [sp, #8]
     812:	e9d7 0102 	ldrd	r0, r1, [r7, #8]
     816:	e9d7 2300 	ldrd	r2, r3, [r7]
     81a:	f7ff ffb1 	bl	780 <calculateSquaredDistance>
     81e:	4604      	mov	r4, r0
     820:	460d      	mov	r5, r1
     822:	a335      	add	r3, pc, #212	; (adr r3, 8f8 <calculateMotorDir+0x110>)
     824:	e9d3 2300 	ldrd	r2, r3, [r3]
     828:	e9cd 2300 	strd	r2, r3, [sp]
     82c:	f04f 0200 	mov.w	r2, #0
     830:	f04f 0300 	mov.w	r3, #0
     834:	e9cd 2302 	strd	r2, r3, [sp, #8]
     838:	e9d7 010a 	ldrd	r0, r1, [r7, #40]	; 0x28
     83c:	e9d7 230c 	ldrd	r2, r3, [r7, #48]	; 0x30
     840:	f7ff ff9e 	bl	780 <calculateSquaredDistance>
     844:	4602      	mov	r2, r0
     846:	460b      	mov	r3, r1
     848:	f04f 0100 	mov.w	r1, #0
     84c:	460e      	mov	r6, r1
     84e:	4620      	mov	r0, r4
     850:	4629      	mov	r1, r5
     852:	f006 fcc9 	bl	71e8 <__aeabi_dcmpgt>
     856:	4603      	mov	r3, r0
     858:	2b00      	cmp	r3, #0
     85a:	d002      	beq.n	862 <calculateMotorDir+0x7a>
     85c:	f04f 0301 	mov.w	r3, #1
     860:	461e      	mov	r6, r3
     862:	b2f3      	uxtb	r3, r6
     864:	2b00      	cmp	r3, #0
     866:	d002      	beq.n	86e <calculateMotorDir+0x86>
			calculateSquaredDistance(targetX, targetY, BOARDWIDTH, 0.0)) {
			return CW;
     868:	f04f 0302 	mov.w	r3, #2
     86c:	e03f      	b.n	8ee <calculateMotorDir+0x106>
		}
		else {
			return CCW;
     86e:	f04f 0301 	mov.w	r3, #1
     872:	e03c      	b.n	8ee <calculateMotorDir+0x106>
		}
	}
	//If left motor
	else {
		//If current radius is more than final radius, then left motor needs to spin CCW
		if(calculateSquaredDistance(currentX, currentY, 0.0, 0.0) >
     874:	f04f 0200 	mov.w	r2, #0
     878:	f04f 0300 	mov.w	r3, #0
     87c:	e9cd 2300 	strd	r2, r3, [sp]
     880:	f04f 0200 	mov.w	r2, #0
     884:	f04f 0300 	mov.w	r3, #0
     888:	e9cd 2302 	strd	r2, r3, [sp, #8]
     88c:	e9d7 0102 	ldrd	r0, r1, [r7, #8]
     890:	e9d7 2300 	ldrd	r2, r3, [r7]
     894:	f7ff ff74 	bl	780 <calculateSquaredDistance>
     898:	4604      	mov	r4, r0
     89a:	460d      	mov	r5, r1
     89c:	f04f 0200 	mov.w	r2, #0
     8a0:	f04f 0300 	mov.w	r3, #0
     8a4:	e9cd 2300 	strd	r2, r3, [sp]
     8a8:	f04f 0200 	mov.w	r2, #0
     8ac:	f04f 0300 	mov.w	r3, #0
     8b0:	e9cd 2302 	strd	r2, r3, [sp, #8]
     8b4:	e9d7 010a 	ldrd	r0, r1, [r7, #40]	; 0x28
     8b8:	e9d7 230c 	ldrd	r2, r3, [r7, #48]	; 0x30
     8bc:	f7ff ff60 	bl	780 <calculateSquaredDistance>
     8c0:	4602      	mov	r2, r0
     8c2:	460b      	mov	r3, r1
     8c4:	f04f 0100 	mov.w	r1, #0
     8c8:	460e      	mov	r6, r1
     8ca:	4620      	mov	r0, r4
     8cc:	4629      	mov	r1, r5
     8ce:	f006 fc8b 	bl	71e8 <__aeabi_dcmpgt>
     8d2:	4603      	mov	r3, r0
     8d4:	2b00      	cmp	r3, #0
     8d6:	d002      	beq.n	8de <calculateMotorDir+0xf6>
     8d8:	f04f 0301 	mov.w	r3, #1
     8dc:	461e      	mov	r6, r3
     8de:	b2f3      	uxtb	r3, r6
     8e0:	2b00      	cmp	r3, #0
     8e2:	d002      	beq.n	8ea <calculateMotorDir+0x102>
			calculateSquaredDistance(targetX, targetY, 0.0, 0.0)) {
			return CCW;
     8e4:	f04f 0301 	mov.w	r3, #1
     8e8:	e001      	b.n	8ee <calculateMotorDir+0x106>
		}
		else {
			return CW;
     8ea:	f04f 0302 	mov.w	r3, #2
		}
	}
	return -1;	//Should never be here
}
     8ee:	4618      	mov	r0, r3
     8f0:	f107 0714 	add.w	r7, r7, #20
     8f4:	46bd      	mov	sp, r7
     8f6:	bdf0      	pop	{r4, r5, r6, r7, pc}
     8f8:	e147ae14 	.word	0xe147ae14
     8fc:	4054f47a 	.word	0x4054f47a

00000900 <sendMessage>:
uint8_t newInput = 0;	//0 if no new input, 1 otherwise. Flag set by interrupts and cleared by drawing functions
uint8_t shapeInput = 0;

//Takes in an array of uint8_t containing address and destination address
//Constructs frame appropriately and sends it out
void sendMessage(uint8_t* inputMessage, uint8_t inputMessageLength, uint16_t destAddr) {
     900:	b580      	push	{r7, lr}
     902:	b088      	sub	sp, #32
     904:	af00      	add	r7, sp, #0
     906:	6078      	str	r0, [r7, #4]
     908:	4613      	mov	r3, r2
     90a:	460a      	mov	r2, r1
     90c:	70fa      	strb	r2, [r7, #3]
     90e:	803b      	strh	r3, [r7, #0]
	int i;
	uint8_t message[messageLength];
	message[0] = 0x7E;	//Delimiter, does not change
     910:	f04f 037e 	mov.w	r3, #126	; 0x7e
     914:	723b      	strb	r3, [r7, #8]
	message[1] = (messageLength - 4) >> 8;	//Length MSB
     916:	f04f 0300 	mov.w	r3, #0
     91a:	727b      	strb	r3, [r7, #9]
	message[2] = (messageLength - 4) & 0xFF;	//Length LSB
     91c:	f04f 030c 	mov.w	r3, #12
     920:	72bb      	strb	r3, [r7, #10]
	message[3] = 0;	//Frame type: 0 = TX Request 64 bit addr
     922:	f04f 0300 	mov.w	r3, #0
     926:	72fb      	strb	r3, [r7, #11]
	message[4] = 1;	//Frame ID
     928:	f04f 0301 	mov.w	r3, #1
     92c:	733b      	strb	r3, [r7, #12]
	//5-12: Destination addresses
	for(i = 5; i < 11; ++i) {
     92e:	f04f 0305 	mov.w	r3, #5
     932:	61bb      	str	r3, [r7, #24]
     934:	e00b      	b.n	94e <sendMessage+0x4e>
		message[i] = 0;
     936:	69bb      	ldr	r3, [r7, #24]
     938:	f107 0120 	add.w	r1, r7, #32
     93c:	440b      	add	r3, r1
     93e:	f04f 0200 	mov.w	r2, #0
     942:	f803 2c18 	strb.w	r2, [r3, #-24]
	message[1] = (messageLength - 4) >> 8;	//Length MSB
	message[2] = (messageLength - 4) & 0xFF;	//Length LSB
	message[3] = 0;	//Frame type: 0 = TX Request 64 bit addr
	message[4] = 1;	//Frame ID
	//5-12: Destination addresses
	for(i = 5; i < 11; ++i) {
     946:	69bb      	ldr	r3, [r7, #24]
     948:	f103 0301 	add.w	r3, r3, #1
     94c:	61bb      	str	r3, [r7, #24]
     94e:	69bb      	ldr	r3, [r7, #24]
     950:	2b0a      	cmp	r3, #10
     952:	ddf0      	ble.n	936 <sendMessage+0x36>
		message[i] = 0;
	}
	message[11] = (destAddr >> 8) & 0xFF;
     954:	883b      	ldrh	r3, [r7, #0]
     956:	ea4f 2313 	mov.w	r3, r3, lsr #8
     95a:	b29b      	uxth	r3, r3
     95c:	b2db      	uxtb	r3, r3
     95e:	74fb      	strb	r3, [r7, #19]
	message[12] = destAddr & 0xFF;
     960:	883b      	ldrh	r3, [r7, #0]
     962:	b2db      	uxtb	r3, r3
     964:	753b      	strb	r3, [r7, #20]
	message[13] = 0;	//Options
     966:	f04f 0300 	mov.w	r3, #0
     96a:	757b      	strb	r3, [r7, #21]
	for(i = 0; i < inputMessageLength; ++i) {
     96c:	f04f 0300 	mov.w	r3, #0
     970:	61bb      	str	r3, [r7, #24]
     972:	e00f      	b.n	994 <sendMessage+0x94>
		message[i + 14] = *(inputMessage + i * sizeof(uint8_t));
     974:	69bb      	ldr	r3, [r7, #24]
     976:	f103 030e 	add.w	r3, r3, #14
     97a:	69b9      	ldr	r1, [r7, #24]
     97c:	687a      	ldr	r2, [r7, #4]
     97e:	440a      	add	r2, r1
     980:	7812      	ldrb	r2, [r2, #0]
     982:	f107 0120 	add.w	r1, r7, #32
     986:	440b      	add	r3, r1
     988:	f803 2c18 	strb.w	r2, [r3, #-24]
		message[i] = 0;
	}
	message[11] = (destAddr >> 8) & 0xFF;
	message[12] = destAddr & 0xFF;
	message[13] = 0;	//Options
	for(i = 0; i < inputMessageLength; ++i) {
     98c:	69bb      	ldr	r3, [r7, #24]
     98e:	f103 0301 	add.w	r3, r3, #1
     992:	61bb      	str	r3, [r7, #24]
     994:	78fa      	ldrb	r2, [r7, #3]
     996:	69bb      	ldr	r3, [r7, #24]
     998:	429a      	cmp	r2, r3
     99a:	dceb      	bgt.n	974 <sendMessage+0x74>
		message[i + 14] = *(inputMessage + i * sizeof(uint8_t));
	}
	uint8_t sum = 0;
     99c:	f04f 0300 	mov.w	r3, #0
     9a0:	77fb      	strb	r3, [r7, #31]
	for(i = 3; i < messageLength - 1; ++i) {
     9a2:	f04f 0303 	mov.w	r3, #3
     9a6:	61bb      	str	r3, [r7, #24]
     9a8:	e00c      	b.n	9c4 <sendMessage+0xc4>
		sum += message[i];
     9aa:	69bb      	ldr	r3, [r7, #24]
     9ac:	f107 0220 	add.w	r2, r7, #32
     9b0:	4413      	add	r3, r2
     9b2:	f813 2c18 	ldrb.w	r2, [r3, #-24]
     9b6:	7ffb      	ldrb	r3, [r7, #31]
     9b8:	4413      	add	r3, r2
     9ba:	77fb      	strb	r3, [r7, #31]
	message[13] = 0;	//Options
	for(i = 0; i < inputMessageLength; ++i) {
		message[i + 14] = *(inputMessage + i * sizeof(uint8_t));
	}
	uint8_t sum = 0;
	for(i = 3; i < messageLength - 1; ++i) {
     9bc:	69bb      	ldr	r3, [r7, #24]
     9be:	f103 0301 	add.w	r3, r3, #1
     9c2:	61bb      	str	r3, [r7, #24]
     9c4:	69bb      	ldr	r3, [r7, #24]
     9c6:	2b0e      	cmp	r3, #14
     9c8:	ddef      	ble.n	9aa <sendMessage+0xaa>
		sum += message[i];
	}
	message[messageLength - 1] = (0xFF - sum) & 0xFF;
     9ca:	7ffb      	ldrb	r3, [r7, #31]
     9cc:	ea6f 0303 	mvn.w	r3, r3
     9d0:	b2db      	uxtb	r3, r3
     9d2:	75fb      	strb	r3, [r7, #23]
	MSS_UART_polled_tx(&g_mss_uart1, message, sizeof(message));
     9d4:	f107 0308 	add.w	r3, r7, #8
     9d8:	f643 608c 	movw	r0, #16012	; 0x3e8c
     9dc:	f2c2 0000 	movt	r0, #8192	; 0x2000
     9e0:	4619      	mov	r1, r3
     9e2:	f04f 0210 	mov.w	r2, #16
     9e6:	f005 fba1 	bl	612c <MSS_UART_polled_tx>
}
     9ea:	f107 0720 	add.w	r7, r7, #32
     9ee:	46bd      	mov	sp, r7
     9f0:	bd80      	pop	{r7, pc}
     9f2:	bf00      	nop

000009f4 <uart1_rx_handler>:

//When something is received, trigger an interrupt that fills g_rx_buff with the received data
void uart1_rx_handler( mss_uart_instance_t * this_uart ) {
     9f4:	b580      	push	{r7, lr}
     9f6:	b084      	sub	sp, #16
     9f8:	af00      	add	r7, sp, #0
     9fa:	6078      	str	r0, [r7, #4]
	//uint8_t g_rx_buff[RX_BUFF_SIZE];
	//int rx_size = MSS_UART_get_rx( this_uart, g_rx_buff, RX_BUFF_SIZE );
	int rx_size = MSS_UART_get_rx( this_uart, receivedRaw + receivedCounter * sizeof(uint8_t), RX_BUFF_SIZE );
     9fc:	f240 133c 	movw	r3, #316	; 0x13c
     a00:	f2c2 0300 	movt	r3, #8192	; 0x2000
     a04:	681b      	ldr	r3, [r3, #0]
     a06:	461a      	mov	r2, r3
     a08:	f240 1358 	movw	r3, #344	; 0x158
     a0c:	f2c2 0300 	movt	r3, #8192	; 0x2000
     a10:	4413      	add	r3, r2
     a12:	6878      	ldr	r0, [r7, #4]
     a14:	4619      	mov	r1, r3
     a16:	f641 524c 	movw	r2, #7500	; 0x1d4c
     a1a:	f005 fbf9 	bl	6210 <MSS_UART_get_rx>
     a1e:	4603      	mov	r3, r0
     a20:	60bb      	str	r3, [r7, #8]
	//memcpy(receivedRaw + receivedCounter * sizeof(uint8_t), g_rx_buff, rx_size);
	receivedCounter += rx_size;
     a22:	f240 133c 	movw	r3, #316	; 0x13c
     a26:	f2c2 0300 	movt	r3, #8192	; 0x2000
     a2a:	681a      	ldr	r2, [r3, #0]
     a2c:	68bb      	ldr	r3, [r7, #8]
     a2e:	441a      	add	r2, r3
     a30:	f240 133c 	movw	r3, #316	; 0x13c
     a34:	f2c2 0300 	movt	r3, #8192	; 0x2000
     a38:	601a      	str	r2, [r3, #0]
	if(receivedCounter >= RECEIVEDBUFFERSIZE - 15) {
     a3a:	f240 133c 	movw	r3, #316	; 0x13c
     a3e:	f2c2 0300 	movt	r3, #8192	; 0x2000
     a42:	681b      	ldr	r3, [r3, #0]
     a44:	f5b3 7f8e 	cmp.w	r3, #284	; 0x11c
     a48:	dd06      	ble.n	a58 <uart1_rx_handler+0x64>
		receivedCounter = 0;
     a4a:	f240 133c 	movw	r3, #316	; 0x13c
     a4e:	f2c2 0300 	movt	r3, #8192	; 0x2000
     a52:	f04f 0200 	mov.w	r2, #0
     a56:	601a      	str	r2, [r3, #0]
	}
	int i;
	//At this point, all raw data read into receivedRaw array
	for(i = 0; i < RECEIVEDBUFFERSIZE; ++i) {
     a58:	f04f 0300 	mov.w	r3, #0
     a5c:	60fb      	str	r3, [r7, #12]
     a5e:	e158      	b.n	d12 <uart1_rx_handler+0x31e>
		//If this is an RX packet from touchscreen containing data 0xFFFFFFFF__, then it is to change mode
		if(receivedRaw[i] == 0x7E && receivedRaw[i+3] == 0x81 && receivedRaw[i+4] == 0x37 && receivedRaw[i+5] == 0x3C &&
     a60:	68fa      	ldr	r2, [r7, #12]
     a62:	f240 1358 	movw	r3, #344	; 0x158
     a66:	f2c2 0300 	movt	r3, #8192	; 0x2000
     a6a:	5c9b      	ldrb	r3, [r3, r2]
     a6c:	2b7e      	cmp	r3, #126	; 0x7e
     a6e:	d15c      	bne.n	b2a <uart1_rx_handler+0x136>
     a70:	68fb      	ldr	r3, [r7, #12]
     a72:	f103 0203 	add.w	r2, r3, #3
     a76:	f240 1358 	movw	r3, #344	; 0x158
     a7a:	f2c2 0300 	movt	r3, #8192	; 0x2000
     a7e:	5c9b      	ldrb	r3, [r3, r2]
     a80:	2b81      	cmp	r3, #129	; 0x81
     a82:	d152      	bne.n	b2a <uart1_rx_handler+0x136>
     a84:	68fb      	ldr	r3, [r7, #12]
     a86:	f103 0204 	add.w	r2, r3, #4
     a8a:	f240 1358 	movw	r3, #344	; 0x158
     a8e:	f2c2 0300 	movt	r3, #8192	; 0x2000
     a92:	5c9b      	ldrb	r3, [r3, r2]
     a94:	2b37      	cmp	r3, #55	; 0x37
     a96:	d148      	bne.n	b2a <uart1_rx_handler+0x136>
     a98:	68fb      	ldr	r3, [r7, #12]
     a9a:	f103 0205 	add.w	r2, r3, #5
     a9e:	f240 1358 	movw	r3, #344	; 0x158
     aa2:	f2c2 0300 	movt	r3, #8192	; 0x2000
     aa6:	5c9b      	ldrb	r3, [r3, r2]
     aa8:	2b3c      	cmp	r3, #60	; 0x3c
     aaa:	d13e      	bne.n	b2a <uart1_rx_handler+0x136>
				receivedRaw[i+8] == 0xFF && receivedRaw[i+9] == 0xFF && receivedRaw[i+10] == 0xFF && receivedRaw[i+11] == 0xFF) {
     aac:	68fb      	ldr	r3, [r7, #12]
     aae:	f103 0208 	add.w	r2, r3, #8
     ab2:	f240 1358 	movw	r3, #344	; 0x158
     ab6:	f2c2 0300 	movt	r3, #8192	; 0x2000
     aba:	5c9b      	ldrb	r3, [r3, r2]
	}
	int i;
	//At this point, all raw data read into receivedRaw array
	for(i = 0; i < RECEIVEDBUFFERSIZE; ++i) {
		//If this is an RX packet from touchscreen containing data 0xFFFFFFFF__, then it is to change mode
		if(receivedRaw[i] == 0x7E && receivedRaw[i+3] == 0x81 && receivedRaw[i+4] == 0x37 && receivedRaw[i+5] == 0x3C &&
     abc:	2bff      	cmp	r3, #255	; 0xff
     abe:	d134      	bne.n	b2a <uart1_rx_handler+0x136>
				receivedRaw[i+8] == 0xFF && receivedRaw[i+9] == 0xFF && receivedRaw[i+10] == 0xFF && receivedRaw[i+11] == 0xFF) {
     ac0:	68fb      	ldr	r3, [r7, #12]
     ac2:	f103 0209 	add.w	r2, r3, #9
     ac6:	f240 1358 	movw	r3, #344	; 0x158
     aca:	f2c2 0300 	movt	r3, #8192	; 0x2000
     ace:	5c9b      	ldrb	r3, [r3, r2]
	}
	int i;
	//At this point, all raw data read into receivedRaw array
	for(i = 0; i < RECEIVEDBUFFERSIZE; ++i) {
		//If this is an RX packet from touchscreen containing data 0xFFFFFFFF__, then it is to change mode
		if(receivedRaw[i] == 0x7E && receivedRaw[i+3] == 0x81 && receivedRaw[i+4] == 0x37 && receivedRaw[i+5] == 0x3C &&
     ad0:	2bff      	cmp	r3, #255	; 0xff
     ad2:	d12a      	bne.n	b2a <uart1_rx_handler+0x136>
				receivedRaw[i+8] == 0xFF && receivedRaw[i+9] == 0xFF && receivedRaw[i+10] == 0xFF && receivedRaw[i+11] == 0xFF) {
     ad4:	68fb      	ldr	r3, [r7, #12]
     ad6:	f103 020a 	add.w	r2, r3, #10
     ada:	f240 1358 	movw	r3, #344	; 0x158
     ade:	f2c2 0300 	movt	r3, #8192	; 0x2000
     ae2:	5c9b      	ldrb	r3, [r3, r2]
	}
	int i;
	//At this point, all raw data read into receivedRaw array
	for(i = 0; i < RECEIVEDBUFFERSIZE; ++i) {
		//If this is an RX packet from touchscreen containing data 0xFFFFFFFF__, then it is to change mode
		if(receivedRaw[i] == 0x7E && receivedRaw[i+3] == 0x81 && receivedRaw[i+4] == 0x37 && receivedRaw[i+5] == 0x3C &&
     ae4:	2bff      	cmp	r3, #255	; 0xff
     ae6:	d120      	bne.n	b2a <uart1_rx_handler+0x136>
				receivedRaw[i+8] == 0xFF && receivedRaw[i+9] == 0xFF && receivedRaw[i+10] == 0xFF && receivedRaw[i+11] == 0xFF) {
     ae8:	68fb      	ldr	r3, [r7, #12]
     aea:	f103 020b 	add.w	r2, r3, #11
     aee:	f240 1358 	movw	r3, #344	; 0x158
     af2:	f2c2 0300 	movt	r3, #8192	; 0x2000
     af6:	5c9b      	ldrb	r3, [r3, r2]
	}
	int i;
	//At this point, all raw data read into receivedRaw array
	for(i = 0; i < RECEIVEDBUFFERSIZE; ++i) {
		//If this is an RX packet from touchscreen containing data 0xFFFFFFFF__, then it is to change mode
		if(receivedRaw[i] == 0x7E && receivedRaw[i+3] == 0x81 && receivedRaw[i+4] == 0x37 && receivedRaw[i+5] == 0x3C &&
     af8:	2bff      	cmp	r3, #255	; 0xff
     afa:	d116      	bne.n	b2a <uart1_rx_handler+0x136>
				receivedRaw[i+8] == 0xFF && receivedRaw[i+9] == 0xFF && receivedRaw[i+10] == 0xFF && receivedRaw[i+11] == 0xFF) {
			mode = receivedRaw[i+12];
     afc:	68fb      	ldr	r3, [r7, #12]
     afe:	f103 020c 	add.w	r2, r3, #12
     b02:	f240 1358 	movw	r3, #344	; 0x158
     b06:	f2c2 0300 	movt	r3, #8192	; 0x2000
     b0a:	5c9b      	ldrb	r3, [r3, r2]
     b0c:	461a      	mov	r2, r3
     b0e:	f240 0304 	movw	r3, #4
     b12:	f2c2 0300 	movt	r3, #8192	; 0x2000
     b16:	601a      	str	r2, [r3, #0]
			receivedRaw[i] = 0;		//Remove delimiter from memory so data will not be read twice
     b18:	68fa      	ldr	r2, [r7, #12]
     b1a:	f240 1358 	movw	r3, #344	; 0x158
     b1e:	f2c2 0300 	movt	r3, #8192	; 0x2000
     b22:	f04f 0100 	mov.w	r1, #0
     b26:	5499      	strb	r1, [r3, r2]
	}
	int i;
	//At this point, all raw data read into receivedRaw array
	for(i = 0; i < RECEIVEDBUFFERSIZE; ++i) {
		//If this is an RX packet from touchscreen containing data 0xFFFFFFFF__, then it is to change mode
		if(receivedRaw[i] == 0x7E && receivedRaw[i+3] == 0x81 && receivedRaw[i+4] == 0x37 && receivedRaw[i+5] == 0x3C &&
     b28:	e0ef      	b.n	d0a <uart1_rx_handler+0x316>
				receivedRaw[i+8] == 0xFF && receivedRaw[i+9] == 0xFF && receivedRaw[i+10] == 0xFF && receivedRaw[i+11] == 0xFF) {
			mode = receivedRaw[i+12];
			receivedRaw[i] = 0;		//Remove delimiter from memory so data will not be read twice
		}
		else if(receivedRaw[i] == 0x7E && receivedRaw[i+3] == 0x81 && receivedRaw[i+4] == 0x37 && receivedRaw[i+5] == 0x3C &&
     b2a:	68fa      	ldr	r2, [r7, #12]
     b2c:	f240 1358 	movw	r3, #344	; 0x158
     b30:	f2c2 0300 	movt	r3, #8192	; 0x2000
     b34:	5c9b      	ldrb	r3, [r3, r2]
     b36:	2b7e      	cmp	r3, #126	; 0x7e
     b38:	d15a      	bne.n	bf0 <uart1_rx_handler+0x1fc>
     b3a:	68fb      	ldr	r3, [r7, #12]
     b3c:	f103 0203 	add.w	r2, r3, #3
     b40:	f240 1358 	movw	r3, #344	; 0x158
     b44:	f2c2 0300 	movt	r3, #8192	; 0x2000
     b48:	5c9b      	ldrb	r3, [r3, r2]
     b4a:	2b81      	cmp	r3, #129	; 0x81
     b4c:	d150      	bne.n	bf0 <uart1_rx_handler+0x1fc>
     b4e:	68fb      	ldr	r3, [r7, #12]
     b50:	f103 0204 	add.w	r2, r3, #4
     b54:	f240 1358 	movw	r3, #344	; 0x158
     b58:	f2c2 0300 	movt	r3, #8192	; 0x2000
     b5c:	5c9b      	ldrb	r3, [r3, r2]
     b5e:	2b37      	cmp	r3, #55	; 0x37
     b60:	d146      	bne.n	bf0 <uart1_rx_handler+0x1fc>
     b62:	68fb      	ldr	r3, [r7, #12]
     b64:	f103 0205 	add.w	r2, r3, #5
     b68:	f240 1358 	movw	r3, #344	; 0x158
     b6c:	f2c2 0300 	movt	r3, #8192	; 0x2000
     b70:	5c9b      	ldrb	r3, [r3, r2]
     b72:	2b3c      	cmp	r3, #60	; 0x3c
     b74:	d13c      	bne.n	bf0 <uart1_rx_handler+0x1fc>
				receivedRaw[i+8] == 0x11 && receivedRaw[i+9] == 0x11 && receivedRaw[i+10] == 0x11 && receivedRaw[i+11] == 0x11) {
     b76:	68fb      	ldr	r3, [r7, #12]
     b78:	f103 0208 	add.w	r2, r3, #8
     b7c:	f240 1358 	movw	r3, #344	; 0x158
     b80:	f2c2 0300 	movt	r3, #8192	; 0x2000
     b84:	5c9b      	ldrb	r3, [r3, r2]
		if(receivedRaw[i] == 0x7E && receivedRaw[i+3] == 0x81 && receivedRaw[i+4] == 0x37 && receivedRaw[i+5] == 0x3C &&
				receivedRaw[i+8] == 0xFF && receivedRaw[i+9] == 0xFF && receivedRaw[i+10] == 0xFF && receivedRaw[i+11] == 0xFF) {
			mode = receivedRaw[i+12];
			receivedRaw[i] = 0;		//Remove delimiter from memory so data will not be read twice
		}
		else if(receivedRaw[i] == 0x7E && receivedRaw[i+3] == 0x81 && receivedRaw[i+4] == 0x37 && receivedRaw[i+5] == 0x3C &&
     b86:	2b11      	cmp	r3, #17
     b88:	d132      	bne.n	bf0 <uart1_rx_handler+0x1fc>
				receivedRaw[i+8] == 0x11 && receivedRaw[i+9] == 0x11 && receivedRaw[i+10] == 0x11 && receivedRaw[i+11] == 0x11) {
     b8a:	68fb      	ldr	r3, [r7, #12]
     b8c:	f103 0209 	add.w	r2, r3, #9
     b90:	f240 1358 	movw	r3, #344	; 0x158
     b94:	f2c2 0300 	movt	r3, #8192	; 0x2000
     b98:	5c9b      	ldrb	r3, [r3, r2]
		if(receivedRaw[i] == 0x7E && receivedRaw[i+3] == 0x81 && receivedRaw[i+4] == 0x37 && receivedRaw[i+5] == 0x3C &&
				receivedRaw[i+8] == 0xFF && receivedRaw[i+9] == 0xFF && receivedRaw[i+10] == 0xFF && receivedRaw[i+11] == 0xFF) {
			mode = receivedRaw[i+12];
			receivedRaw[i] = 0;		//Remove delimiter from memory so data will not be read twice
		}
		else if(receivedRaw[i] == 0x7E && receivedRaw[i+3] == 0x81 && receivedRaw[i+4] == 0x37 && receivedRaw[i+5] == 0x3C &&
     b9a:	2b11      	cmp	r3, #17
     b9c:	d128      	bne.n	bf0 <uart1_rx_handler+0x1fc>
				receivedRaw[i+8] == 0x11 && receivedRaw[i+9] == 0x11 && receivedRaw[i+10] == 0x11 && receivedRaw[i+11] == 0x11) {
     b9e:	68fb      	ldr	r3, [r7, #12]
     ba0:	f103 020a 	add.w	r2, r3, #10
     ba4:	f240 1358 	movw	r3, #344	; 0x158
     ba8:	f2c2 0300 	movt	r3, #8192	; 0x2000
     bac:	5c9b      	ldrb	r3, [r3, r2]
		if(receivedRaw[i] == 0x7E && receivedRaw[i+3] == 0x81 && receivedRaw[i+4] == 0x37 && receivedRaw[i+5] == 0x3C &&
				receivedRaw[i+8] == 0xFF && receivedRaw[i+9] == 0xFF && receivedRaw[i+10] == 0xFF && receivedRaw[i+11] == 0xFF) {
			mode = receivedRaw[i+12];
			receivedRaw[i] = 0;		//Remove delimiter from memory so data will not be read twice
		}
		else if(receivedRaw[i] == 0x7E && receivedRaw[i+3] == 0x81 && receivedRaw[i+4] == 0x37 && receivedRaw[i+5] == 0x3C &&
     bae:	2b11      	cmp	r3, #17
     bb0:	d11e      	bne.n	bf0 <uart1_rx_handler+0x1fc>
				receivedRaw[i+8] == 0x11 && receivedRaw[i+9] == 0x11 && receivedRaw[i+10] == 0x11 && receivedRaw[i+11] == 0x11) {
     bb2:	68fb      	ldr	r3, [r7, #12]
     bb4:	f103 020b 	add.w	r2, r3, #11
     bb8:	f240 1358 	movw	r3, #344	; 0x158
     bbc:	f2c2 0300 	movt	r3, #8192	; 0x2000
     bc0:	5c9b      	ldrb	r3, [r3, r2]
		if(receivedRaw[i] == 0x7E && receivedRaw[i+3] == 0x81 && receivedRaw[i+4] == 0x37 && receivedRaw[i+5] == 0x3C &&
				receivedRaw[i+8] == 0xFF && receivedRaw[i+9] == 0xFF && receivedRaw[i+10] == 0xFF && receivedRaw[i+11] == 0xFF) {
			mode = receivedRaw[i+12];
			receivedRaw[i] = 0;		//Remove delimiter from memory so data will not be read twice
		}
		else if(receivedRaw[i] == 0x7E && receivedRaw[i+3] == 0x81 && receivedRaw[i+4] == 0x37 && receivedRaw[i+5] == 0x3C &&
     bc2:	2b11      	cmp	r3, #17
     bc4:	d114      	bne.n	bf0 <uart1_rx_handler+0x1fc>
				receivedRaw[i+8] == 0x11 && receivedRaw[i+9] == 0x11 && receivedRaw[i+10] == 0x11 && receivedRaw[i+11] == 0x11) {
			shapeInput = receivedRaw[i+12];
     bc6:	68fb      	ldr	r3, [r7, #12]
     bc8:	f103 020c 	add.w	r2, r3, #12
     bcc:	f240 1358 	movw	r3, #344	; 0x158
     bd0:	f2c2 0300 	movt	r3, #8192	; 0x2000
     bd4:	5c9a      	ldrb	r2, [r3, r2]
     bd6:	f240 1345 	movw	r3, #325	; 0x145
     bda:	f2c2 0300 	movt	r3, #8192	; 0x2000
     bde:	701a      	strb	r2, [r3, #0]
			newInput = 1;	//Sets the new input flag to true
     be0:	f240 1344 	movw	r3, #324	; 0x144
     be4:	f2c2 0300 	movt	r3, #8192	; 0x2000
     be8:	f04f 0201 	mov.w	r2, #1
     bec:	701a      	strb	r2, [r3, #0]
		if(receivedRaw[i] == 0x7E && receivedRaw[i+3] == 0x81 && receivedRaw[i+4] == 0x37 && receivedRaw[i+5] == 0x3C &&
				receivedRaw[i+8] == 0xFF && receivedRaw[i+9] == 0xFF && receivedRaw[i+10] == 0xFF && receivedRaw[i+11] == 0xFF) {
			mode = receivedRaw[i+12];
			receivedRaw[i] = 0;		//Remove delimiter from memory so data will not be read twice
		}
		else if(receivedRaw[i] == 0x7E && receivedRaw[i+3] == 0x81 && receivedRaw[i+4] == 0x37 && receivedRaw[i+5] == 0x3C &&
     bee:	e08c      	b.n	d0a <uart1_rx_handler+0x316>
				receivedRaw[i+8] == 0x11 && receivedRaw[i+9] == 0x11 && receivedRaw[i+10] == 0x11 && receivedRaw[i+11] == 0x11) {
			shapeInput = receivedRaw[i+12];
			newInput = 1;	//Sets the new input flag to true
		}
		//If this is an RX packet from a specific XBee addr containing freeform drawings
		else if(receivedRaw[i] == 0x7E && receivedRaw[i+3] == 0x81 && receivedRaw[i+4] == 0x37 && receivedRaw[i+5] == 0x3C) {
     bf0:	68fa      	ldr	r2, [r7, #12]
     bf2:	f240 1358 	movw	r3, #344	; 0x158
     bf6:	f2c2 0300 	movt	r3, #8192	; 0x2000
     bfa:	5c9b      	ldrb	r3, [r3, r2]
     bfc:	2b7e      	cmp	r3, #126	; 0x7e
     bfe:	f040 8084 	bne.w	d0a <uart1_rx_handler+0x316>
     c02:	68fb      	ldr	r3, [r7, #12]
     c04:	f103 0203 	add.w	r2, r3, #3
     c08:	f240 1358 	movw	r3, #344	; 0x158
     c0c:	f2c2 0300 	movt	r3, #8192	; 0x2000
     c10:	5c9b      	ldrb	r3, [r3, r2]
     c12:	2b81      	cmp	r3, #129	; 0x81
     c14:	d179      	bne.n	d0a <uart1_rx_handler+0x316>
     c16:	68fb      	ldr	r3, [r7, #12]
     c18:	f103 0204 	add.w	r2, r3, #4
     c1c:	f240 1358 	movw	r3, #344	; 0x158
     c20:	f2c2 0300 	movt	r3, #8192	; 0x2000
     c24:	5c9b      	ldrb	r3, [r3, r2]
     c26:	2b37      	cmp	r3, #55	; 0x37
     c28:	d16f      	bne.n	d0a <uart1_rx_handler+0x316>
     c2a:	68fb      	ldr	r3, [r7, #12]
     c2c:	f103 0205 	add.w	r2, r3, #5
     c30:	f240 1358 	movw	r3, #344	; 0x158
     c34:	f2c2 0300 	movt	r3, #8192	; 0x2000
     c38:	5c9b      	ldrb	r3, [r3, r2]
     c3a:	2b3c      	cmp	r3, #60	; 0x3c
     c3c:	d165      	bne.n	d0a <uart1_rx_handler+0x316>
			yData = receivedRaw[i+9];
			xData = receivedRaw[i+10];
			receivedParsed[parsedCounter++] = xData;
			receivedParsed[parsedCounter++] = yData;
			*/
			yData = receivedRaw[i+11];
     c3e:	68fb      	ldr	r3, [r7, #12]
     c40:	f103 020b 	add.w	r2, r3, #11
     c44:	f240 1358 	movw	r3, #344	; 0x158
     c48:	f2c2 0300 	movt	r3, #8192	; 0x2000
     c4c:	5c9a      	ldrb	r2, [r3, r2]
     c4e:	f643 6388 	movw	r3, #16008	; 0x3e88
     c52:	f2c2 0300 	movt	r3, #8192	; 0x2000
     c56:	701a      	strb	r2, [r3, #0]
			xData = receivedRaw[i+12];
     c58:	68fb      	ldr	r3, [r7, #12]
     c5a:	f103 020c 	add.w	r2, r3, #12
     c5e:	f240 1358 	movw	r3, #344	; 0x158
     c62:	f2c2 0300 	movt	r3, #8192	; 0x2000
     c66:	5c9a      	ldrb	r2, [r3, r2]
     c68:	f643 4310 	movw	r3, #15376	; 0x3c10
     c6c:	f2c2 0300 	movt	r3, #8192	; 0x2000
     c70:	701a      	strb	r2, [r3, #0]
			receivedParsed[parsedCounter++] = xData;
     c72:	f240 1340 	movw	r3, #320	; 0x140
     c76:	f2c2 0300 	movt	r3, #8192	; 0x2000
     c7a:	681a      	ldr	r2, [r3, #0]
     c7c:	f643 4310 	movw	r3, #15376	; 0x3c10
     c80:	f2c2 0300 	movt	r3, #8192	; 0x2000
     c84:	7819      	ldrb	r1, [r3, #0]
     c86:	f643 4320 	movw	r3, #15392	; 0x3c20
     c8a:	f2c2 0300 	movt	r3, #8192	; 0x2000
     c8e:	5499      	strb	r1, [r3, r2]
     c90:	f102 0201 	add.w	r2, r2, #1
     c94:	f240 1340 	movw	r3, #320	; 0x140
     c98:	f2c2 0300 	movt	r3, #8192	; 0x2000
     c9c:	601a      	str	r2, [r3, #0]
			receivedParsed[parsedCounter++] = yData;
     c9e:	f240 1340 	movw	r3, #320	; 0x140
     ca2:	f2c2 0300 	movt	r3, #8192	; 0x2000
     ca6:	681a      	ldr	r2, [r3, #0]
     ca8:	f643 6388 	movw	r3, #16008	; 0x3e88
     cac:	f2c2 0300 	movt	r3, #8192	; 0x2000
     cb0:	7819      	ldrb	r1, [r3, #0]
     cb2:	f643 4320 	movw	r3, #15392	; 0x3c20
     cb6:	f2c2 0300 	movt	r3, #8192	; 0x2000
     cba:	5499      	strb	r1, [r3, r2]
     cbc:	f102 0201 	add.w	r2, r2, #1
     cc0:	f240 1340 	movw	r3, #320	; 0x140
     cc4:	f2c2 0300 	movt	r3, #8192	; 0x2000
     cc8:	601a      	str	r2, [r3, #0]
			receivedRaw[i] = 0;		//Remove delimiter from memory so data will not be read twice
     cca:	68fa      	ldr	r2, [r7, #12]
     ccc:	f240 1358 	movw	r3, #344	; 0x158
     cd0:	f2c2 0300 	movt	r3, #8192	; 0x2000
     cd4:	f04f 0100 	mov.w	r1, #0
     cd8:	5499      	strb	r1, [r3, r2]
			newInput = 1;
     cda:	f240 1344 	movw	r3, #324	; 0x144
     cde:	f2c2 0300 	movt	r3, #8192	; 0x2000
     ce2:	f04f 0201 	mov.w	r2, #1
     ce6:	701a      	strb	r2, [r3, #0]
			if(parsedCounter >= NUMPOINTS) {
     ce8:	f240 1340 	movw	r3, #320	; 0x140
     cec:	f2c2 0300 	movt	r3, #8192	; 0x2000
     cf0:	681a      	ldr	r2, [r3, #0]
     cf2:	f240 2357 	movw	r3, #599	; 0x257
     cf6:	429a      	cmp	r2, r3
     cf8:	dd07      	ble.n	d0a <uart1_rx_handler+0x316>
				//Disable RX handler
				MSS_UART_disable_irq( &g_mss_uart1, ( MSS_UART_RBF_IRQ) );
     cfa:	f643 608c 	movw	r0, #16012	; 0x3e8c
     cfe:	f2c2 0000 	movt	r0, #8192	; 0x2000
     d02:	f04f 0101 	mov.w	r1, #1
     d06:	f005 fb2f 	bl	6368 <MSS_UART_disable_irq>
	if(receivedCounter >= RECEIVEDBUFFERSIZE - 15) {
		receivedCounter = 0;
	}
	int i;
	//At this point, all raw data read into receivedRaw array
	for(i = 0; i < RECEIVEDBUFFERSIZE; ++i) {
     d0a:	68fb      	ldr	r3, [r7, #12]
     d0c:	f103 0301 	add.w	r3, r3, #1
     d10:	60fb      	str	r3, [r7, #12]
     d12:	68fa      	ldr	r2, [r7, #12]
     d14:	f240 132b 	movw	r3, #299	; 0x12b
     d18:	429a      	cmp	r2, r3
     d1a:	f77f aea1 	ble.w	a60 <uart1_rx_handler+0x6c>
				MSS_UART_disable_irq( &g_mss_uart1, ( MSS_UART_RBF_IRQ) );
			}
		}

	}
}
     d1e:	f107 0710 	add.w	r7, r7, #16
     d22:	46bd      	mov	sp, r7
     d24:	bd80      	pop	{r7, pc}
     d26:	bf00      	nop

00000d28 <motorLeft>:
double thres = .01;
double ratio;
//////////////////////////////////////////////////////////////////////////////////////////////////////////
///////////////////////////////////////// TIMER //////////////////////////////////////////////////////////

void motorLeft(int dir) {
     d28:	b580      	push	{r7, lr}
     d2a:	b082      	sub	sp, #8
     d2c:	af00      	add	r7, sp, #0
     d2e:	6078      	str	r0, [r7, #4]
	step(dir, NO);
     d30:	6878      	ldr	r0, [r7, #4]
     d32:	f04f 0100 	mov.w	r1, #0
     d36:	f005 f871 	bl	5e1c <step>
	if(dir == CW){
     d3a:	687b      	ldr	r3, [r7, #4]
     d3c:	2b02      	cmp	r3, #2
     d3e:	d117      	bne.n	d70 <motorLeft+0x48>
		RadiusLeft = RadiusLeft + 3.8*1.8/360/16;
     d40:	f643 6380 	movw	r3, #16000	; 0x3e80
     d44:	f2c2 0300 	movt	r3, #8192	; 0x2000
     d48:	e9d3 2300 	ldrd	r2, r3, [r3]
     d4c:	4610      	mov	r0, r2
     d4e:	4619      	mov	r1, r3
     d50:	a31d      	add	r3, pc, #116	; (adr r3, dc8 <motorLeft+0xa0>)
     d52:	e9d3 2300 	ldrd	r2, r3, [r3]
     d56:	f005 fe05 	bl	6964 <__adddf3>
     d5a:	4602      	mov	r2, r0
     d5c:	460b      	mov	r3, r1
     d5e:	4610      	mov	r0, r2
     d60:	4619      	mov	r1, r3
     d62:	f643 6380 	movw	r3, #16000	; 0x3e80
     d66:	f2c2 0300 	movt	r3, #8192	; 0x2000
     d6a:	e9c3 0100 	strd	r0, r1, [r3]
     d6e:	e019      	b.n	da4 <motorLeft+0x7c>
	}
	else if(dir == CCW){
     d70:	687b      	ldr	r3, [r7, #4]
     d72:	2b01      	cmp	r3, #1
     d74:	d116      	bne.n	da4 <motorLeft+0x7c>
		RadiusLeft = RadiusLeft - 3.8*1.8/360/16;
     d76:	f643 6380 	movw	r3, #16000	; 0x3e80
     d7a:	f2c2 0300 	movt	r3, #8192	; 0x2000
     d7e:	e9d3 2300 	ldrd	r2, r3, [r3]
     d82:	4610      	mov	r0, r2
     d84:	4619      	mov	r1, r3
     d86:	a310      	add	r3, pc, #64	; (adr r3, dc8 <motorLeft+0xa0>)
     d88:	e9d3 2300 	ldrd	r2, r3, [r3]
     d8c:	f005 fde8 	bl	6960 <__aeabi_dsub>
     d90:	4602      	mov	r2, r0
     d92:	460b      	mov	r3, r1
     d94:	4610      	mov	r0, r2
     d96:	4619      	mov	r1, r3
     d98:	f643 6380 	movw	r3, #16000	; 0x3e80
     d9c:	f2c2 0300 	movt	r3, #8192	; 0x2000
     da0:	e9c3 0100 	strd	r0, r1, [r3]
	}
	++counter;
     da4:	f643 4314 	movw	r3, #15380	; 0x3c14
     da8:	f2c2 0300 	movt	r3, #8192	; 0x2000
     dac:	681b      	ldr	r3, [r3, #0]
     dae:	f103 0201 	add.w	r2, r3, #1
     db2:	f643 4314 	movw	r3, #15380	; 0x3c14
     db6:	f2c2 0300 	movt	r3, #8192	; 0x2000
     dba:	601a      	str	r2, [r3, #0]
}
     dbc:	f107 0708 	add.w	r7, r7, #8
     dc0:	46bd      	mov	sp, r7
     dc2:	bd80      	pop	{r7, pc}
     dc4:	f3af 8000 	nop.w
     dc8:	6a7ef9db 	.word	0x6a7ef9db
     dcc:	3f5374bc 	.word	0x3f5374bc

00000dd0 <motorRight>:
void motorRight(int dir) {
     dd0:	b580      	push	{r7, lr}
     dd2:	b082      	sub	sp, #8
     dd4:	af00      	add	r7, sp, #0
     dd6:	6078      	str	r0, [r7, #4]
	step(NO, dir);
     dd8:	f04f 0000 	mov.w	r0, #0
     ddc:	6879      	ldr	r1, [r7, #4]
     dde:	f005 f81d 	bl	5e1c <step>
	if(dir == CCW){
     de2:	687b      	ldr	r3, [r7, #4]
     de4:	2b01      	cmp	r3, #1
     de6:	d117      	bne.n	e18 <motorRight+0x48>
		RadiusRight = RadiusRight + 3.8*1.8/360/16;
     de8:	f641 63a8 	movw	r3, #7848	; 0x1ea8
     dec:	f2c2 0300 	movt	r3, #8192	; 0x2000
     df0:	e9d3 2300 	ldrd	r2, r3, [r3]
     df4:	4610      	mov	r0, r2
     df6:	4619      	mov	r1, r3
     df8:	a31d      	add	r3, pc, #116	; (adr r3, e70 <motorRight+0xa0>)
     dfa:	e9d3 2300 	ldrd	r2, r3, [r3]
     dfe:	f005 fdb1 	bl	6964 <__adddf3>
     e02:	4602      	mov	r2, r0
     e04:	460b      	mov	r3, r1
     e06:	4610      	mov	r0, r2
     e08:	4619      	mov	r1, r3
     e0a:	f641 63a8 	movw	r3, #7848	; 0x1ea8
     e0e:	f2c2 0300 	movt	r3, #8192	; 0x2000
     e12:	e9c3 0100 	strd	r0, r1, [r3]
     e16:	e019      	b.n	e4c <motorRight+0x7c>
	}
	else if(dir == CW){
     e18:	687b      	ldr	r3, [r7, #4]
     e1a:	2b02      	cmp	r3, #2
     e1c:	d116      	bne.n	e4c <motorRight+0x7c>
		RadiusRight = RadiusRight - 3.8*1.8/360/16;
     e1e:	f641 63a8 	movw	r3, #7848	; 0x1ea8
     e22:	f2c2 0300 	movt	r3, #8192	; 0x2000
     e26:	e9d3 2300 	ldrd	r2, r3, [r3]
     e2a:	4610      	mov	r0, r2
     e2c:	4619      	mov	r1, r3
     e2e:	a310      	add	r3, pc, #64	; (adr r3, e70 <motorRight+0xa0>)
     e30:	e9d3 2300 	ldrd	r2, r3, [r3]
     e34:	f005 fd94 	bl	6960 <__aeabi_dsub>
     e38:	4602      	mov	r2, r0
     e3a:	460b      	mov	r3, r1
     e3c:	4610      	mov	r0, r2
     e3e:	4619      	mov	r1, r3
     e40:	f641 63a8 	movw	r3, #7848	; 0x1ea8
     e44:	f2c2 0300 	movt	r3, #8192	; 0x2000
     e48:	e9c3 0100 	strd	r0, r1, [r3]
	}
	++counter;
     e4c:	f643 4314 	movw	r3, #15380	; 0x3c14
     e50:	f2c2 0300 	movt	r3, #8192	; 0x2000
     e54:	681b      	ldr	r3, [r3, #0]
     e56:	f103 0201 	add.w	r2, r3, #1
     e5a:	f643 4314 	movw	r3, #15380	; 0x3c14
     e5e:	f2c2 0300 	movt	r3, #8192	; 0x2000
     e62:	601a      	str	r2, [r3, #0]
}
     e64:	f107 0708 	add.w	r7, r7, #8
     e68:	46bd      	mov	sp, r7
     e6a:	bd80      	pop	{r7, pc}
     e6c:	f3af 8000 	nop.w
     e70:	6a7ef9db 	.word	0x6a7ef9db
     e74:	3f5374bc 	.word	0x3f5374bc

00000e78 <start_hardware_timer1>:

//used to initialize hardware
void start_hardware_timer1(){
     e78:	b580      	push	{r7, lr}
     e7a:	af00      	add	r7, sp, #0
	MSS_TIM1_init(MSS_TIMER_PERIODIC_MODE);
     e7c:	f04f 0000 	mov.w	r0, #0
     e80:	f7ff fb66 	bl	550 <MSS_TIM1_init>

	MSS_TIM1_load_immediate(period1);
     e84:	f240 0318 	movw	r3, #24
     e88:	f2c2 0300 	movt	r3, #8192	; 0x2000
     e8c:	681b      	ldr	r3, [r3, #0]
     e8e:	4618      	mov	r0, r3
     e90:	f7ff fbbc 	bl	60c <MSS_TIM1_load_immediate>
	MSS_TIM1_start();
     e94:	f7ff fb9e 	bl	5d4 <MSS_TIM1_start>
	MSS_TIM1_enable_irq();
     e98:	f7ff fbc8 	bl	62c <MSS_TIM1_enable_irq>
}
     e9c:	bd80      	pop	{r7, pc}
     e9e:	bf00      	nop

00000ea0 <start_hardware_timer2>:

void start_hardware_timer2(){
     ea0:	b580      	push	{r7, lr}
     ea2:	af00      	add	r7, sp, #0
	MSS_TIM2_init(MSS_TIMER_PERIODIC_MODE);
     ea4:	f04f 0000 	mov.w	r0, #0
     ea8:	f7ff fbde 	bl	668 <MSS_TIM2_init>

	MSS_TIM2_load_immediate(period2);
     eac:	f240 031c 	movw	r3, #28
     eb0:	f2c2 0300 	movt	r3, #8192	; 0x2000
     eb4:	681b      	ldr	r3, [r3, #0]
     eb6:	4618      	mov	r0, r3
     eb8:	f7ff fc34 	bl	724 <MSS_TIM2_load_immediate>
	MSS_TIM2_start();
     ebc:	f7ff fc16 	bl	6ec <MSS_TIM2_start>
	MSS_TIM2_enable_irq();
     ec0:	f7ff fc40 	bl	744 <MSS_TIM2_enable_irq>
}
     ec4:	bd80      	pop	{r7, pc}
     ec6:	bf00      	nop

00000ec8 <Timer1_IRQHandler>:

void Timer1_IRQHandler( void ){
     ec8:	b580      	push	{r7, lr}
     eca:	af00      	add	r7, sp, #0
	motorLeft(dirLeft);
     ecc:	f240 0310 	movw	r3, #16
     ed0:	f2c2 0300 	movt	r3, #8192	; 0x2000
     ed4:	681b      	ldr	r3, [r3, #0]
     ed6:	4618      	mov	r0, r3
     ed8:	f7ff ff26 	bl	d28 <motorLeft>

	MSS_TIM1_clear_irq();
     edc:	f7ff fbb6 	bl	64c <MSS_TIM1_clear_irq>
	MSS_TIM1_load_immediate(period1);
     ee0:	f240 0318 	movw	r3, #24
     ee4:	f2c2 0300 	movt	r3, #8192	; 0x2000
     ee8:	681b      	ldr	r3, [r3, #0]
     eea:	4618      	mov	r0, r3
     eec:	f7ff fb8e 	bl	60c <MSS_TIM1_load_immediate>
	MSS_TIM1_start();
     ef0:	f7ff fb70 	bl	5d4 <MSS_TIM1_start>
	MSS_TIM1_enable_irq();
     ef4:	f7ff fb9a 	bl	62c <MSS_TIM1_enable_irq>
}
     ef8:	bd80      	pop	{r7, pc}
     efa:	bf00      	nop

00000efc <Timer2_IRQHandler>:

void Timer2_IRQHandler( void ){
     efc:	b580      	push	{r7, lr}
     efe:	af00      	add	r7, sp, #0
	motorRight(dirRight);
     f00:	f240 0314 	movw	r3, #20
     f04:	f2c2 0300 	movt	r3, #8192	; 0x2000
     f08:	681b      	ldr	r3, [r3, #0]
     f0a:	4618      	mov	r0, r3
     f0c:	f7ff ff60 	bl	dd0 <motorRight>

	MSS_TIM2_clear_irq();
     f10:	f7ff fc28 	bl	764 <MSS_TIM2_clear_irq>
	MSS_TIM2_load_immediate(period2);
     f14:	f240 031c 	movw	r3, #28
     f18:	f2c2 0300 	movt	r3, #8192	; 0x2000
     f1c:	681b      	ldr	r3, [r3, #0]
     f1e:	4618      	mov	r0, r3
     f20:	f7ff fc00 	bl	724 <MSS_TIM2_load_immediate>
	MSS_TIM2_start();
     f24:	f7ff fbe2 	bl	6ec <MSS_TIM2_start>
	MSS_TIM2_enable_irq();
     f28:	f7ff fc0c 	bl	744 <MSS_TIM2_enable_irq>
}
     f2c:	bd80      	pop	{r7, pc}
     f2e:	bf00      	nop

00000f30 <interfaceConfig>:

//////////////////////////////////////////////////////////////////////////////////////////////////////////////
///////////////////////////////////////// INTERFACE //////////////////////////////////////////////////////////

void interfaceConfig(double height, double width){
     f30:	b5b0      	push	{r4, r5, r7, lr}
     f32:	b084      	sub	sp, #16
     f34:	af00      	add	r7, sp, #0
     f36:	e9c7 0102 	strd	r0, r1, [r7, #8]
     f3a:	e9c7 2300 	strd	r2, r3, [r7]
	boardHeight = height;
     f3e:	f643 4308 	movw	r3, #15368	; 0x3c08
     f42:	f2c2 0300 	movt	r3, #8192	; 0x2000
     f46:	e9d7 0102 	ldrd	r0, r1, [r7, #8]
     f4a:	e9c3 0100 	strd	r0, r1, [r3]
	boardWidth = width;
     f4e:	f240 1350 	movw	r3, #336	; 0x150
     f52:	f2c2 0300 	movt	r3, #8192	; 0x2000
     f56:	e9d7 0100 	ldrd	r0, r1, [r7]
     f5a:	e9c3 0100 	strd	r0, r1, [r3]

	xPos = boardWidth/2;
     f5e:	f240 1350 	movw	r3, #336	; 0x150
     f62:	f2c2 0300 	movt	r3, #8192	; 0x2000
     f66:	e9d3 2300 	ldrd	r2, r3, [r3]
     f6a:	4610      	mov	r0, r2
     f6c:	4619      	mov	r1, r3
     f6e:	f04f 0200 	mov.w	r2, #0
     f72:	f04f 4380 	mov.w	r3, #1073741824	; 0x40000000
     f76:	f005 ffd1 	bl	6f1c <__aeabi_ddiv>
     f7a:	4602      	mov	r2, r0
     f7c:	460b      	mov	r3, r1
     f7e:	4610      	mov	r0, r2
     f80:	4619      	mov	r1, r3
     f82:	f643 6378 	movw	r3, #15992	; 0x3e78
     f86:	f2c2 0300 	movt	r3, #8192	; 0x2000
     f8a:	e9c3 0100 	strd	r0, r1, [r3]
	yPos = boardHeight/2;
     f8e:	f643 4308 	movw	r3, #15368	; 0x3c08
     f92:	f2c2 0300 	movt	r3, #8192	; 0x2000
     f96:	e9d3 2300 	ldrd	r2, r3, [r3]
     f9a:	4610      	mov	r0, r2
     f9c:	4619      	mov	r1, r3
     f9e:	f04f 0200 	mov.w	r2, #0
     fa2:	f04f 4380 	mov.w	r3, #1073741824	; 0x40000000
     fa6:	f005 ffb9 	bl	6f1c <__aeabi_ddiv>
     faa:	4602      	mov	r2, r0
     fac:	460b      	mov	r3, r1
     fae:	4610      	mov	r0, r2
     fb0:	4619      	mov	r1, r3
     fb2:	f641 63b0 	movw	r3, #7856	; 0x1eb0
     fb6:	f2c2 0300 	movt	r3, #8192	; 0x2000
     fba:	e9c3 0100 	strd	r0, r1, [r3]

	RadiusLeft = sqrt(pow(xPos, 2) + pow(yPos, 2));
     fbe:	f643 6378 	movw	r3, #15992	; 0x3e78
     fc2:	f2c2 0300 	movt	r3, #8192	; 0x2000
     fc6:	e9d3 2300 	ldrd	r2, r3, [r3]
     fca:	4610      	mov	r0, r2
     fcc:	4619      	mov	r1, r3
     fce:	f005 fe7b 	bl	6cc8 <__aeabi_dmul>
     fd2:	4602      	mov	r2, r0
     fd4:	460b      	mov	r3, r1
     fd6:	4614      	mov	r4, r2
     fd8:	461d      	mov	r5, r3
     fda:	f641 63b0 	movw	r3, #7856	; 0x1eb0
     fde:	f2c2 0300 	movt	r3, #8192	; 0x2000
     fe2:	e9d3 2300 	ldrd	r2, r3, [r3]
     fe6:	4610      	mov	r0, r2
     fe8:	4619      	mov	r1, r3
     fea:	f005 fe6d 	bl	6cc8 <__aeabi_dmul>
     fee:	4602      	mov	r2, r0
     ff0:	460b      	mov	r3, r1
     ff2:	4620      	mov	r0, r4
     ff4:	4629      	mov	r1, r5
     ff6:	f005 fcb5 	bl	6964 <__adddf3>
     ffa:	4602      	mov	r2, r0
     ffc:	460b      	mov	r3, r1
     ffe:	4610      	mov	r0, r2
    1000:	4619      	mov	r1, r3
    1002:	f006 f951 	bl	72a8 <sqrt>
    1006:	f643 6380 	movw	r3, #16000	; 0x3e80
    100a:	f2c2 0300 	movt	r3, #8192	; 0x2000
    100e:	e9c3 0100 	strd	r0, r1, [r3]
	RadiusRight = sqrt(pow(boardWidth - xPos, 2) + pow(yPos, 2));
    1012:	f240 1350 	movw	r3, #336	; 0x150
    1016:	f2c2 0300 	movt	r3, #8192	; 0x2000
    101a:	e9d3 0100 	ldrd	r0, r1, [r3]
    101e:	f643 6378 	movw	r3, #15992	; 0x3e78
    1022:	f2c2 0300 	movt	r3, #8192	; 0x2000
    1026:	e9d3 2300 	ldrd	r2, r3, [r3]
    102a:	f005 fc99 	bl	6960 <__aeabi_dsub>
    102e:	4602      	mov	r2, r0
    1030:	460b      	mov	r3, r1
    1032:	4610      	mov	r0, r2
    1034:	4619      	mov	r1, r3
    1036:	f005 fe47 	bl	6cc8 <__aeabi_dmul>
    103a:	4602      	mov	r2, r0
    103c:	460b      	mov	r3, r1
    103e:	4614      	mov	r4, r2
    1040:	461d      	mov	r5, r3
    1042:	f641 63b0 	movw	r3, #7856	; 0x1eb0
    1046:	f2c2 0300 	movt	r3, #8192	; 0x2000
    104a:	e9d3 2300 	ldrd	r2, r3, [r3]
    104e:	4610      	mov	r0, r2
    1050:	4619      	mov	r1, r3
    1052:	f005 fe39 	bl	6cc8 <__aeabi_dmul>
    1056:	4602      	mov	r2, r0
    1058:	460b      	mov	r3, r1
    105a:	4620      	mov	r0, r4
    105c:	4629      	mov	r1, r5
    105e:	f005 fc81 	bl	6964 <__adddf3>
    1062:	4602      	mov	r2, r0
    1064:	460b      	mov	r3, r1
    1066:	4610      	mov	r0, r2
    1068:	4619      	mov	r1, r3
    106a:	f006 f91d 	bl	72a8 <sqrt>
    106e:	f641 63a8 	movw	r3, #7848	; 0x1ea8
    1072:	f2c2 0300 	movt	r3, #8192	; 0x2000
    1076:	e9c3 0100 	strd	r0, r1, [r3]

	counter = 0;
    107a:	f643 4314 	movw	r3, #15380	; 0x3c14
    107e:	f2c2 0300 	movt	r3, #8192	; 0x2000
    1082:	f04f 0200 	mov.w	r2, #0
    1086:	601a      	str	r2, [r3, #0]
}
    1088:	f107 0710 	add.w	r7, r7, #16
    108c:	46bd      	mov	sp, r7
    108e:	bdb0      	pop	{r4, r5, r7, pc}

00001090 <periodFinder>:

void periodFinder(double ratio){
    1090:	b590      	push	{r4, r7, lr}
    1092:	b083      	sub	sp, #12
    1094:	af00      	add	r7, sp, #0
    1096:	e9c7 0100 	strd	r0, r1, [r7]
	if(ratio <= 1){
    109a:	f04f 0300 	mov.w	r3, #0
    109e:	461c      	mov	r4, r3
    10a0:	e9d7 0100 	ldrd	r0, r1, [r7]
    10a4:	f04f 0200 	mov.w	r2, #0
    10a8:	f04f 537e 	mov.w	r3, #1065353216	; 0x3f800000
    10ac:	f503 03e0 	add.w	r3, r3, #7340032	; 0x700000
    10b0:	f006 f886 	bl	71c0 <__aeabi_dcmple>
    10b4:	4603      	mov	r3, r0
    10b6:	2b00      	cmp	r3, #0
    10b8:	d002      	beq.n	10c0 <periodFinder+0x30>
    10ba:	f04f 0301 	mov.w	r3, #1
    10be:	461c      	mov	r4, r3
    10c0:	b2e3      	uxtb	r3, r4
    10c2:	2b00      	cmp	r3, #0
    10c4:	d01c      	beq.n	1100 <periodFinder+0x70>
		period1 = 100000/ratio;
    10c6:	a11e      	add	r1, pc, #120	; (adr r1, 1140 <periodFinder+0xb0>)
    10c8:	e9d1 0100 	ldrd	r0, r1, [r1]
    10cc:	e9d7 2300 	ldrd	r2, r3, [r7]
    10d0:	f005 ff24 	bl	6f1c <__aeabi_ddiv>
    10d4:	4602      	mov	r2, r0
    10d6:	460b      	mov	r3, r1
    10d8:	4610      	mov	r0, r2
    10da:	4619      	mov	r1, r3
    10dc:	f006 f88e 	bl	71fc <__aeabi_d2iz>
    10e0:	4602      	mov	r2, r0
    10e2:	f240 0318 	movw	r3, #24
    10e6:	f2c2 0300 	movt	r3, #8192	; 0x2000
    10ea:	601a      	str	r2, [r3, #0]
		period2 = 100000;
    10ec:	f240 031c 	movw	r3, #28
    10f0:	f2c2 0300 	movt	r3, #8192	; 0x2000
    10f4:	f248 62a0 	movw	r2, #34464	; 0x86a0
    10f8:	f2c0 0201 	movt	r2, #1
    10fc:	601a      	str	r2, [r3, #0]
    10fe:	e01b      	b.n	1138 <periodFinder+0xa8>
	}
	else{
		period1 = 100000;
    1100:	f240 0318 	movw	r3, #24
    1104:	f2c2 0300 	movt	r3, #8192	; 0x2000
    1108:	f248 62a0 	movw	r2, #34464	; 0x86a0
    110c:	f2c0 0201 	movt	r2, #1
    1110:	601a      	str	r2, [r3, #0]
		period2 = 100000*ratio;
    1112:	e9d7 0100 	ldrd	r0, r1, [r7]
    1116:	a30a      	add	r3, pc, #40	; (adr r3, 1140 <periodFinder+0xb0>)
    1118:	e9d3 2300 	ldrd	r2, r3, [r3]
    111c:	f005 fdd4 	bl	6cc8 <__aeabi_dmul>
    1120:	4602      	mov	r2, r0
    1122:	460b      	mov	r3, r1
    1124:	4610      	mov	r0, r2
    1126:	4619      	mov	r1, r3
    1128:	f006 f868 	bl	71fc <__aeabi_d2iz>
    112c:	4602      	mov	r2, r0
    112e:	f240 031c 	movw	r3, #28
    1132:	f2c2 0300 	movt	r3, #8192	; 0x2000
    1136:	601a      	str	r2, [r3, #0]
	}
}
    1138:	f107 070c 	add.w	r7, r7, #12
    113c:	46bd      	mov	sp, r7
    113e:	bd90      	pop	{r4, r7, pc}
    1140:	00000000 	.word	0x00000000
    1144:	40f86a00 	.word	0x40f86a00

00001148 <makeLine>:

void makeLine(double relX, double relY){
    1148:	e92d 4ff0 	stmdb	sp!, {r4, r5, r6, r7, r8, r9, sl, fp, lr}
    114c:	b0a1      	sub	sp, #132	; 0x84
    114e:	af06      	add	r7, sp, #24
    1150:	e9c7 010a 	strd	r0, r1, [r7, #40]	; 0x28
    1154:	e9c7 2308 	strd	r2, r3, [r7, #32]
	if(relX < 0.05 && relX > -0.05 && relY < 0.05 && relY > -0.05) {
    1158:	f04f 0300 	mov.w	r3, #0
    115c:	461c      	mov	r4, r3
    115e:	e9d7 010a 	ldrd	r0, r1, [r7, #40]	; 0x28
    1162:	f20f 6344 	addw	r3, pc, #1604	; 0x644
    1166:	e9d3 2300 	ldrd	r2, r3, [r3]
    116a:	f006 f81f 	bl	71ac <__aeabi_dcmplt>
    116e:	4603      	mov	r3, r0
    1170:	2b00      	cmp	r3, #0
    1172:	d002      	beq.n	117a <makeLine+0x32>
    1174:	f04f 0301 	mov.w	r3, #1
    1178:	461c      	mov	r4, r3
    117a:	b2e3      	uxtb	r3, r4
    117c:	2b00      	cmp	r3, #0
    117e:	d03c      	beq.n	11fa <makeLine+0xb2>
    1180:	f04f 0300 	mov.w	r3, #0
    1184:	461c      	mov	r4, r3
    1186:	e9d7 010a 	ldrd	r0, r1, [r7, #40]	; 0x28
    118a:	f20f 6324 	addw	r3, pc, #1572	; 0x624
    118e:	e9d3 2300 	ldrd	r2, r3, [r3]
    1192:	f006 f829 	bl	71e8 <__aeabi_dcmpgt>
    1196:	4603      	mov	r3, r0
    1198:	2b00      	cmp	r3, #0
    119a:	d002      	beq.n	11a2 <makeLine+0x5a>
    119c:	f04f 0301 	mov.w	r3, #1
    11a0:	461c      	mov	r4, r3
    11a2:	b2e3      	uxtb	r3, r4
    11a4:	2b00      	cmp	r3, #0
    11a6:	d028      	beq.n	11fa <makeLine+0xb2>
    11a8:	f04f 0300 	mov.w	r3, #0
    11ac:	461c      	mov	r4, r3
    11ae:	e9d7 0108 	ldrd	r0, r1, [r7, #32]
    11b2:	f20f 53f4 	addw	r3, pc, #1524	; 0x5f4
    11b6:	e9d3 2300 	ldrd	r2, r3, [r3]
    11ba:	f005 fff7 	bl	71ac <__aeabi_dcmplt>
    11be:	4603      	mov	r3, r0
    11c0:	2b00      	cmp	r3, #0
    11c2:	d002      	beq.n	11ca <makeLine+0x82>
    11c4:	f04f 0301 	mov.w	r3, #1
    11c8:	461c      	mov	r4, r3
    11ca:	b2e3      	uxtb	r3, r4
    11cc:	2b00      	cmp	r3, #0
    11ce:	d014      	beq.n	11fa <makeLine+0xb2>
    11d0:	f04f 0300 	mov.w	r3, #0
    11d4:	461c      	mov	r4, r3
    11d6:	e9d7 0108 	ldrd	r0, r1, [r7, #32]
    11da:	f20f 53d4 	addw	r3, pc, #1492	; 0x5d4
    11de:	e9d3 2300 	ldrd	r2, r3, [r3]
    11e2:	f006 f801 	bl	71e8 <__aeabi_dcmpgt>
    11e6:	4603      	mov	r3, r0
    11e8:	2b00      	cmp	r3, #0
    11ea:	d002      	beq.n	11f2 <makeLine+0xaa>
    11ec:	f04f 0301 	mov.w	r3, #1
    11f0:	461c      	mov	r4, r3
    11f2:	b2e3      	uxtb	r3, r4
    11f4:	2b00      	cmp	r3, #0
    11f6:	f040 82cf 	bne.w	1798 <makeLine+0x650>
		return;
	}
	MSS_TIM2_start();
    11fa:	f7ff fa77 	bl	6ec <MSS_TIM2_start>
	MSS_TIM1_start();
    11fe:	f7ff f9e9 	bl	5d4 <MSS_TIM1_start>
	double endX = relX + xPos;
    1202:	f643 6378 	movw	r3, #15992	; 0x3e78
    1206:	f2c2 0300 	movt	r3, #8192	; 0x2000
    120a:	e9d3 2300 	ldrd	r2, r3, [r3]
    120e:	e9d7 010a 	ldrd	r0, r1, [r7, #40]	; 0x28
    1212:	f005 fba7 	bl	6964 <__adddf3>
    1216:	4602      	mov	r2, r0
    1218:	460b      	mov	r3, r1
    121a:	e9c7 230c 	strd	r2, r3, [r7, #48]	; 0x30
	double endY = relY + yPos;
    121e:	f641 63b0 	movw	r3, #7856	; 0x1eb0
    1222:	f2c2 0300 	movt	r3, #8192	; 0x2000
    1226:	e9d3 2300 	ldrd	r2, r3, [r3]
    122a:	e9d7 0108 	ldrd	r0, r1, [r7, #32]
    122e:	f005 fb99 	bl	6964 <__adddf3>
    1232:	4602      	mov	r2, r0
    1234:	460b      	mov	r3, r1
    1236:	e9c7 230e 	strd	r2, r3, [r7, #56]	; 0x38
	int dirL = calculateMotorDir(xPos, yPos, endX, endY, 0);
    123a:	f643 6378 	movw	r3, #15992	; 0x3e78
    123e:	f2c2 0300 	movt	r3, #8192	; 0x2000
    1242:	e9d3 0100 	ldrd	r0, r1, [r3]
    1246:	f641 63b0 	movw	r3, #7856	; 0x1eb0
    124a:	f2c2 0300 	movt	r3, #8192	; 0x2000
    124e:	e9d3 4500 	ldrd	r4, r5, [r3]
    1252:	e9d7 230c 	ldrd	r2, r3, [r7, #48]	; 0x30
    1256:	e9cd 2300 	strd	r2, r3, [sp]
    125a:	e9d7 230e 	ldrd	r2, r3, [r7, #56]	; 0x38
    125e:	e9cd 2302 	strd	r2, r3, [sp, #8]
    1262:	f04f 0300 	mov.w	r3, #0
    1266:	9304      	str	r3, [sp, #16]
    1268:	4622      	mov	r2, r4
    126a:	462b      	mov	r3, r5
    126c:	f7ff fabc 	bl	7e8 <calculateMotorDir>
    1270:	4603      	mov	r3, r0
    1272:	643b      	str	r3, [r7, #64]	; 0x40
	int dirR = calculateMotorDir(xPos, yPos, endX, endY, 1);
    1274:	f643 6378 	movw	r3, #15992	; 0x3e78
    1278:	f2c2 0300 	movt	r3, #8192	; 0x2000
    127c:	e9d3 0100 	ldrd	r0, r1, [r3]
    1280:	f641 63b0 	movw	r3, #7856	; 0x1eb0
    1284:	f2c2 0300 	movt	r3, #8192	; 0x2000
    1288:	e9d3 4500 	ldrd	r4, r5, [r3]
    128c:	e9d7 230c 	ldrd	r2, r3, [r7, #48]	; 0x30
    1290:	e9cd 2300 	strd	r2, r3, [sp]
    1294:	e9d7 230e 	ldrd	r2, r3, [r7, #56]	; 0x38
    1298:	e9cd 2302 	strd	r2, r3, [sp, #8]
    129c:	f04f 0301 	mov.w	r3, #1
    12a0:	9304      	str	r3, [sp, #16]
    12a2:	4622      	mov	r2, r4
    12a4:	462b      	mov	r3, r5
    12a6:	f7ff fa9f 	bl	7e8 <calculateMotorDir>
    12aa:	4603      	mov	r3, r0
    12ac:	647b      	str	r3, [r7, #68]	; 0x44
	while(1){
		dirLeft = dirL;
    12ae:	f240 0310 	movw	r3, #16
    12b2:	f2c2 0300 	movt	r3, #8192	; 0x2000
    12b6:	6c3a      	ldr	r2, [r7, #64]	; 0x40
    12b8:	601a      	str	r2, [r3, #0]
		dirRight = dirR;
    12ba:	f240 0314 	movw	r3, #20
    12be:	f2c2 0300 	movt	r3, #8192	; 0x2000
    12c2:	6c7a      	ldr	r2, [r7, #68]	; 0x44
    12c4:	601a      	str	r2, [r3, #0]
		double newRL = sqrt(pow(endX, 2) + pow(endY, 2));
    12c6:	e9d7 230c 	ldrd	r2, r3, [r7, #48]	; 0x30
    12ca:	4610      	mov	r0, r2
    12cc:	4619      	mov	r1, r3
    12ce:	f005 fcfb 	bl	6cc8 <__aeabi_dmul>
    12d2:	4602      	mov	r2, r0
    12d4:	460b      	mov	r3, r1
    12d6:	4614      	mov	r4, r2
    12d8:	461d      	mov	r5, r3
    12da:	e9d7 230e 	ldrd	r2, r3, [r7, #56]	; 0x38
    12de:	4610      	mov	r0, r2
    12e0:	4619      	mov	r1, r3
    12e2:	f005 fcf1 	bl	6cc8 <__aeabi_dmul>
    12e6:	4602      	mov	r2, r0
    12e8:	460b      	mov	r3, r1
    12ea:	4620      	mov	r0, r4
    12ec:	4629      	mov	r1, r5
    12ee:	f005 fb39 	bl	6964 <__adddf3>
    12f2:	4602      	mov	r2, r0
    12f4:	460b      	mov	r3, r1
    12f6:	4610      	mov	r0, r2
    12f8:	4619      	mov	r1, r3
    12fa:	f005 ffd5 	bl	72a8 <sqrt>
    12fe:	4602      	mov	r2, r0
    1300:	460b      	mov	r3, r1
    1302:	e9c7 2312 	strd	r2, r3, [r7, #72]	; 0x48
		double newRR = sqrt(pow(boardWidth - endX, 2) + pow(endY, 2));
    1306:	f240 1350 	movw	r3, #336	; 0x150
    130a:	f2c2 0300 	movt	r3, #8192	; 0x2000
    130e:	e9d3 2300 	ldrd	r2, r3, [r3]
    1312:	4610      	mov	r0, r2
    1314:	4619      	mov	r1, r3
    1316:	e9d7 230c 	ldrd	r2, r3, [r7, #48]	; 0x30
    131a:	f005 fb21 	bl	6960 <__aeabi_dsub>
    131e:	4602      	mov	r2, r0
    1320:	460b      	mov	r3, r1
    1322:	4610      	mov	r0, r2
    1324:	4619      	mov	r1, r3
    1326:	f005 fccf 	bl	6cc8 <__aeabi_dmul>
    132a:	4602      	mov	r2, r0
    132c:	460b      	mov	r3, r1
    132e:	4614      	mov	r4, r2
    1330:	461d      	mov	r5, r3
    1332:	e9d7 230e 	ldrd	r2, r3, [r7, #56]	; 0x38
    1336:	4610      	mov	r0, r2
    1338:	4619      	mov	r1, r3
    133a:	f005 fcc5 	bl	6cc8 <__aeabi_dmul>
    133e:	4602      	mov	r2, r0
    1340:	460b      	mov	r3, r1
    1342:	4620      	mov	r0, r4
    1344:	4629      	mov	r1, r5
    1346:	f005 fb0d 	bl	6964 <__adddf3>
    134a:	4602      	mov	r2, r0
    134c:	460b      	mov	r3, r1
    134e:	4610      	mov	r0, r2
    1350:	4619      	mov	r1, r3
    1352:	f005 ffa9 	bl	72a8 <sqrt>
    1356:	4602      	mov	r2, r0
    1358:	460b      	mov	r3, r1
    135a:	e9c7 2314 	strd	r2, r3, [r7, #80]	; 0x50
		double rateChangeL = RadiusLeft - newRL;
    135e:	f643 6380 	movw	r3, #16000	; 0x3e80
    1362:	f2c2 0300 	movt	r3, #8192	; 0x2000
    1366:	e9d3 2300 	ldrd	r2, r3, [r3]
    136a:	4610      	mov	r0, r2
    136c:	4619      	mov	r1, r3
    136e:	e9d7 2312 	ldrd	r2, r3, [r7, #72]	; 0x48
    1372:	f005 faf5 	bl	6960 <__aeabi_dsub>
    1376:	4602      	mov	r2, r0
    1378:	460b      	mov	r3, r1
    137a:	e9c7 2316 	strd	r2, r3, [r7, #88]	; 0x58
		double rateChangeR = RadiusRight - newRR;
    137e:	f641 63a8 	movw	r3, #7848	; 0x1ea8
    1382:	f2c2 0300 	movt	r3, #8192	; 0x2000
    1386:	e9d3 2300 	ldrd	r2, r3, [r3]
    138a:	4610      	mov	r0, r2
    138c:	4619      	mov	r1, r3
    138e:	e9d7 2314 	ldrd	r2, r3, [r7, #80]	; 0x50
    1392:	f005 fae5 	bl	6960 <__aeabi_dsub>
    1396:	4602      	mov	r2, r0
    1398:	460b      	mov	r3, r1
    139a:	e9c7 2318 	strd	r2, r3, [r7, #96]	; 0x60
		if(rateChangeL < 0) rateChangeL = rateChangeL * -1;
    139e:	f04f 0300 	mov.w	r3, #0
    13a2:	461c      	mov	r4, r3
    13a4:	e9d7 0116 	ldrd	r0, r1, [r7, #88]	; 0x58
    13a8:	f04f 0200 	mov.w	r2, #0
    13ac:	f04f 0300 	mov.w	r3, #0
    13b0:	f005 fefc 	bl	71ac <__aeabi_dcmplt>
    13b4:	4603      	mov	r3, r0
    13b6:	2b00      	cmp	r3, #0
    13b8:	d002      	beq.n	13c0 <makeLine+0x278>
    13ba:	f04f 0301 	mov.w	r3, #1
    13be:	461c      	mov	r4, r3
    13c0:	b2e3      	uxtb	r3, r4
    13c2:	2b00      	cmp	r3, #0
    13c4:	d005      	beq.n	13d2 <makeLine+0x28a>
    13c6:	6dbb      	ldr	r3, [r7, #88]	; 0x58
    13c8:	65bb      	str	r3, [r7, #88]	; 0x58
    13ca:	6dfb      	ldr	r3, [r7, #92]	; 0x5c
    13cc:	f083 4300 	eor.w	r3, r3, #2147483648	; 0x80000000
    13d0:	65fb      	str	r3, [r7, #92]	; 0x5c
		if(rateChangeR < 0) rateChangeR = rateChangeR * -1;
    13d2:	f04f 0300 	mov.w	r3, #0
    13d6:	461c      	mov	r4, r3
    13d8:	e9d7 0118 	ldrd	r0, r1, [r7, #96]	; 0x60
    13dc:	f04f 0200 	mov.w	r2, #0
    13e0:	f04f 0300 	mov.w	r3, #0
    13e4:	f005 fee2 	bl	71ac <__aeabi_dcmplt>
    13e8:	4603      	mov	r3, r0
    13ea:	2b00      	cmp	r3, #0
    13ec:	d002      	beq.n	13f4 <makeLine+0x2ac>
    13ee:	f04f 0301 	mov.w	r3, #1
    13f2:	461c      	mov	r4, r3
    13f4:	b2e3      	uxtb	r3, r4
    13f6:	2b00      	cmp	r3, #0
    13f8:	d005      	beq.n	1406 <makeLine+0x2be>
    13fa:	6e3b      	ldr	r3, [r7, #96]	; 0x60
    13fc:	663b      	str	r3, [r7, #96]	; 0x60
    13fe:	6e7b      	ldr	r3, [r7, #100]	; 0x64
    1400:	f083 4300 	eor.w	r3, r3, #2147483648	; 0x80000000
    1404:	667b      	str	r3, [r7, #100]	; 0x64
		ratio = rateChangeL/rateChangeR;
    1406:	e9d7 0116 	ldrd	r0, r1, [r7, #88]	; 0x58
    140a:	e9d7 2318 	ldrd	r2, r3, [r7, #96]	; 0x60
    140e:	f005 fd85 	bl	6f1c <__aeabi_ddiv>
    1412:	4602      	mov	r2, r0
    1414:	460b      	mov	r3, r1
    1416:	4610      	mov	r0, r2
    1418:	4619      	mov	r1, r3
    141a:	f643 4318 	movw	r3, #15384	; 0x3c18
    141e:	f2c2 0300 	movt	r3, #8192	; 0x2000
    1422:	e9c3 0100 	strd	r0, r1, [r3]

		if(fabs(newRL - RadiusLeft) <= thres && fabs(newRR - RadiusRight) > thres){
    1426:	f643 6380 	movw	r3, #16000	; 0x3e80
    142a:	f2c2 0300 	movt	r3, #8192	; 0x2000
    142e:	e9d3 2300 	ldrd	r2, r3, [r3]
    1432:	e9d7 0112 	ldrd	r0, r1, [r7, #72]	; 0x48
    1436:	f005 fa93 	bl	6960 <__aeabi_dsub>
    143a:	4602      	mov	r2, r0
    143c:	460b      	mov	r3, r1
    143e:	4611      	mov	r1, r2
    1440:	6039      	str	r1, [r7, #0]
    1442:	f023 4100 	bic.w	r1, r3, #2147483648	; 0x80000000
    1446:	6079      	str	r1, [r7, #4]
    1448:	f240 0320 	movw	r3, #32
    144c:	f2c2 0300 	movt	r3, #8192	; 0x2000
    1450:	e9d3 4500 	ldrd	r4, r5, [r3]
    1454:	f04f 0300 	mov.w	r3, #0
    1458:	461e      	mov	r6, r3
    145a:	e9d7 0100 	ldrd	r0, r1, [r7]
    145e:	4622      	mov	r2, r4
    1460:	462b      	mov	r3, r5
    1462:	f005 fead 	bl	71c0 <__aeabi_dcmple>
    1466:	4603      	mov	r3, r0
    1468:	2b00      	cmp	r3, #0
    146a:	d002      	beq.n	1472 <makeLine+0x32a>
    146c:	f04f 0301 	mov.w	r3, #1
    1470:	461e      	mov	r6, r3
    1472:	b2f3      	uxtb	r3, r6
    1474:	2b00      	cmp	r3, #0
    1476:	d03c      	beq.n	14f2 <makeLine+0x3aa>
    1478:	f641 63a8 	movw	r3, #7848	; 0x1ea8
    147c:	f2c2 0300 	movt	r3, #8192	; 0x2000
    1480:	e9d3 2300 	ldrd	r2, r3, [r3]
    1484:	e9d7 0114 	ldrd	r0, r1, [r7, #80]	; 0x50
    1488:	f005 fa6a 	bl	6960 <__aeabi_dsub>
    148c:	4602      	mov	r2, r0
    148e:	460b      	mov	r3, r1
    1490:	4611      	mov	r1, r2
    1492:	60b9      	str	r1, [r7, #8]
    1494:	f023 4100 	bic.w	r1, r3, #2147483648	; 0x80000000
    1498:	60f9      	str	r1, [r7, #12]
    149a:	f240 0320 	movw	r3, #32
    149e:	f2c2 0300 	movt	r3, #8192	; 0x2000
    14a2:	e9d3 4500 	ldrd	r4, r5, [r3]
    14a6:	f04f 0300 	mov.w	r3, #0
    14aa:	461e      	mov	r6, r3
    14ac:	e9d7 0102 	ldrd	r0, r1, [r7, #8]
    14b0:	4622      	mov	r2, r4
    14b2:	462b      	mov	r3, r5
    14b4:	f005 fe98 	bl	71e8 <__aeabi_dcmpgt>
    14b8:	4603      	mov	r3, r0
    14ba:	2b00      	cmp	r3, #0
    14bc:	d002      	beq.n	14c4 <makeLine+0x37c>
    14be:	f04f 0301 	mov.w	r3, #1
    14c2:	461e      	mov	r6, r3
    14c4:	b2f3      	uxtb	r3, r6
    14c6:	2b00      	cmp	r3, #0
    14c8:	d013      	beq.n	14f2 <makeLine+0x3aa>
			dirLeft = NO;
    14ca:	f240 0310 	movw	r3, #16
    14ce:	f2c2 0300 	movt	r3, #8192	; 0x2000
    14d2:	f04f 0200 	mov.w	r2, #0
    14d6:	601a      	str	r2, [r3, #0]
			ratio = 1;
    14d8:	f643 4318 	movw	r3, #15384	; 0x3c18
    14dc:	f2c2 0300 	movt	r3, #8192	; 0x2000
    14e0:	f04f 0000 	mov.w	r0, #0
    14e4:	f04f 517e 	mov.w	r1, #1065353216	; 0x3f800000
    14e8:	f501 01e0 	add.w	r1, r1, #7340032	; 0x700000
    14ec:	e9c3 0100 	strd	r0, r1, [r3]
		double rateChangeR = RadiusRight - newRR;
		if(rateChangeL < 0) rateChangeL = rateChangeL * -1;
		if(rateChangeR < 0) rateChangeR = rateChangeR * -1;
		ratio = rateChangeL/rateChangeR;

		if(fabs(newRL - RadiusLeft) <= thres && fabs(newRR - RadiusRight) > thres){
    14f0:	e133      	b.n	175a <makeLine+0x612>
			dirLeft = NO;
			ratio = 1;
		}
		else if(fabs(newRL - RadiusLeft) > thres && fabs(newRR - RadiusRight) <= thres){
    14f2:	f643 6380 	movw	r3, #16000	; 0x3e80
    14f6:	f2c2 0300 	movt	r3, #8192	; 0x2000
    14fa:	e9d3 2300 	ldrd	r2, r3, [r3]
    14fe:	e9d7 0112 	ldrd	r0, r1, [r7, #72]	; 0x48
    1502:	f005 fa2d 	bl	6960 <__aeabi_dsub>
    1506:	4602      	mov	r2, r0
    1508:	460b      	mov	r3, r1
    150a:	4611      	mov	r1, r2
    150c:	6139      	str	r1, [r7, #16]
    150e:	f023 4100 	bic.w	r1, r3, #2147483648	; 0x80000000
    1512:	6179      	str	r1, [r7, #20]
    1514:	f240 0320 	movw	r3, #32
    1518:	f2c2 0300 	movt	r3, #8192	; 0x2000
    151c:	e9d3 4500 	ldrd	r4, r5, [r3]
    1520:	f04f 0300 	mov.w	r3, #0
    1524:	461e      	mov	r6, r3
    1526:	e9d7 0104 	ldrd	r0, r1, [r7, #16]
    152a:	4622      	mov	r2, r4
    152c:	462b      	mov	r3, r5
    152e:	f005 fe5b 	bl	71e8 <__aeabi_dcmpgt>
    1532:	4603      	mov	r3, r0
    1534:	2b00      	cmp	r3, #0
    1536:	d002      	beq.n	153e <makeLine+0x3f6>
    1538:	f04f 0301 	mov.w	r3, #1
    153c:	461e      	mov	r6, r3
    153e:	b2f3      	uxtb	r3, r6
    1540:	2b00      	cmp	r3, #0
    1542:	d03c      	beq.n	15be <makeLine+0x476>
    1544:	f641 63a8 	movw	r3, #7848	; 0x1ea8
    1548:	f2c2 0300 	movt	r3, #8192	; 0x2000
    154c:	e9d3 2300 	ldrd	r2, r3, [r3]
    1550:	e9d7 0114 	ldrd	r0, r1, [r7, #80]	; 0x50
    1554:	f005 fa04 	bl	6960 <__aeabi_dsub>
    1558:	4602      	mov	r2, r0
    155a:	460b      	mov	r3, r1
    155c:	4611      	mov	r1, r2
    155e:	61b9      	str	r1, [r7, #24]
    1560:	f023 4100 	bic.w	r1, r3, #2147483648	; 0x80000000
    1564:	61f9      	str	r1, [r7, #28]
    1566:	f240 0320 	movw	r3, #32
    156a:	f2c2 0300 	movt	r3, #8192	; 0x2000
    156e:	e9d3 4500 	ldrd	r4, r5, [r3]
    1572:	f04f 0300 	mov.w	r3, #0
    1576:	461e      	mov	r6, r3
    1578:	e9d7 0106 	ldrd	r0, r1, [r7, #24]
    157c:	4622      	mov	r2, r4
    157e:	462b      	mov	r3, r5
    1580:	f005 fe1e 	bl	71c0 <__aeabi_dcmple>
    1584:	4603      	mov	r3, r0
    1586:	2b00      	cmp	r3, #0
    1588:	d002      	beq.n	1590 <makeLine+0x448>
    158a:	f04f 0301 	mov.w	r3, #1
    158e:	461e      	mov	r6, r3
    1590:	b2f3      	uxtb	r3, r6
    1592:	2b00      	cmp	r3, #0
    1594:	d013      	beq.n	15be <makeLine+0x476>
			dirRight = NO;
    1596:	f240 0314 	movw	r3, #20
    159a:	f2c2 0300 	movt	r3, #8192	; 0x2000
    159e:	f04f 0200 	mov.w	r2, #0
    15a2:	601a      	str	r2, [r3, #0]
			ratio = 1;
    15a4:	f643 4318 	movw	r3, #15384	; 0x3c18
    15a8:	f2c2 0300 	movt	r3, #8192	; 0x2000
    15ac:	f04f 0000 	mov.w	r0, #0
    15b0:	f04f 517e 	mov.w	r1, #1065353216	; 0x3f800000
    15b4:	f501 01e0 	add.w	r1, r1, #7340032	; 0x700000
    15b8:	e9c3 0100 	strd	r0, r1, [r3]

		if(fabs(newRL - RadiusLeft) <= thres && fabs(newRR - RadiusRight) > thres){
			dirLeft = NO;
			ratio = 1;
		}
		else if(fabs(newRL - RadiusLeft) > thres && fabs(newRR - RadiusRight) <= thres){
    15bc:	e0cd      	b.n	175a <makeLine+0x612>
			dirRight = NO;
			ratio = 1;
		}
		else if(fabs(newRL - RadiusLeft) <= thres && fabs(newRR - RadiusRight) <= thres) {
    15be:	f643 6380 	movw	r3, #16000	; 0x3e80
    15c2:	f2c2 0300 	movt	r3, #8192	; 0x2000
    15c6:	e9d3 2300 	ldrd	r2, r3, [r3]
    15ca:	e9d7 0112 	ldrd	r0, r1, [r7, #72]	; 0x48
    15ce:	f005 f9c7 	bl	6960 <__aeabi_dsub>
    15d2:	4602      	mov	r2, r0
    15d4:	460b      	mov	r3, r1
    15d6:	4692      	mov	sl, r2
    15d8:	f023 4b00 	bic.w	fp, r3, #2147483648	; 0x80000000
    15dc:	f240 0320 	movw	r3, #32
    15e0:	f2c2 0300 	movt	r3, #8192	; 0x2000
    15e4:	e9d3 4500 	ldrd	r4, r5, [r3]
    15e8:	f04f 0300 	mov.w	r3, #0
    15ec:	461e      	mov	r6, r3
    15ee:	4650      	mov	r0, sl
    15f0:	4659      	mov	r1, fp
    15f2:	4622      	mov	r2, r4
    15f4:	462b      	mov	r3, r5
    15f6:	f005 fde3 	bl	71c0 <__aeabi_dcmple>
    15fa:	4603      	mov	r3, r0
    15fc:	2b00      	cmp	r3, #0
    15fe:	d002      	beq.n	1606 <makeLine+0x4be>
    1600:	f04f 0301 	mov.w	r3, #1
    1604:	461e      	mov	r6, r3
    1606:	b2f3      	uxtb	r3, r6
    1608:	2b00      	cmp	r3, #0
    160a:	f000 80a6 	beq.w	175a <makeLine+0x612>
    160e:	f641 63a8 	movw	r3, #7848	; 0x1ea8
    1612:	f2c2 0300 	movt	r3, #8192	; 0x2000
    1616:	e9d3 2300 	ldrd	r2, r3, [r3]
    161a:	e9d7 0114 	ldrd	r0, r1, [r7, #80]	; 0x50
    161e:	f005 f99f 	bl	6960 <__aeabi_dsub>
    1622:	4602      	mov	r2, r0
    1624:	460b      	mov	r3, r1
    1626:	4690      	mov	r8, r2
    1628:	f023 4900 	bic.w	r9, r3, #2147483648	; 0x80000000
    162c:	f240 0320 	movw	r3, #32
    1630:	f2c2 0300 	movt	r3, #8192	; 0x2000
    1634:	e9d3 4500 	ldrd	r4, r5, [r3]
    1638:	f04f 0300 	mov.w	r3, #0
    163c:	461e      	mov	r6, r3
    163e:	4640      	mov	r0, r8
    1640:	4649      	mov	r1, r9
    1642:	4622      	mov	r2, r4
    1644:	462b      	mov	r3, r5
    1646:	f005 fdbb 	bl	71c0 <__aeabi_dcmple>
    164a:	4603      	mov	r3, r0
    164c:	2b00      	cmp	r3, #0
    164e:	d002      	beq.n	1656 <makeLine+0x50e>
    1650:	f04f 0301 	mov.w	r3, #1
    1654:	461e      	mov	r6, r3
    1656:	b2f3      	uxtb	r3, r6
    1658:	2b00      	cmp	r3, #0
    165a:	d07e      	beq.n	175a <makeLine+0x612>
				counter = 0;
				break;
			}
		}
	}
	xPos = (pow(RadiusLeft, 2) - pow(RadiusRight, 2) + pow(boardWidth, 2))/(2*boardWidth);
    165c:	f643 6380 	movw	r3, #16000	; 0x3e80
    1660:	f2c2 0300 	movt	r3, #8192	; 0x2000
    1664:	e9d3 2300 	ldrd	r2, r3, [r3]
    1668:	4610      	mov	r0, r2
    166a:	4619      	mov	r1, r3
    166c:	f005 fb2c 	bl	6cc8 <__aeabi_dmul>
    1670:	4602      	mov	r2, r0
    1672:	460b      	mov	r3, r1
    1674:	4614      	mov	r4, r2
    1676:	461d      	mov	r5, r3
    1678:	f641 63a8 	movw	r3, #7848	; 0x1ea8
    167c:	f2c2 0300 	movt	r3, #8192	; 0x2000
    1680:	e9d3 2300 	ldrd	r2, r3, [r3]
    1684:	4610      	mov	r0, r2
    1686:	4619      	mov	r1, r3
    1688:	f005 fb1e 	bl	6cc8 <__aeabi_dmul>
    168c:	4602      	mov	r2, r0
    168e:	460b      	mov	r3, r1
    1690:	4620      	mov	r0, r4
    1692:	4629      	mov	r1, r5
    1694:	f005 f964 	bl	6960 <__aeabi_dsub>
    1698:	4602      	mov	r2, r0
    169a:	460b      	mov	r3, r1
    169c:	4614      	mov	r4, r2
    169e:	461d      	mov	r5, r3
    16a0:	f240 1350 	movw	r3, #336	; 0x150
    16a4:	f2c2 0300 	movt	r3, #8192	; 0x2000
    16a8:	e9d3 2300 	ldrd	r2, r3, [r3]
    16ac:	4610      	mov	r0, r2
    16ae:	4619      	mov	r1, r3
    16b0:	f005 fb0a 	bl	6cc8 <__aeabi_dmul>
    16b4:	4602      	mov	r2, r0
    16b6:	460b      	mov	r3, r1
    16b8:	4620      	mov	r0, r4
    16ba:	4629      	mov	r1, r5
    16bc:	f005 f952 	bl	6964 <__adddf3>
    16c0:	4602      	mov	r2, r0
    16c2:	460b      	mov	r3, r1
    16c4:	4614      	mov	r4, r2
    16c6:	461d      	mov	r5, r3
    16c8:	f240 1350 	movw	r3, #336	; 0x150
    16cc:	f2c2 0300 	movt	r3, #8192	; 0x2000
    16d0:	e9d3 2300 	ldrd	r2, r3, [r3]
    16d4:	4610      	mov	r0, r2
    16d6:	4619      	mov	r1, r3
    16d8:	f005 f944 	bl	6964 <__adddf3>
    16dc:	4602      	mov	r2, r0
    16de:	460b      	mov	r3, r1
    16e0:	4620      	mov	r0, r4
    16e2:	4629      	mov	r1, r5
    16e4:	f005 fc1a 	bl	6f1c <__aeabi_ddiv>
    16e8:	4602      	mov	r2, r0
    16ea:	460b      	mov	r3, r1
    16ec:	4610      	mov	r0, r2
    16ee:	4619      	mov	r1, r3
    16f0:	f643 6378 	movw	r3, #15992	; 0x3e78
    16f4:	f2c2 0300 	movt	r3, #8192	; 0x2000
    16f8:	e9c3 0100 	strd	r0, r1, [r3]
	yPos = sqrt(pow(RadiusLeft, 2) - pow(xPos, 2));
    16fc:	f643 6380 	movw	r3, #16000	; 0x3e80
    1700:	f2c2 0300 	movt	r3, #8192	; 0x2000
    1704:	e9d3 2300 	ldrd	r2, r3, [r3]
    1708:	4610      	mov	r0, r2
    170a:	4619      	mov	r1, r3
    170c:	f005 fadc 	bl	6cc8 <__aeabi_dmul>
    1710:	4602      	mov	r2, r0
    1712:	460b      	mov	r3, r1
    1714:	4614      	mov	r4, r2
    1716:	461d      	mov	r5, r3
    1718:	f643 6378 	movw	r3, #15992	; 0x3e78
    171c:	f2c2 0300 	movt	r3, #8192	; 0x2000
    1720:	e9d3 2300 	ldrd	r2, r3, [r3]
    1724:	4610      	mov	r0, r2
    1726:	4619      	mov	r1, r3
    1728:	f005 face 	bl	6cc8 <__aeabi_dmul>
    172c:	4602      	mov	r2, r0
    172e:	460b      	mov	r3, r1
    1730:	4620      	mov	r0, r4
    1732:	4629      	mov	r1, r5
    1734:	f005 f914 	bl	6960 <__aeabi_dsub>
    1738:	4602      	mov	r2, r0
    173a:	460b      	mov	r3, r1
    173c:	4610      	mov	r0, r2
    173e:	4619      	mov	r1, r3
    1740:	f005 fdb2 	bl	72a8 <sqrt>
    1744:	f641 63b0 	movw	r3, #7856	; 0x1eb0
    1748:	f2c2 0300 	movt	r3, #8192	; 0x2000
    174c:	e9c3 0100 	strd	r0, r1, [r3]
	MSS_TIM1_stop();
    1750:	f7fe ff4e 	bl	5f0 <MSS_TIM1_stop>
	MSS_TIM2_stop();
    1754:	f7fe ffd8 	bl	708 <MSS_TIM2_stop>
    1758:	e01f      	b.n	179a <makeLine+0x652>
		}
		else if(fabs(newRL - RadiusLeft) <= thres && fabs(newRR - RadiusRight) <= thres) {
			break;
		}

		periodFinder(ratio);
    175a:	f643 4318 	movw	r3, #15384	; 0x3c18
    175e:	f2c2 0300 	movt	r3, #8192	; 0x2000
    1762:	e9d3 2300 	ldrd	r2, r3, [r3]
    1766:	4610      	mov	r0, r2
    1768:	4619      	mov	r1, r3
    176a:	f7ff fc91 	bl	1090 <periodFinder>
		start_hardware_timer1();
    176e:	f7ff fb83 	bl	e78 <start_hardware_timer1>
		start_hardware_timer2();
    1772:	f7ff fb95 	bl	ea0 <start_hardware_timer2>
    1776:	e000      	b.n	177a <makeLine+0x632>
		while(1){
			if(counter >= 10){
				counter = 0;
				break;
			}
		}
    1778:	bf00      	nop

		periodFinder(ratio);
		start_hardware_timer1();
		start_hardware_timer2();
		while(1){
			if(counter >= 10){
    177a:	f643 4314 	movw	r3, #15380	; 0x3c14
    177e:	f2c2 0300 	movt	r3, #8192	; 0x2000
    1782:	681b      	ldr	r3, [r3, #0]
    1784:	2b09      	cmp	r3, #9
    1786:	ddf7      	ble.n	1778 <makeLine+0x630>
				counter = 0;
    1788:	f643 4314 	movw	r3, #15380	; 0x3c14
    178c:	f2c2 0300 	movt	r3, #8192	; 0x2000
    1790:	f04f 0200 	mov.w	r2, #0
    1794:	601a      	str	r2, [r3, #0]
				break;
			}
		}
	}
    1796:	e58a      	b.n	12ae <makeLine+0x166>
	}
}

void makeLine(double relX, double relY){
	if(relX < 0.05 && relX > -0.05 && relY < 0.05 && relY > -0.05) {
		return;
    1798:	bf00      	nop
	}
	xPos = (pow(RadiusLeft, 2) - pow(RadiusRight, 2) + pow(boardWidth, 2))/(2*boardWidth);
	yPos = sqrt(pow(RadiusLeft, 2) - pow(xPos, 2));
	MSS_TIM1_stop();
	MSS_TIM2_stop();
}
    179a:	f107 076c 	add.w	r7, r7, #108	; 0x6c
    179e:	46bd      	mov	sp, r7
    17a0:	e8bd 8ff0 	ldmia.w	sp!, {r4, r5, r6, r7, r8, r9, sl, fp, pc}
    17a4:	f3af 8000 	nop.w
    17a8:	9999999a 	.word	0x9999999a
    17ac:	3fa99999 	.word	0x3fa99999
    17b0:	9999999a 	.word	0x9999999a
    17b4:	bfa99999 	.word	0xbfa99999

000017b8 <drawCharacter>:
	makeLine(disX, disY);
}
//////////////////////////////////////////////////////////////////////////////////////////////////////////////
///////////////////////////////////////// HARDCODING /////////////////////////////////////////////////////////

void drawCharacter(uint8_t character) {
    17b8:	b580      	push	{r7, lr}
    17ba:	b082      	sub	sp, #8
    17bc:	af00      	add	r7, sp, #0
    17be:	4603      	mov	r3, r0
    17c0:	71fb      	strb	r3, [r7, #7]
	if(character == '0') {
    17c2:	79fb      	ldrb	r3, [r7, #7]
    17c4:	2b30      	cmp	r3, #48	; 0x30
    17c6:	f040 8098 	bne.w	18fa <drawCharacter+0x142>
		makeLine(2.0, -1);	//Start at bottom of 0
    17ca:	f04f 0000 	mov.w	r0, #0
    17ce:	f04f 4180 	mov.w	r1, #1073741824	; 0x40000000
    17d2:	f04f 0200 	mov.w	r2, #0
    17d6:	f04f 433f 	mov.w	r3, #3204448256	; 0xbf000000
    17da:	f503 0370 	add.w	r3, r3, #15728640	; 0xf00000
    17de:	f7ff fcb3 	bl	1148 <makeLine>
		sendMessage(servoExtend, 1, 0x373A);
    17e2:	f240 000c 	movw	r0, #12
    17e6:	f2c2 0000 	movt	r0, #8192	; 0x2000
    17ea:	f04f 0101 	mov.w	r1, #1
    17ee:	f243 723a 	movw	r2, #14138	; 0x373a
    17f2:	f7ff f885 	bl	900 <sendMessage>
		makeLine(-1.0, -2.5);
    17f6:	f04f 0000 	mov.w	r0, #0
    17fa:	f04f 413f 	mov.w	r1, #3204448256	; 0xbf000000
    17fe:	f501 0170 	add.w	r1, r1, #15728640	; 0xf00000
    1802:	f04f 0200 	mov.w	r2, #0
    1806:	f04f 4340 	mov.w	r3, #3221225472	; 0xc0000000
    180a:	f503 2380 	add.w	r3, r3, #262144	; 0x40000
    180e:	f7ff fc9b 	bl	1148 <makeLine>
		makeLine(0.0, -1.5);
    1812:	f04f 0000 	mov.w	r0, #0
    1816:	f04f 0100 	mov.w	r1, #0
    181a:	f04f 0200 	mov.w	r2, #0
    181e:	f04f 433f 	mov.w	r3, #3204448256	; 0xbf000000
    1822:	f503 0378 	add.w	r3, r3, #16252928	; 0xf80000
    1826:	f7ff fc8f 	bl	1148 <makeLine>
		makeLine(1.0, -2.5);
    182a:	f04f 0000 	mov.w	r0, #0
    182e:	f04f 517e 	mov.w	r1, #1065353216	; 0x3f800000
    1832:	f501 01e0 	add.w	r1, r1, #7340032	; 0x700000
    1836:	f04f 0200 	mov.w	r2, #0
    183a:	f04f 4340 	mov.w	r3, #3221225472	; 0xc0000000
    183e:	f503 2380 	add.w	r3, r3, #262144	; 0x40000
    1842:	f7ff fc81 	bl	1148 <makeLine>
		makeLine(1.0, 0.0);
    1846:	f04f 0000 	mov.w	r0, #0
    184a:	f04f 517e 	mov.w	r1, #1065353216	; 0x3f800000
    184e:	f501 01e0 	add.w	r1, r1, #7340032	; 0x700000
    1852:	f04f 0200 	mov.w	r2, #0
    1856:	f04f 0300 	mov.w	r3, #0
    185a:	f7ff fc75 	bl	1148 <makeLine>
		makeLine(1.0, 2.5);
    185e:	f04f 0000 	mov.w	r0, #0
    1862:	f04f 517e 	mov.w	r1, #1065353216	; 0x3f800000
    1866:	f501 01e0 	add.w	r1, r1, #7340032	; 0x700000
    186a:	f04f 0200 	mov.w	r2, #0
    186e:	f04f 4380 	mov.w	r3, #1073741824	; 0x40000000
    1872:	f503 2380 	add.w	r3, r3, #262144	; 0x40000
    1876:	f7ff fc67 	bl	1148 <makeLine>
		makeLine(0.0, 1.5);
    187a:	f04f 0000 	mov.w	r0, #0
    187e:	f04f 0100 	mov.w	r1, #0
    1882:	f04f 0200 	mov.w	r2, #0
    1886:	f04f 537e 	mov.w	r3, #1065353216	; 0x3f800000
    188a:	f503 03f0 	add.w	r3, r3, #7864320	; 0x780000
    188e:	f7ff fc5b 	bl	1148 <makeLine>
		makeLine(-1.0, 1.5);
    1892:	f04f 0000 	mov.w	r0, #0
    1896:	f04f 413f 	mov.w	r1, #3204448256	; 0xbf000000
    189a:	f501 0170 	add.w	r1, r1, #15728640	; 0xf00000
    189e:	f04f 0200 	mov.w	r2, #0
    18a2:	f04f 537e 	mov.w	r3, #1065353216	; 0x3f800000
    18a6:	f503 03f0 	add.w	r3, r3, #7864320	; 0x780000
    18aa:	f7ff fc4d 	bl	1148 <makeLine>
		makeLine(-1.0, 0.0);
    18ae:	f04f 0000 	mov.w	r0, #0
    18b2:	f04f 413f 	mov.w	r1, #3204448256	; 0xbf000000
    18b6:	f501 0170 	add.w	r1, r1, #15728640	; 0xf00000
    18ba:	f04f 0200 	mov.w	r2, #0
    18be:	f04f 0300 	mov.w	r3, #0
    18c2:	f7ff fc41 	bl	1148 <makeLine>
		//Get ready for next character
		sendMessage(servoRetract, 1, 0x373A);
    18c6:	f240 0008 	movw	r0, #8
    18ca:	f2c2 0000 	movt	r0, #8192	; 0x2000
    18ce:	f04f 0101 	mov.w	r1, #1
    18d2:	f243 723a 	movw	r2, #14138	; 0x373a
    18d6:	f7ff f813 	bl	900 <sendMessage>
		makeLine(3.0, 1.0);
    18da:	f04f 0000 	mov.w	r0, #0
    18de:	f04f 4180 	mov.w	r1, #1073741824	; 0x40000000
    18e2:	f501 2100 	add.w	r1, r1, #524288	; 0x80000
    18e6:	f04f 0200 	mov.w	r2, #0
    18ea:	f04f 537e 	mov.w	r3, #1065353216	; 0x3f800000
    18ee:	f503 03e0 	add.w	r3, r3, #7340032	; 0x700000
    18f2:	f7ff fc29 	bl	1148 <makeLine>
    18f6:	f003 bf5e 	b.w	57b6 <MAIN_STACK_SIZE+0x37b6>
	}
	else if(character == '1') {
    18fa:	79fb      	ldrb	r3, [r7, #7]
    18fc:	2b31      	cmp	r3, #49	; 0x31
    18fe:	d177      	bne.n	19f0 <drawCharacter+0x238>
		makeLine(1.0, -1.0);
    1900:	f04f 0000 	mov.w	r0, #0
    1904:	f04f 517e 	mov.w	r1, #1065353216	; 0x3f800000
    1908:	f501 01e0 	add.w	r1, r1, #7340032	; 0x700000
    190c:	f04f 0200 	mov.w	r2, #0
    1910:	f04f 433f 	mov.w	r3, #3204448256	; 0xbf000000
    1914:	f503 0370 	add.w	r3, r3, #15728640	; 0xf00000
    1918:	f7ff fc16 	bl	1148 <makeLine>
		sendMessage(servoExtend, 1, 0x373A);
    191c:	f240 000c 	movw	r0, #12
    1920:	f2c2 0000 	movt	r0, #8192	; 0x2000
    1924:	f04f 0101 	mov.w	r1, #1
    1928:	f243 723a 	movw	r2, #14138	; 0x373a
    192c:	f7fe ffe8 	bl	900 <sendMessage>
		makeLine(3.5, 0.0);
    1930:	f04f 0000 	mov.w	r0, #0
    1934:	f04f 4180 	mov.w	r1, #1073741824	; 0x40000000
    1938:	f501 2140 	add.w	r1, r1, #786432	; 0xc0000
    193c:	f04f 0200 	mov.w	r2, #0
    1940:	f04f 0300 	mov.w	r3, #0
    1944:	f7ff fc00 	bl	1148 <makeLine>
		sendMessage(servoRetract, 1, 0x373A);
    1948:	f240 0008 	movw	r0, #8
    194c:	f2c2 0000 	movt	r0, #8192	; 0x2000
    1950:	f04f 0101 	mov.w	r1, #1
    1954:	f243 723a 	movw	r2, #14138	; 0x373a
    1958:	f7fe ffd2 	bl	900 <sendMessage>
		makeLine(-1.75, 0.0);
    195c:	f04f 0000 	mov.w	r0, #0
    1960:	f04f 413f 	mov.w	r1, #3204448256	; 0xbf000000
    1964:	f501 017c 	add.w	r1, r1, #16515072	; 0xfc0000
    1968:	f04f 0200 	mov.w	r2, #0
    196c:	f04f 0300 	mov.w	r3, #0
    1970:	f7ff fbea 	bl	1148 <makeLine>
		sendMessage(servoExtend, 1, 0x373A);
    1974:	f240 000c 	movw	r0, #12
    1978:	f2c2 0000 	movt	r0, #8192	; 0x2000
    197c:	f04f 0101 	mov.w	r1, #1
    1980:	f243 723a 	movw	r2, #14138	; 0x373a
    1984:	f7fe ffbc 	bl	900 <sendMessage>
		makeLine(0.0, -4.5);
    1988:	f04f 0000 	mov.w	r0, #0
    198c:	f04f 0100 	mov.w	r1, #0
    1990:	f04f 0200 	mov.w	r2, #0
    1994:	f04f 4340 	mov.w	r3, #3221225472	; 0xc0000000
    1998:	f503 1390 	add.w	r3, r3, #1179648	; 0x120000
    199c:	f7ff fbd4 	bl	1148 <makeLine>
		makeLine(-1.5, 1.5);
    19a0:	f04f 0000 	mov.w	r0, #0
    19a4:	f04f 413f 	mov.w	r1, #3204448256	; 0xbf000000
    19a8:	f501 0178 	add.w	r1, r1, #16252928	; 0xf80000
    19ac:	f04f 0200 	mov.w	r2, #0
    19b0:	f04f 537e 	mov.w	r3, #1065353216	; 0x3f800000
    19b4:	f503 03f0 	add.w	r3, r3, #7864320	; 0x780000
    19b8:	f7ff fbc6 	bl	1148 <makeLine>
		//Get ready for next character
		sendMessage(servoRetract, 1, 0x373A);
    19bc:	f240 0008 	movw	r0, #8
    19c0:	f2c2 0000 	movt	r0, #8192	; 0x2000
    19c4:	f04f 0101 	mov.w	r1, #1
    19c8:	f243 723a 	movw	r2, #14138	; 0x373a
    19cc:	f7fe ff98 	bl	900 <sendMessage>
		makeLine(3.75, 4.0);
    19d0:	f04f 0000 	mov.w	r0, #0
    19d4:	f04f 4180 	mov.w	r1, #1073741824	; 0x40000000
    19d8:	f501 2160 	add.w	r1, r1, #917504	; 0xe0000
    19dc:	f04f 0200 	mov.w	r2, #0
    19e0:	f04f 4380 	mov.w	r3, #1073741824	; 0x40000000
    19e4:	f503 1380 	add.w	r3, r3, #1048576	; 0x100000
    19e8:	f7ff fbae 	bl	1148 <makeLine>
    19ec:	f003 bee3 	b.w	57b6 <MAIN_STACK_SIZE+0x37b6>
	}
	else if(character == '2') {
    19f0:	79fb      	ldrb	r3, [r7, #7]
    19f2:	2b32      	cmp	r3, #50	; 0x32
    19f4:	d16b      	bne.n	1ace <drawCharacter+0x316>
		makeLine(4.0, -1.0);
    19f6:	f04f 0000 	mov.w	r0, #0
    19fa:	f04f 4180 	mov.w	r1, #1073741824	; 0x40000000
    19fe:	f501 1180 	add.w	r1, r1, #1048576	; 0x100000
    1a02:	f04f 0200 	mov.w	r2, #0
    1a06:	f04f 433f 	mov.w	r3, #3204448256	; 0xbf000000
    1a0a:	f503 0370 	add.w	r3, r3, #15728640	; 0xf00000
    1a0e:	f7ff fb9b 	bl	1148 <makeLine>
		sendMessage(servoExtend, 1, 0x373A);
    1a12:	f240 000c 	movw	r0, #12
    1a16:	f2c2 0000 	movt	r0, #8192	; 0x2000
    1a1a:	f04f 0101 	mov.w	r1, #1
    1a1e:	f243 723a 	movw	r2, #14138	; 0x373a
    1a22:	f7fe ff6d 	bl	900 <sendMessage>
		makeLine(-3.0, 0.0);
    1a26:	f04f 0000 	mov.w	r0, #0
    1a2a:	f04f 4140 	mov.w	r1, #3221225472	; 0xc0000000
    1a2e:	f501 2100 	add.w	r1, r1, #524288	; 0x80000
    1a32:	f04f 0200 	mov.w	r2, #0
    1a36:	f04f 0300 	mov.w	r3, #0
    1a3a:	f7ff fb85 	bl	1148 <makeLine>
		makeLine(0.0, -2.0);
    1a3e:	f04f 0000 	mov.w	r0, #0
    1a42:	f04f 0100 	mov.w	r1, #0
    1a46:	f04f 0200 	mov.w	r2, #0
    1a4a:	f04f 4340 	mov.w	r3, #3221225472	; 0xc0000000
    1a4e:	f7ff fb7b 	bl	1148 <makeLine>
		makeLine(3.0, 0.0);
    1a52:	f04f 0000 	mov.w	r0, #0
    1a56:	f04f 4180 	mov.w	r1, #1073741824	; 0x40000000
    1a5a:	f501 2100 	add.w	r1, r1, #524288	; 0x80000
    1a5e:	f04f 0200 	mov.w	r2, #0
    1a62:	f04f 0300 	mov.w	r3, #0
    1a66:	f7ff fb6f 	bl	1148 <makeLine>
		makeLine(0.0, -1.5);
    1a6a:	f04f 0000 	mov.w	r0, #0
    1a6e:	f04f 0100 	mov.w	r1, #0
    1a72:	f04f 0200 	mov.w	r2, #0
    1a76:	f04f 433f 	mov.w	r3, #3204448256	; 0xbf000000
    1a7a:	f503 0378 	add.w	r3, r3, #16252928	; 0xf80000
    1a7e:	f7ff fb63 	bl	1148 <makeLine>
		makeLine(-3.0, 0.0);
    1a82:	f04f 0000 	mov.w	r0, #0
    1a86:	f04f 4140 	mov.w	r1, #3221225472	; 0xc0000000
    1a8a:	f501 2100 	add.w	r1, r1, #524288	; 0x80000
    1a8e:	f04f 0200 	mov.w	r2, #0
    1a92:	f04f 0300 	mov.w	r3, #0
    1a96:	f7ff fb57 	bl	1148 <makeLine>
		//Get ready for next character
		sendMessage(servoRetract, 1, 0x373A);
    1a9a:	f240 0008 	movw	r0, #8
    1a9e:	f2c2 0000 	movt	r0, #8192	; 0x2000
    1aa2:	f04f 0101 	mov.w	r1, #1
    1aa6:	f243 723a 	movw	r2, #14138	; 0x373a
    1aaa:	f7fe ff29 	bl	900 <sendMessage>
		makeLine(4.0, 4.5);
    1aae:	f04f 0000 	mov.w	r0, #0
    1ab2:	f04f 4180 	mov.w	r1, #1073741824	; 0x40000000
    1ab6:	f501 1180 	add.w	r1, r1, #1048576	; 0x100000
    1aba:	f04f 0200 	mov.w	r2, #0
    1abe:	f04f 4380 	mov.w	r3, #1073741824	; 0x40000000
    1ac2:	f503 1390 	add.w	r3, r3, #1179648	; 0x120000
    1ac6:	f7ff fb3f 	bl	1148 <makeLine>
    1aca:	f003 be74 	b.w	57b6 <MAIN_STACK_SIZE+0x37b6>
	}
	else if(character == '3') {
    1ace:	79fb      	ldrb	r3, [r7, #7]
    1ad0:	2b33      	cmp	r3, #51	; 0x33
    1ad2:	f040 8084 	bne.w	1bde <drawCharacter+0x426>
		makeLine(1.0, -2.0);
    1ad6:	f04f 0000 	mov.w	r0, #0
    1ada:	f04f 517e 	mov.w	r1, #1065353216	; 0x3f800000
    1ade:	f501 01e0 	add.w	r1, r1, #7340032	; 0x700000
    1ae2:	f04f 0200 	mov.w	r2, #0
    1ae6:	f04f 4340 	mov.w	r3, #3221225472	; 0xc0000000
    1aea:	f7ff fb2d 	bl	1148 <makeLine>
		sendMessage(servoExtend, 1, 0x373A);
    1aee:	f240 000c 	movw	r0, #12
    1af2:	f2c2 0000 	movt	r0, #8192	; 0x2000
    1af6:	f04f 0101 	mov.w	r1, #1
    1afa:	f243 723a 	movw	r2, #14138	; 0x373a
    1afe:	f7fe feff 	bl	900 <sendMessage>
		makeLine(1.5, 1.0);
    1b02:	f04f 0000 	mov.w	r0, #0
    1b06:	f04f 517e 	mov.w	r1, #1065353216	; 0x3f800000
    1b0a:	f501 01f0 	add.w	r1, r1, #7864320	; 0x780000
    1b0e:	f04f 0200 	mov.w	r2, #0
    1b12:	f04f 537e 	mov.w	r3, #1065353216	; 0x3f800000
    1b16:	f503 03e0 	add.w	r3, r3, #7340032	; 0x700000
    1b1a:	f7ff fb15 	bl	1148 <makeLine>
		makeLine(1.5, -1.0);
    1b1e:	f04f 0000 	mov.w	r0, #0
    1b22:	f04f 517e 	mov.w	r1, #1065353216	; 0x3f800000
    1b26:	f501 01f0 	add.w	r1, r1, #7864320	; 0x780000
    1b2a:	f04f 0200 	mov.w	r2, #0
    1b2e:	f04f 433f 	mov.w	r3, #3204448256	; 0xbf000000
    1b32:	f503 0370 	add.w	r3, r3, #15728640	; 0xf00000
    1b36:	f7ff fb07 	bl	1148 <makeLine>
		makeLine(-1.5, -1.5);
    1b3a:	f04f 0000 	mov.w	r0, #0
    1b3e:	f04f 413f 	mov.w	r1, #3204448256	; 0xbf000000
    1b42:	f501 0178 	add.w	r1, r1, #16252928	; 0xf80000
    1b46:	f04f 0200 	mov.w	r2, #0
    1b4a:	f04f 433f 	mov.w	r3, #3204448256	; 0xbf000000
    1b4e:	f503 0378 	add.w	r3, r3, #16252928	; 0xf80000
    1b52:	f7ff faf9 	bl	1148 <makeLine>
		makeLine(1.5, -1.5);
    1b56:	f04f 0000 	mov.w	r0, #0
    1b5a:	f04f 517e 	mov.w	r1, #1065353216	; 0x3f800000
    1b5e:	f501 01f0 	add.w	r1, r1, #7864320	; 0x780000
    1b62:	f04f 0200 	mov.w	r2, #0
    1b66:	f04f 433f 	mov.w	r3, #3204448256	; 0xbf000000
    1b6a:	f503 0378 	add.w	r3, r3, #16252928	; 0xf80000
    1b6e:	f7ff faeb 	bl	1148 <makeLine>
		makeLine(-1.5, -1.0);
    1b72:	f04f 0000 	mov.w	r0, #0
    1b76:	f04f 413f 	mov.w	r1, #3204448256	; 0xbf000000
    1b7a:	f501 0178 	add.w	r1, r1, #16252928	; 0xf80000
    1b7e:	f04f 0200 	mov.w	r2, #0
    1b82:	f04f 433f 	mov.w	r3, #3204448256	; 0xbf000000
    1b86:	f503 0370 	add.w	r3, r3, #15728640	; 0xf00000
    1b8a:	f7ff fadd 	bl	1148 <makeLine>
		makeLine(-1.5, 1.0);
    1b8e:	f04f 0000 	mov.w	r0, #0
    1b92:	f04f 413f 	mov.w	r1, #3204448256	; 0xbf000000
    1b96:	f501 0178 	add.w	r1, r1, #16252928	; 0xf80000
    1b9a:	f04f 0200 	mov.w	r2, #0
    1b9e:	f04f 537e 	mov.w	r3, #1065353216	; 0x3f800000
    1ba2:	f503 03e0 	add.w	r3, r3, #7340032	; 0x700000
    1ba6:	f7ff facf 	bl	1148 <makeLine>
		//Get ready for next character
		sendMessage(servoRetract, 1, 0x373A);
    1baa:	f240 0008 	movw	r0, #8
    1bae:	f2c2 0000 	movt	r0, #8192	; 0x2000
    1bb2:	f04f 0101 	mov.w	r1, #1
    1bb6:	f243 723a 	movw	r2, #14138	; 0x373a
    1bba:	f7fe fea1 	bl	900 <sendMessage>
		makeLine(4.0, 5.0);
    1bbe:	f04f 0000 	mov.w	r0, #0
    1bc2:	f04f 4180 	mov.w	r1, #1073741824	; 0x40000000
    1bc6:	f501 1180 	add.w	r1, r1, #1048576	; 0x100000
    1bca:	f04f 0200 	mov.w	r2, #0
    1bce:	f04f 4380 	mov.w	r3, #1073741824	; 0x40000000
    1bd2:	f503 13a0 	add.w	r3, r3, #1310720	; 0x140000
    1bd6:	f7ff fab7 	bl	1148 <makeLine>
    1bda:	f003 bdec 	b.w	57b6 <MAIN_STACK_SIZE+0x37b6>
	}
	else if(character == '4') {
    1bde:	79fb      	ldrb	r3, [r7, #7]
    1be0:	2b34      	cmp	r3, #52	; 0x34
    1be2:	d153      	bne.n	1c8c <drawCharacter+0x4d4>
		makeLine(3.0, -1.0);
    1be4:	f04f 0000 	mov.w	r0, #0
    1be8:	f04f 4180 	mov.w	r1, #1073741824	; 0x40000000
    1bec:	f501 2100 	add.w	r1, r1, #524288	; 0x80000
    1bf0:	f04f 0200 	mov.w	r2, #0
    1bf4:	f04f 433f 	mov.w	r3, #3204448256	; 0xbf000000
    1bf8:	f503 0370 	add.w	r3, r3, #15728640	; 0xf00000
    1bfc:	f7ff faa4 	bl	1148 <makeLine>
		sendMessage(servoExtend, 1, 0x373A);
    1c00:	f240 000c 	movw	r0, #12
    1c04:	f2c2 0000 	movt	r0, #8192	; 0x2000
    1c08:	f04f 0101 	mov.w	r1, #1
    1c0c:	f243 723a 	movw	r2, #14138	; 0x373a
    1c10:	f7fe fe76 	bl	900 <sendMessage>
		makeLine(0.0, -4.5);
    1c14:	f04f 0000 	mov.w	r0, #0
    1c18:	f04f 0100 	mov.w	r1, #0
    1c1c:	f04f 0200 	mov.w	r2, #0
    1c20:	f04f 4340 	mov.w	r3, #3221225472	; 0xc0000000
    1c24:	f503 1390 	add.w	r3, r3, #1179648	; 0x120000
    1c28:	f7ff fa8e 	bl	1148 <makeLine>
		makeLine(-2.0, 2.0);
    1c2c:	f04f 0000 	mov.w	r0, #0
    1c30:	f04f 4140 	mov.w	r1, #3221225472	; 0xc0000000
    1c34:	f04f 0200 	mov.w	r2, #0
    1c38:	f04f 4380 	mov.w	r3, #1073741824	; 0x40000000
    1c3c:	f7ff fa84 	bl	1148 <makeLine>
		makeLine(3.5, 0.0);
    1c40:	f04f 0000 	mov.w	r0, #0
    1c44:	f04f 4180 	mov.w	r1, #1073741824	; 0x40000000
    1c48:	f501 2140 	add.w	r1, r1, #786432	; 0xc0000
    1c4c:	f04f 0200 	mov.w	r2, #0
    1c50:	f04f 0300 	mov.w	r3, #0
    1c54:	f7ff fa78 	bl	1148 <makeLine>
		//Get ready for next character
		sendMessage(servoRetract, 1, 0x373A);
    1c58:	f240 0008 	movw	r0, #8
    1c5c:	f2c2 0000 	movt	r0, #8192	; 0x2000
    1c60:	f04f 0101 	mov.w	r1, #1
    1c64:	f243 723a 	movw	r2, #14138	; 0x373a
    1c68:	f7fe fe4a 	bl	900 <sendMessage>
		makeLine(0.5, 4.5);
    1c6c:	f04f 0000 	mov.w	r0, #0
    1c70:	f04f 517e 	mov.w	r1, #1065353216	; 0x3f800000
    1c74:	f501 01c0 	add.w	r1, r1, #6291456	; 0x600000
    1c78:	f04f 0200 	mov.w	r2, #0
    1c7c:	f04f 4380 	mov.w	r3, #1073741824	; 0x40000000
    1c80:	f503 1390 	add.w	r3, r3, #1179648	; 0x120000
    1c84:	f7ff fa60 	bl	1148 <makeLine>
    1c88:	f003 bd95 	b.w	57b6 <MAIN_STACK_SIZE+0x37b6>
	}
	else if(character == '5') {
    1c8c:	79fb      	ldrb	r3, [r7, #7]
    1c8e:	2b35      	cmp	r3, #53	; 0x35
    1c90:	d16b      	bne.n	1d6a <drawCharacter+0x5b2>
		makeLine(1.0, -1.0);
    1c92:	f04f 0000 	mov.w	r0, #0
    1c96:	f04f 517e 	mov.w	r1, #1065353216	; 0x3f800000
    1c9a:	f501 01e0 	add.w	r1, r1, #7340032	; 0x700000
    1c9e:	f04f 0200 	mov.w	r2, #0
    1ca2:	f04f 433f 	mov.w	r3, #3204448256	; 0xbf000000
    1ca6:	f503 0370 	add.w	r3, r3, #15728640	; 0xf00000
    1caa:	f7ff fa4d 	bl	1148 <makeLine>
		sendMessage(servoExtend, 1, 0x373A);
    1cae:	f240 000c 	movw	r0, #12
    1cb2:	f2c2 0000 	movt	r0, #8192	; 0x2000
    1cb6:	f04f 0101 	mov.w	r1, #1
    1cba:	f243 723a 	movw	r2, #14138	; 0x373a
    1cbe:	f7fe fe1f 	bl	900 <sendMessage>
		makeLine(3.0, 0.0);
    1cc2:	f04f 0000 	mov.w	r0, #0
    1cc6:	f04f 4180 	mov.w	r1, #1073741824	; 0x40000000
    1cca:	f501 2100 	add.w	r1, r1, #524288	; 0x80000
    1cce:	f04f 0200 	mov.w	r2, #0
    1cd2:	f04f 0300 	mov.w	r3, #0
    1cd6:	f7ff fa37 	bl	1148 <makeLine>
		makeLine(0.0, -2.0);
    1cda:	f04f 0000 	mov.w	r0, #0
    1cde:	f04f 0100 	mov.w	r1, #0
    1ce2:	f04f 0200 	mov.w	r2, #0
    1ce6:	f04f 4340 	mov.w	r3, #3221225472	; 0xc0000000
    1cea:	f7ff fa2d 	bl	1148 <makeLine>
		makeLine(-3.0, 0.0);
    1cee:	f04f 0000 	mov.w	r0, #0
    1cf2:	f04f 4140 	mov.w	r1, #3221225472	; 0xc0000000
    1cf6:	f501 2100 	add.w	r1, r1, #524288	; 0x80000
    1cfa:	f04f 0200 	mov.w	r2, #0
    1cfe:	f04f 0300 	mov.w	r3, #0
    1d02:	f7ff fa21 	bl	1148 <makeLine>
		makeLine(0.0, -1.5);
    1d06:	f04f 0000 	mov.w	r0, #0
    1d0a:	f04f 0100 	mov.w	r1, #0
    1d0e:	f04f 0200 	mov.w	r2, #0
    1d12:	f04f 433f 	mov.w	r3, #3204448256	; 0xbf000000
    1d16:	f503 0378 	add.w	r3, r3, #16252928	; 0xf80000
    1d1a:	f7ff fa15 	bl	1148 <makeLine>
		makeLine(3.0, 0.0);
    1d1e:	f04f 0000 	mov.w	r0, #0
    1d22:	f04f 4180 	mov.w	r1, #1073741824	; 0x40000000
    1d26:	f501 2100 	add.w	r1, r1, #524288	; 0x80000
    1d2a:	f04f 0200 	mov.w	r2, #0
    1d2e:	f04f 0300 	mov.w	r3, #0
    1d32:	f7ff fa09 	bl	1148 <makeLine>
		//Get ready for next character
		sendMessage(servoRetract, 1, 0x373A);
    1d36:	f240 0008 	movw	r0, #8
    1d3a:	f2c2 0000 	movt	r0, #8192	; 0x2000
    1d3e:	f04f 0101 	mov.w	r1, #1
    1d42:	f243 723a 	movw	r2, #14138	; 0x373a
    1d46:	f7fe fddb 	bl	900 <sendMessage>
		makeLine(1.0, 4.5);
    1d4a:	f04f 0000 	mov.w	r0, #0
    1d4e:	f04f 517e 	mov.w	r1, #1065353216	; 0x3f800000
    1d52:	f501 01e0 	add.w	r1, r1, #7340032	; 0x700000
    1d56:	f04f 0200 	mov.w	r2, #0
    1d5a:	f04f 4380 	mov.w	r3, #1073741824	; 0x40000000
    1d5e:	f503 1390 	add.w	r3, r3, #1179648	; 0x120000
    1d62:	f7ff f9f1 	bl	1148 <makeLine>
    1d66:	f003 bd26 	b.w	57b6 <MAIN_STACK_SIZE+0x37b6>
	}
	else if(character == '6') {
    1d6a:	79fb      	ldrb	r3, [r7, #7]
    1d6c:	2b36      	cmp	r3, #54	; 0x36
    1d6e:	d175      	bne.n	1e5c <drawCharacter+0x6a4>
		makeLine(1.0, -3.0);
    1d70:	f04f 0000 	mov.w	r0, #0
    1d74:	f04f 517e 	mov.w	r1, #1065353216	; 0x3f800000
    1d78:	f501 01e0 	add.w	r1, r1, #7340032	; 0x700000
    1d7c:	f04f 0200 	mov.w	r2, #0
    1d80:	f04f 4340 	mov.w	r3, #3221225472	; 0xc0000000
    1d84:	f503 2300 	add.w	r3, r3, #524288	; 0x80000
    1d88:	f7ff f9de 	bl	1148 <makeLine>
		sendMessage(servoExtend, 1, 0x373A);
    1d8c:	f240 000c 	movw	r0, #12
    1d90:	f2c2 0000 	movt	r0, #8192	; 0x2000
    1d94:	f04f 0101 	mov.w	r1, #1
    1d98:	f243 723a 	movw	r2, #14138	; 0x373a
    1d9c:	f7fe fdb0 	bl	900 <sendMessage>
		makeLine(0.0, -2.0);
    1da0:	f04f 0000 	mov.w	r0, #0
    1da4:	f04f 0100 	mov.w	r1, #0
    1da8:	f04f 0200 	mov.w	r2, #0
    1dac:	f04f 4340 	mov.w	r3, #3221225472	; 0xc0000000
    1db0:	f7ff f9ca 	bl	1148 <makeLine>
		makeLine(3.0, 0.0);
    1db4:	f04f 0000 	mov.w	r0, #0
    1db8:	f04f 4180 	mov.w	r1, #1073741824	; 0x40000000
    1dbc:	f501 2100 	add.w	r1, r1, #524288	; 0x80000
    1dc0:	f04f 0200 	mov.w	r2, #0
    1dc4:	f04f 0300 	mov.w	r3, #0
    1dc8:	f7ff f9be 	bl	1148 <makeLine>
		makeLine(0.0, -2.0);
    1dcc:	f04f 0000 	mov.w	r0, #0
    1dd0:	f04f 0100 	mov.w	r1, #0
    1dd4:	f04f 0200 	mov.w	r2, #0
    1dd8:	f04f 4340 	mov.w	r3, #3221225472	; 0xc0000000
    1ddc:	f7ff f9b4 	bl	1148 <makeLine>
		makeLine(-3.0, 0.0);
    1de0:	f04f 0000 	mov.w	r0, #0
    1de4:	f04f 4140 	mov.w	r1, #3221225472	; 0xc0000000
    1de8:	f501 2100 	add.w	r1, r1, #524288	; 0x80000
    1dec:	f04f 0200 	mov.w	r2, #0
    1df0:	f04f 0300 	mov.w	r3, #0
    1df4:	f7ff f9a8 	bl	1148 <makeLine>
		makeLine(0.0, -1.5);
    1df8:	f04f 0000 	mov.w	r0, #0
    1dfc:	f04f 0100 	mov.w	r1, #0
    1e00:	f04f 0200 	mov.w	r2, #0
    1e04:	f04f 433f 	mov.w	r3, #3204448256	; 0xbf000000
    1e08:	f503 0378 	add.w	r3, r3, #16252928	; 0xf80000
    1e0c:	f7ff f99c 	bl	1148 <makeLine>
		makeLine(3.0, 0.0);
    1e10:	f04f 0000 	mov.w	r0, #0
    1e14:	f04f 4180 	mov.w	r1, #1073741824	; 0x40000000
    1e18:	f501 2100 	add.w	r1, r1, #524288	; 0x80000
    1e1c:	f04f 0200 	mov.w	r2, #0
    1e20:	f04f 0300 	mov.w	r3, #0
    1e24:	f7ff f990 	bl	1148 <makeLine>
		//Get ready for next character
		sendMessage(servoRetract, 1, 0x373A);
    1e28:	f240 0008 	movw	r0, #8
    1e2c:	f2c2 0000 	movt	r0, #8192	; 0x2000
    1e30:	f04f 0101 	mov.w	r1, #1
    1e34:	f243 723a 	movw	r2, #14138	; 0x373a
    1e38:	f7fe fd62 	bl	900 <sendMessage>
		makeLine(1.0, 4.5);
    1e3c:	f04f 0000 	mov.w	r0, #0
    1e40:	f04f 517e 	mov.w	r1, #1065353216	; 0x3f800000
    1e44:	f501 01e0 	add.w	r1, r1, #7340032	; 0x700000
    1e48:	f04f 0200 	mov.w	r2, #0
    1e4c:	f04f 4380 	mov.w	r3, #1073741824	; 0x40000000
    1e50:	f503 1390 	add.w	r3, r3, #1179648	; 0x120000
    1e54:	f7ff f978 	bl	1148 <makeLine>
    1e58:	f003 bcad 	b.w	57b6 <MAIN_STACK_SIZE+0x37b6>
	}
	else if(character == '7') {
    1e5c:	79fb      	ldrb	r3, [r7, #7]
    1e5e:	2b37      	cmp	r3, #55	; 0x37
    1e60:	d149      	bne.n	1ef6 <drawCharacter+0x73e>
		makeLine(1.0, -5.0);
    1e62:	f04f 0000 	mov.w	r0, #0
    1e66:	f04f 517e 	mov.w	r1, #1065353216	; 0x3f800000
    1e6a:	f501 01e0 	add.w	r1, r1, #7340032	; 0x700000
    1e6e:	f04f 0200 	mov.w	r2, #0
    1e72:	f04f 4340 	mov.w	r3, #3221225472	; 0xc0000000
    1e76:	f503 13a0 	add.w	r3, r3, #1310720	; 0x140000
    1e7a:	f7ff f965 	bl	1148 <makeLine>
		sendMessage(servoExtend, 1, 0x373A);
    1e7e:	f240 000c 	movw	r0, #12
    1e82:	f2c2 0000 	movt	r0, #8192	; 0x2000
    1e86:	f04f 0101 	mov.w	r1, #1
    1e8a:	f243 723a 	movw	r2, #14138	; 0x373a
    1e8e:	f7fe fd37 	bl	900 <sendMessage>
		makeLine(3.0, 0.0);
    1e92:	f04f 0000 	mov.w	r0, #0
    1e96:	f04f 4180 	mov.w	r1, #1073741824	; 0x40000000
    1e9a:	f501 2100 	add.w	r1, r1, #524288	; 0x80000
    1e9e:	f04f 0200 	mov.w	r2, #0
    1ea2:	f04f 0300 	mov.w	r3, #0
    1ea6:	f7ff f94f 	bl	1148 <makeLine>
		makeLine(-2.0, 4.0);
    1eaa:	f04f 0000 	mov.w	r0, #0
    1eae:	f04f 4140 	mov.w	r1, #3221225472	; 0xc0000000
    1eb2:	f04f 0200 	mov.w	r2, #0
    1eb6:	f04f 4380 	mov.w	r3, #1073741824	; 0x40000000
    1eba:	f503 1380 	add.w	r3, r3, #1048576	; 0x100000
    1ebe:	f7ff f943 	bl	1148 <makeLine>
		//Get ready for next character
		sendMessage(servoRetract, 1, 0x373A);
    1ec2:	f240 0008 	movw	r0, #8
    1ec6:	f2c2 0000 	movt	r0, #8192	; 0x2000
    1eca:	f04f 0101 	mov.w	r1, #1
    1ece:	f243 723a 	movw	r2, #14138	; 0x373a
    1ed2:	f7fe fd15 	bl	900 <sendMessage>
		makeLine(1.0, 1.0);
    1ed6:	f04f 0000 	mov.w	r0, #0
    1eda:	f04f 517e 	mov.w	r1, #1065353216	; 0x3f800000
    1ede:	f501 01e0 	add.w	r1, r1, #7340032	; 0x700000
    1ee2:	f04f 0200 	mov.w	r2, #0
    1ee6:	f04f 537e 	mov.w	r3, #1065353216	; 0x3f800000
    1eea:	f503 03e0 	add.w	r3, r3, #7340032	; 0x700000
    1eee:	f7ff f92b 	bl	1148 <makeLine>
    1ef2:	f003 bc60 	b.w	57b6 <MAIN_STACK_SIZE+0x37b6>
	}
	else if(character == '8') {
    1ef6:	79fb      	ldrb	r3, [r7, #7]
    1ef8:	2b38      	cmp	r3, #56	; 0x38
    1efa:	f040 808e 	bne.w	201a <MAIN_STACK_SIZE+0x1a>
		makeLine(1.0, -1.0);
    1efe:	f04f 0000 	mov.w	r0, #0
    1f02:	f04f 517e 	mov.w	r1, #1065353216	; 0x3f800000
    1f06:	f501 01e0 	add.w	r1, r1, #7340032	; 0x700000
    1f0a:	f04f 0200 	mov.w	r2, #0
    1f0e:	f04f 433f 	mov.w	r3, #3204448256	; 0xbf000000
    1f12:	f503 0370 	add.w	r3, r3, #15728640	; 0xf00000
    1f16:	f7ff f917 	bl	1148 <makeLine>
		sendMessage(servoExtend, 1, 0x373A);
    1f1a:	f240 000c 	movw	r0, #12
    1f1e:	f2c2 0000 	movt	r0, #8192	; 0x2000
    1f22:	f04f 0101 	mov.w	r1, #1
    1f26:	f243 723a 	movw	r2, #14138	; 0x373a
    1f2a:	f7fe fce9 	bl	900 <sendMessage>
		makeLine(0.0, -5.0);
    1f2e:	f04f 0000 	mov.w	r0, #0
    1f32:	f04f 0100 	mov.w	r1, #0
    1f36:	f04f 0200 	mov.w	r2, #0
    1f3a:	f04f 4340 	mov.w	r3, #3221225472	; 0xc0000000
    1f3e:	f503 13a0 	add.w	r3, r3, #1310720	; 0x140000
    1f42:	f7ff f901 	bl	1148 <makeLine>
		makeLine(3.0, 0.0);
    1f46:	f04f 0000 	mov.w	r0, #0
    1f4a:	f04f 4180 	mov.w	r1, #1073741824	; 0x40000000
    1f4e:	f501 2100 	add.w	r1, r1, #524288	; 0x80000
    1f52:	f04f 0200 	mov.w	r2, #0
    1f56:	f04f 0300 	mov.w	r3, #0
    1f5a:	f7ff f8f5 	bl	1148 <makeLine>
		makeLine(0.0, 5.0);
    1f5e:	f04f 0000 	mov.w	r0, #0
    1f62:	f04f 0100 	mov.w	r1, #0
    1f66:	f04f 0200 	mov.w	r2, #0
    1f6a:	f04f 4380 	mov.w	r3, #1073741824	; 0x40000000
    1f6e:	f503 13a0 	add.w	r3, r3, #1310720	; 0x140000
    1f72:	f7ff f8e9 	bl	1148 <makeLine>
		makeLine(-3.0, 0.0);
    1f76:	f04f 0000 	mov.w	r0, #0
    1f7a:	f04f 4140 	mov.w	r1, #3221225472	; 0xc0000000
    1f7e:	f501 2100 	add.w	r1, r1, #524288	; 0x80000
    1f82:	f04f 0200 	mov.w	r2, #0
    1f86:	f04f 0300 	mov.w	r3, #0
    1f8a:	f7ff f8dd 	bl	1148 <makeLine>
		sendMessage(servoRetract, 1, 0x373A);
    1f8e:	f240 0008 	movw	r0, #8
    1f92:	f2c2 0000 	movt	r0, #8192	; 0x2000
    1f96:	f04f 0101 	mov.w	r1, #1
    1f9a:	f243 723a 	movw	r2, #14138	; 0x373a
    1f9e:	f7fe fcaf 	bl	900 <sendMessage>
		makeLine(0.0, -2.5);
    1fa2:	f04f 0000 	mov.w	r0, #0
    1fa6:	f04f 0100 	mov.w	r1, #0
    1faa:	f04f 0200 	mov.w	r2, #0
    1fae:	f04f 4340 	mov.w	r3, #3221225472	; 0xc0000000
    1fb2:	f503 2380 	add.w	r3, r3, #262144	; 0x40000
    1fb6:	f7ff f8c7 	bl	1148 <makeLine>
		sendMessage(servoExtend, 1, 0x373A);
    1fba:	f240 000c 	movw	r0, #12
    1fbe:	f2c2 0000 	movt	r0, #8192	; 0x2000
    1fc2:	f04f 0101 	mov.w	r1, #1
    1fc6:	f243 723a 	movw	r2, #14138	; 0x373a
    1fca:	f7fe fc99 	bl	900 <sendMessage>
		makeLine(3.0, 0.0);
    1fce:	f04f 0000 	mov.w	r0, #0
    1fd2:	f04f 4180 	mov.w	r1, #1073741824	; 0x40000000
    1fd6:	f501 2100 	add.w	r1, r1, #524288	; 0x80000
    1fda:	f04f 0200 	mov.w	r2, #0
    1fde:	f04f 0300 	mov.w	r3, #0
    1fe2:	f7ff f8b1 	bl	1148 <makeLine>
		//Get ready for next character
		sendMessage(servoRetract, 1, 0x373A);
    1fe6:	f240 0008 	movw	r0, #8
    1fea:	f2c2 0000 	movt	r0, #8192	; 0x2000
    1fee:	f04f 0101 	mov.w	r1, #1
    1ff2:	f243 723a 	movw	r2, #14138	; 0x373a
    1ff6:	f7fe fc83 	bl	900 <sendMessage>
		makeLine(1.0, 3.5);
    1ffa:	f04f 0000 	mov.w	r0, #0
    1ffe:	f04f 517e 	mov.w	r1, #1065353216	; 0x3f800000
    2002:	f501 01e0 	add.w	r1, r1, #7340032	; 0x700000
    2006:	f04f 0200 	mov.w	r2, #0
    200a:	f04f 4380 	mov.w	r3, #1073741824	; 0x40000000
    200e:	f503 2340 	add.w	r3, r3, #786432	; 0xc0000
    2012:	f7ff f899 	bl	1148 <makeLine>
    2016:	f003 bbce 	b.w	57b6 <MAIN_STACK_SIZE+0x37b6>
	}
	else if(character == '9') {
    201a:	79fb      	ldrb	r3, [r7, #7]
    201c:	2b39      	cmp	r3, #57	; 0x39
    201e:	d16d      	bne.n	20fc <MAIN_STACK_SIZE+0xfc>
		makeLine(1.0, -1.0);
    2020:	f04f 0000 	mov.w	r0, #0
    2024:	f04f 517e 	mov.w	r1, #1065353216	; 0x3f800000
    2028:	f501 01e0 	add.w	r1, r1, #7340032	; 0x700000
    202c:	f04f 0200 	mov.w	r2, #0
    2030:	f04f 433f 	mov.w	r3, #3204448256	; 0xbf000000
    2034:	f503 0370 	add.w	r3, r3, #15728640	; 0xf00000
    2038:	f7ff f886 	bl	1148 <makeLine>
		sendMessage(servoExtend, 1, 0x373A);
    203c:	f240 000c 	movw	r0, #12
    2040:	f2c2 0000 	movt	r0, #8192	; 0x2000
    2044:	f04f 0101 	mov.w	r1, #1
    2048:	f243 723a 	movw	r2, #14138	; 0x373a
    204c:	f7fe fc58 	bl	900 <sendMessage>
		makeLine(3.0, 0.0);
    2050:	f04f 0000 	mov.w	r0, #0
    2054:	f04f 4180 	mov.w	r1, #1073741824	; 0x40000000
    2058:	f501 2100 	add.w	r1, r1, #524288	; 0x80000
    205c:	f04f 0200 	mov.w	r2, #0
    2060:	f04f 0300 	mov.w	r3, #0
    2064:	f7ff f870 	bl	1148 <makeLine>
		makeLine(0.0, -5.0);
    2068:	f04f 0000 	mov.w	r0, #0
    206c:	f04f 0100 	mov.w	r1, #0
    2070:	f04f 0200 	mov.w	r2, #0
    2074:	f04f 4340 	mov.w	r3, #3221225472	; 0xc0000000
    2078:	f503 13a0 	add.w	r3, r3, #1310720	; 0x140000
    207c:	f7ff f864 	bl	1148 <makeLine>
		makeLine(-3.0, 0.0);
    2080:	f04f 0000 	mov.w	r0, #0
    2084:	f04f 4140 	mov.w	r1, #3221225472	; 0xc0000000
    2088:	f501 2100 	add.w	r1, r1, #524288	; 0x80000
    208c:	f04f 0200 	mov.w	r2, #0
    2090:	f04f 0300 	mov.w	r3, #0
    2094:	f7ff f858 	bl	1148 <makeLine>
		makeLine(0.0, 2.5);
    2098:	f04f 0000 	mov.w	r0, #0
    209c:	f04f 0100 	mov.w	r1, #0
    20a0:	f04f 0200 	mov.w	r2, #0
    20a4:	f04f 4380 	mov.w	r3, #1073741824	; 0x40000000
    20a8:	f503 2380 	add.w	r3, r3, #262144	; 0x40000
    20ac:	f7ff f84c 	bl	1148 <makeLine>
		makeLine(3.0, 0.0);
    20b0:	f04f 0000 	mov.w	r0, #0
    20b4:	f04f 4180 	mov.w	r1, #1073741824	; 0x40000000
    20b8:	f501 2100 	add.w	r1, r1, #524288	; 0x80000
    20bc:	f04f 0200 	mov.w	r2, #0
    20c0:	f04f 0300 	mov.w	r3, #0
    20c4:	f7ff f840 	bl	1148 <makeLine>
		//Get ready for next character
		sendMessage(servoRetract, 1, 0x373A);
    20c8:	f240 0008 	movw	r0, #8
    20cc:	f2c2 0000 	movt	r0, #8192	; 0x2000
    20d0:	f04f 0101 	mov.w	r1, #1
    20d4:	f243 723a 	movw	r2, #14138	; 0x373a
    20d8:	f7fe fc12 	bl	900 <sendMessage>
		makeLine(1.0, 3.5);
    20dc:	f04f 0000 	mov.w	r0, #0
    20e0:	f04f 517e 	mov.w	r1, #1065353216	; 0x3f800000
    20e4:	f501 01e0 	add.w	r1, r1, #7340032	; 0x700000
    20e8:	f04f 0200 	mov.w	r2, #0
    20ec:	f04f 4380 	mov.w	r3, #1073741824	; 0x40000000
    20f0:	f503 2340 	add.w	r3, r3, #786432	; 0xc0000
    20f4:	f7ff f828 	bl	1148 <makeLine>
    20f8:	f003 bb5d 	b.w	57b6 <MAIN_STACK_SIZE+0x37b6>
	}
	else if(character == 'A') {
    20fc:	79fb      	ldrb	r3, [r7, #7]
    20fe:	2b41      	cmp	r3, #65	; 0x41
    2100:	d16d      	bne.n	21de <MAIN_STACK_SIZE+0x1de>
		makeLine(1.0, -1.0);
    2102:	f04f 0000 	mov.w	r0, #0
    2106:	f04f 517e 	mov.w	r1, #1065353216	; 0x3f800000
    210a:	f501 01e0 	add.w	r1, r1, #7340032	; 0x700000
    210e:	f04f 0200 	mov.w	r2, #0
    2112:	f04f 433f 	mov.w	r3, #3204448256	; 0xbf000000
    2116:	f503 0370 	add.w	r3, r3, #15728640	; 0xf00000
    211a:	f7ff f815 	bl	1148 <makeLine>
		sendMessage(servoExtend, 1, 0x373A);
    211e:	f240 000c 	movw	r0, #12
    2122:	f2c2 0000 	movt	r0, #8192	; 0x2000
    2126:	f04f 0101 	mov.w	r1, #1
    212a:	f243 723a 	movw	r2, #14138	; 0x373a
    212e:	f7fe fbe7 	bl	900 <sendMessage>
		makeLine(0, -6);
    2132:	f04f 0000 	mov.w	r0, #0
    2136:	f04f 0100 	mov.w	r1, #0
    213a:	f04f 0200 	mov.w	r2, #0
    213e:	f04f 4340 	mov.w	r3, #3221225472	; 0xc0000000
    2142:	f503 13c0 	add.w	r3, r3, #1572864	; 0x180000
    2146:	f7fe ffff 	bl	1148 <makeLine>
		makeLine(3, 0);
    214a:	f04f 0000 	mov.w	r0, #0
    214e:	f04f 4180 	mov.w	r1, #1073741824	; 0x40000000
    2152:	f501 2100 	add.w	r1, r1, #524288	; 0x80000
    2156:	f04f 0200 	mov.w	r2, #0
    215a:	f04f 0300 	mov.w	r3, #0
    215e:	f7fe fff3 	bl	1148 <makeLine>
		makeLine(0, 6);
    2162:	f04f 0000 	mov.w	r0, #0
    2166:	f04f 0100 	mov.w	r1, #0
    216a:	f04f 0200 	mov.w	r2, #0
    216e:	f04f 4380 	mov.w	r3, #1073741824	; 0x40000000
    2172:	f503 13c0 	add.w	r3, r3, #1572864	; 0x180000
    2176:	f7fe ffe7 	bl	1148 <makeLine>
		makeLine(0, -3);
    217a:	f04f 0000 	mov.w	r0, #0
    217e:	f04f 0100 	mov.w	r1, #0
    2182:	f04f 0200 	mov.w	r2, #0
    2186:	f04f 4340 	mov.w	r3, #3221225472	; 0xc0000000
    218a:	f503 2300 	add.w	r3, r3, #524288	; 0x80000
    218e:	f7fe ffdb 	bl	1148 <makeLine>
		makeLine(-3, 0);
    2192:	f04f 0000 	mov.w	r0, #0
    2196:	f04f 4140 	mov.w	r1, #3221225472	; 0xc0000000
    219a:	f501 2100 	add.w	r1, r1, #524288	; 0x80000
    219e:	f04f 0200 	mov.w	r2, #0
    21a2:	f04f 0300 	mov.w	r3, #0
    21a6:	f7fe ffcf 	bl	1148 <makeLine>
		sendMessage(servoRetract, 1, 0x373A);
    21aa:	f240 0008 	movw	r0, #8
    21ae:	f2c2 0000 	movt	r0, #8192	; 0x2000
    21b2:	f04f 0101 	mov.w	r1, #1
    21b6:	f243 723a 	movw	r2, #14138	; 0x373a
    21ba:	f7fe fba1 	bl	900 <sendMessage>
		makeLine(4, 4);
    21be:	f04f 0000 	mov.w	r0, #0
    21c2:	f04f 4180 	mov.w	r1, #1073741824	; 0x40000000
    21c6:	f501 1180 	add.w	r1, r1, #1048576	; 0x100000
    21ca:	f04f 0200 	mov.w	r2, #0
    21ce:	f04f 4380 	mov.w	r3, #1073741824	; 0x40000000
    21d2:	f503 1380 	add.w	r3, r3, #1048576	; 0x100000
    21d6:	f7fe ffb7 	bl	1148 <makeLine>
    21da:	f003 baec 	b.w	57b6 <MAIN_STACK_SIZE+0x37b6>
	}
	else if(character == 'B') {
    21de:	79fb      	ldrb	r3, [r7, #7]
    21e0:	2b42      	cmp	r3, #66	; 0x42
    21e2:	f040 8086 	bne.w	22f2 <MAIN_STACK_SIZE+0x2f2>
		makeLine(1.0, -1.0);
    21e6:	f04f 0000 	mov.w	r0, #0
    21ea:	f04f 517e 	mov.w	r1, #1065353216	; 0x3f800000
    21ee:	f501 01e0 	add.w	r1, r1, #7340032	; 0x700000
    21f2:	f04f 0200 	mov.w	r2, #0
    21f6:	f04f 433f 	mov.w	r3, #3204448256	; 0xbf000000
    21fa:	f503 0370 	add.w	r3, r3, #15728640	; 0xf00000
    21fe:	f7fe ffa3 	bl	1148 <makeLine>
		sendMessage(servoExtend, 1, 0x373A);
    2202:	f240 000c 	movw	r0, #12
    2206:	f2c2 0000 	movt	r0, #8192	; 0x2000
    220a:	f04f 0101 	mov.w	r1, #1
    220e:	f243 723a 	movw	r2, #14138	; 0x373a
    2212:	f7fe fb75 	bl	900 <sendMessage>
		makeLine(0, -6);
    2216:	f04f 0000 	mov.w	r0, #0
    221a:	f04f 0100 	mov.w	r1, #0
    221e:	f04f 0200 	mov.w	r2, #0
    2222:	f04f 4340 	mov.w	r3, #3221225472	; 0xc0000000
    2226:	f503 13c0 	add.w	r3, r3, #1572864	; 0x180000
    222a:	f7fe ff8d 	bl	1148 <makeLine>
		makeLine(3, 0);
    222e:	f04f 0000 	mov.w	r0, #0
    2232:	f04f 4180 	mov.w	r1, #1073741824	; 0x40000000
    2236:	f501 2100 	add.w	r1, r1, #524288	; 0x80000
    223a:	f04f 0200 	mov.w	r2, #0
    223e:	f04f 0300 	mov.w	r3, #0
    2242:	f7fe ff81 	bl	1148 <makeLine>
		makeLine(0, 3);
    2246:	f04f 0000 	mov.w	r0, #0
    224a:	f04f 0100 	mov.w	r1, #0
    224e:	f04f 0200 	mov.w	r2, #0
    2252:	f04f 4380 	mov.w	r3, #1073741824	; 0x40000000
    2256:	f503 2300 	add.w	r3, r3, #524288	; 0x80000
    225a:	f7fe ff75 	bl	1148 <makeLine>
		makeLine(-3, 0);
    225e:	f04f 0000 	mov.w	r0, #0
    2262:	f04f 4140 	mov.w	r1, #3221225472	; 0xc0000000
    2266:	f501 2100 	add.w	r1, r1, #524288	; 0x80000
    226a:	f04f 0200 	mov.w	r2, #0
    226e:	f04f 0300 	mov.w	r3, #0
    2272:	f7fe ff69 	bl	1148 <makeLine>
		makeLine(3, 0);
    2276:	f04f 0000 	mov.w	r0, #0
    227a:	f04f 4180 	mov.w	r1, #1073741824	; 0x40000000
    227e:	f501 2100 	add.w	r1, r1, #524288	; 0x80000
    2282:	f04f 0200 	mov.w	r2, #0
    2286:	f04f 0300 	mov.w	r3, #0
    228a:	f7fe ff5d 	bl	1148 <makeLine>
		makeLine(0, 3);
    228e:	f04f 0000 	mov.w	r0, #0
    2292:	f04f 0100 	mov.w	r1, #0
    2296:	f04f 0200 	mov.w	r2, #0
    229a:	f04f 4380 	mov.w	r3, #1073741824	; 0x40000000
    229e:	f503 2300 	add.w	r3, r3, #524288	; 0x80000
    22a2:	f7fe ff51 	bl	1148 <makeLine>
		makeLine(-3, 0);
    22a6:	f04f 0000 	mov.w	r0, #0
    22aa:	f04f 4140 	mov.w	r1, #3221225472	; 0xc0000000
    22ae:	f501 2100 	add.w	r1, r1, #524288	; 0x80000
    22b2:	f04f 0200 	mov.w	r2, #0
    22b6:	f04f 0300 	mov.w	r3, #0
    22ba:	f7fe ff45 	bl	1148 <makeLine>
		sendMessage(servoRetract, 1, 0x373A);
    22be:	f240 0008 	movw	r0, #8
    22c2:	f2c2 0000 	movt	r0, #8192	; 0x2000
    22c6:	f04f 0101 	mov.w	r1, #1
    22ca:	f243 723a 	movw	r2, #14138	; 0x373a
    22ce:	f7fe fb17 	bl	900 <sendMessage>
		makeLine(4, 1);
    22d2:	f04f 0000 	mov.w	r0, #0
    22d6:	f04f 4180 	mov.w	r1, #1073741824	; 0x40000000
    22da:	f501 1180 	add.w	r1, r1, #1048576	; 0x100000
    22de:	f04f 0200 	mov.w	r2, #0
    22e2:	f04f 537e 	mov.w	r3, #1065353216	; 0x3f800000
    22e6:	f503 03e0 	add.w	r3, r3, #7340032	; 0x700000
    22ea:	f7fe ff2d 	bl	1148 <makeLine>
    22ee:	f003 ba62 	b.w	57b6 <MAIN_STACK_SIZE+0x37b6>
	}
	else if(character == 'C') {
    22f2:	79fb      	ldrb	r3, [r7, #7]
    22f4:	2b43      	cmp	r3, #67	; 0x43
    22f6:	d155      	bne.n	23a4 <MAIN_STACK_SIZE+0x3a4>
		makeLine(4, -1.0);
    22f8:	f04f 0000 	mov.w	r0, #0
    22fc:	f04f 4180 	mov.w	r1, #1073741824	; 0x40000000
    2300:	f501 1180 	add.w	r1, r1, #1048576	; 0x100000
    2304:	f04f 0200 	mov.w	r2, #0
    2308:	f04f 433f 	mov.w	r3, #3204448256	; 0xbf000000
    230c:	f503 0370 	add.w	r3, r3, #15728640	; 0xf00000
    2310:	f7fe ff1a 	bl	1148 <makeLine>
		sendMessage(servoExtend, 1, 0x373A);
    2314:	f240 000c 	movw	r0, #12
    2318:	f2c2 0000 	movt	r0, #8192	; 0x2000
    231c:	f04f 0101 	mov.w	r1, #1
    2320:	f243 723a 	movw	r2, #14138	; 0x373a
    2324:	f7fe faec 	bl	900 <sendMessage>
		makeLine(-3, 0);
    2328:	f04f 0000 	mov.w	r0, #0
    232c:	f04f 4140 	mov.w	r1, #3221225472	; 0xc0000000
    2330:	f501 2100 	add.w	r1, r1, #524288	; 0x80000
    2334:	f04f 0200 	mov.w	r2, #0
    2338:	f04f 0300 	mov.w	r3, #0
    233c:	f7fe ff04 	bl	1148 <makeLine>
		makeLine(0, -6);
    2340:	f04f 0000 	mov.w	r0, #0
    2344:	f04f 0100 	mov.w	r1, #0
    2348:	f04f 0200 	mov.w	r2, #0
    234c:	f04f 4340 	mov.w	r3, #3221225472	; 0xc0000000
    2350:	f503 13c0 	add.w	r3, r3, #1572864	; 0x180000
    2354:	f7fe fef8 	bl	1148 <makeLine>
		makeLine(3, 0);
    2358:	f04f 0000 	mov.w	r0, #0
    235c:	f04f 4180 	mov.w	r1, #1073741824	; 0x40000000
    2360:	f501 2100 	add.w	r1, r1, #524288	; 0x80000
    2364:	f04f 0200 	mov.w	r2, #0
    2368:	f04f 0300 	mov.w	r3, #0
    236c:	f7fe feec 	bl	1148 <makeLine>
		sendMessage(servoRetract, 1, 0x373A);
    2370:	f240 0008 	movw	r0, #8
    2374:	f2c2 0000 	movt	r0, #8192	; 0x2000
    2378:	f04f 0101 	mov.w	r1, #1
    237c:	f243 723a 	movw	r2, #14138	; 0x373a
    2380:	f7fe fabe 	bl	900 <sendMessage>
		makeLine(1, 7);
    2384:	f04f 0000 	mov.w	r0, #0
    2388:	f04f 517e 	mov.w	r1, #1065353216	; 0x3f800000
    238c:	f501 01e0 	add.w	r1, r1, #7340032	; 0x700000
    2390:	f04f 0200 	mov.w	r2, #0
    2394:	f04f 4380 	mov.w	r3, #1073741824	; 0x40000000
    2398:	f503 13e0 	add.w	r3, r3, #1835008	; 0x1c0000
    239c:	f7fe fed4 	bl	1148 <makeLine>
    23a0:	f003 ba09 	b.w	57b6 <MAIN_STACK_SIZE+0x37b6>
	}
	else if(character == 'D') {
    23a4:	79fb      	ldrb	r3, [r7, #7]
    23a6:	2b44      	cmp	r3, #68	; 0x44
    23a8:	d179      	bne.n	249e <MAIN_STACK_SIZE+0x49e>
		makeLine(4, -1.0);
    23aa:	f04f 0000 	mov.w	r0, #0
    23ae:	f04f 4180 	mov.w	r1, #1073741824	; 0x40000000
    23b2:	f501 1180 	add.w	r1, r1, #1048576	; 0x100000
    23b6:	f04f 0200 	mov.w	r2, #0
    23ba:	f04f 433f 	mov.w	r3, #3204448256	; 0xbf000000
    23be:	f503 0370 	add.w	r3, r3, #15728640	; 0xf00000
    23c2:	f7fe fec1 	bl	1148 <makeLine>
		sendMessage(servoExtend, 1, 0x373A);
    23c6:	f240 000c 	movw	r0, #12
    23ca:	f2c2 0000 	movt	r0, #8192	; 0x2000
    23ce:	f04f 0101 	mov.w	r1, #1
    23d2:	f243 723a 	movw	r2, #14138	; 0x373a
    23d6:	f7fe fa93 	bl	900 <sendMessage>
		makeLine(-3, 0);
    23da:	f04f 0000 	mov.w	r0, #0
    23de:	f04f 4140 	mov.w	r1, #3221225472	; 0xc0000000
    23e2:	f501 2100 	add.w	r1, r1, #524288	; 0x80000
    23e6:	f04f 0200 	mov.w	r2, #0
    23ea:	f04f 0300 	mov.w	r3, #0
    23ee:	f7fe feab 	bl	1148 <makeLine>
		makeLine(0, .5);
    23f2:	f04f 0000 	mov.w	r0, #0
    23f6:	f04f 0100 	mov.w	r1, #0
    23fa:	f04f 0200 	mov.w	r2, #0
    23fe:	f04f 537e 	mov.w	r3, #1065353216	; 0x3f800000
    2402:	f503 03c0 	add.w	r3, r3, #6291456	; 0x600000
    2406:	f7fe fe9f 	bl	1148 <makeLine>
		makeLine(0, -7);
    240a:	f04f 0000 	mov.w	r0, #0
    240e:	f04f 0100 	mov.w	r1, #0
    2412:	f04f 0200 	mov.w	r2, #0
    2416:	f04f 4340 	mov.w	r3, #3221225472	; 0xc0000000
    241a:	f503 13e0 	add.w	r3, r3, #1835008	; 0x1c0000
    241e:	f7fe fe93 	bl	1148 <makeLine>
		makeLine(0, .5);
    2422:	f04f 0000 	mov.w	r0, #0
    2426:	f04f 0100 	mov.w	r1, #0
    242a:	f04f 0200 	mov.w	r2, #0
    242e:	f04f 537e 	mov.w	r3, #1065353216	; 0x3f800000
    2432:	f503 03c0 	add.w	r3, r3, #6291456	; 0x600000
    2436:	f7fe fe87 	bl	1148 <makeLine>
		makeLine(3, 0);
    243a:	f04f 0000 	mov.w	r0, #0
    243e:	f04f 4180 	mov.w	r1, #1073741824	; 0x40000000
    2442:	f501 2100 	add.w	r1, r1, #524288	; 0x80000
    2446:	f04f 0200 	mov.w	r2, #0
    244a:	f04f 0300 	mov.w	r3, #0
    244e:	f7fe fe7b 	bl	1148 <makeLine>
		makeLine(0, 6);
    2452:	f04f 0000 	mov.w	r0, #0
    2456:	f04f 0100 	mov.w	r1, #0
    245a:	f04f 0200 	mov.w	r2, #0
    245e:	f04f 4380 	mov.w	r3, #1073741824	; 0x40000000
    2462:	f503 13c0 	add.w	r3, r3, #1572864	; 0x180000
    2466:	f7fe fe6f 	bl	1148 <makeLine>
		sendMessage(servoRetract, 1, 0x373A);
    246a:	f240 0008 	movw	r0, #8
    246e:	f2c2 0000 	movt	r0, #8192	; 0x2000
    2472:	f04f 0101 	mov.w	r1, #1
    2476:	f243 723a 	movw	r2, #14138	; 0x373a
    247a:	f7fe fa41 	bl	900 <sendMessage>
		makeLine(1, 7);
    247e:	f04f 0000 	mov.w	r0, #0
    2482:	f04f 517e 	mov.w	r1, #1065353216	; 0x3f800000
    2486:	f501 01e0 	add.w	r1, r1, #7340032	; 0x700000
    248a:	f04f 0200 	mov.w	r2, #0
    248e:	f04f 4380 	mov.w	r3, #1073741824	; 0x40000000
    2492:	f503 13e0 	add.w	r3, r3, #1835008	; 0x1c0000
    2496:	f7fe fe57 	bl	1148 <makeLine>
    249a:	f003 b98c 	b.w	57b6 <MAIN_STACK_SIZE+0x37b6>
	}
	else if(character == 'E') {
    249e:	79fb      	ldrb	r3, [r7, #7]
    24a0:	2b45      	cmp	r3, #69	; 0x45
    24a2:	d179      	bne.n	2598 <MAIN_STACK_SIZE+0x598>
		makeLine(4, -7);
    24a4:	f04f 0000 	mov.w	r0, #0
    24a8:	f04f 4180 	mov.w	r1, #1073741824	; 0x40000000
    24ac:	f501 1180 	add.w	r1, r1, #1048576	; 0x100000
    24b0:	f04f 0200 	mov.w	r2, #0
    24b4:	f04f 4340 	mov.w	r3, #3221225472	; 0xc0000000
    24b8:	f503 13e0 	add.w	r3, r3, #1835008	; 0x1c0000
    24bc:	f7fe fe44 	bl	1148 <makeLine>
		sendMessage(servoExtend, 1, 0x373A);
    24c0:	f240 000c 	movw	r0, #12
    24c4:	f2c2 0000 	movt	r0, #8192	; 0x2000
    24c8:	f04f 0101 	mov.w	r1, #1
    24cc:	f243 723a 	movw	r2, #14138	; 0x373a
    24d0:	f7fe fa16 	bl	900 <sendMessage>
		makeLine(-3, 0);
    24d4:	f04f 0000 	mov.w	r0, #0
    24d8:	f04f 4140 	mov.w	r1, #3221225472	; 0xc0000000
    24dc:	f501 2100 	add.w	r1, r1, #524288	; 0x80000
    24e0:	f04f 0200 	mov.w	r2, #0
    24e4:	f04f 0300 	mov.w	r3, #0
    24e8:	f7fe fe2e 	bl	1148 <makeLine>
		makeLine(0, 3);
    24ec:	f04f 0000 	mov.w	r0, #0
    24f0:	f04f 0100 	mov.w	r1, #0
    24f4:	f04f 0200 	mov.w	r2, #0
    24f8:	f04f 4380 	mov.w	r3, #1073741824	; 0x40000000
    24fc:	f503 2300 	add.w	r3, r3, #524288	; 0x80000
    2500:	f7fe fe22 	bl	1148 <makeLine>
		makeLine(3, 0);
    2504:	f04f 0000 	mov.w	r0, #0
    2508:	f04f 4180 	mov.w	r1, #1073741824	; 0x40000000
    250c:	f501 2100 	add.w	r1, r1, #524288	; 0x80000
    2510:	f04f 0200 	mov.w	r2, #0
    2514:	f04f 0300 	mov.w	r3, #0
    2518:	f7fe fe16 	bl	1148 <makeLine>
		makeLine(-3, 0);
    251c:	f04f 0000 	mov.w	r0, #0
    2520:	f04f 4140 	mov.w	r1, #3221225472	; 0xc0000000
    2524:	f501 2100 	add.w	r1, r1, #524288	; 0x80000
    2528:	f04f 0200 	mov.w	r2, #0
    252c:	f04f 0300 	mov.w	r3, #0
    2530:	f7fe fe0a 	bl	1148 <makeLine>
		makeLine(0, 3);
    2534:	f04f 0000 	mov.w	r0, #0
    2538:	f04f 0100 	mov.w	r1, #0
    253c:	f04f 0200 	mov.w	r2, #0
    2540:	f04f 4380 	mov.w	r3, #1073741824	; 0x40000000
    2544:	f503 2300 	add.w	r3, r3, #524288	; 0x80000
    2548:	f7fe fdfe 	bl	1148 <makeLine>
		makeLine(3, 0);
    254c:	f04f 0000 	mov.w	r0, #0
    2550:	f04f 4180 	mov.w	r1, #1073741824	; 0x40000000
    2554:	f501 2100 	add.w	r1, r1, #524288	; 0x80000
    2558:	f04f 0200 	mov.w	r2, #0
    255c:	f04f 0300 	mov.w	r3, #0
    2560:	f7fe fdf2 	bl	1148 <makeLine>
		sendMessage(servoRetract, 1, 0x373A);
    2564:	f240 0008 	movw	r0, #8
    2568:	f2c2 0000 	movt	r0, #8192	; 0x2000
    256c:	f04f 0101 	mov.w	r1, #1
    2570:	f243 723a 	movw	r2, #14138	; 0x373a
    2574:	f7fe f9c4 	bl	900 <sendMessage>
		makeLine(1, 1);
    2578:	f04f 0000 	mov.w	r0, #0
    257c:	f04f 517e 	mov.w	r1, #1065353216	; 0x3f800000
    2580:	f501 01e0 	add.w	r1, r1, #7340032	; 0x700000
    2584:	f04f 0200 	mov.w	r2, #0
    2588:	f04f 537e 	mov.w	r3, #1065353216	; 0x3f800000
    258c:	f503 03e0 	add.w	r3, r3, #7340032	; 0x700000
    2590:	f7fe fdda 	bl	1148 <makeLine>
    2594:	f003 b90f 	b.w	57b6 <MAIN_STACK_SIZE+0x37b6>
	}
	else if(character == 'F') {
    2598:	79fb      	ldrb	r3, [r7, #7]
    259a:	2b46      	cmp	r3, #70	; 0x46
    259c:	d16d      	bne.n	267a <MAIN_STACK_SIZE+0x67a>
		makeLine(4, -7);
    259e:	f04f 0000 	mov.w	r0, #0
    25a2:	f04f 4180 	mov.w	r1, #1073741824	; 0x40000000
    25a6:	f501 1180 	add.w	r1, r1, #1048576	; 0x100000
    25aa:	f04f 0200 	mov.w	r2, #0
    25ae:	f04f 4340 	mov.w	r3, #3221225472	; 0xc0000000
    25b2:	f503 13e0 	add.w	r3, r3, #1835008	; 0x1c0000
    25b6:	f7fe fdc7 	bl	1148 <makeLine>
		sendMessage(servoExtend, 1, 0x373A);
    25ba:	f240 000c 	movw	r0, #12
    25be:	f2c2 0000 	movt	r0, #8192	; 0x2000
    25c2:	f04f 0101 	mov.w	r1, #1
    25c6:	f243 723a 	movw	r2, #14138	; 0x373a
    25ca:	f7fe f999 	bl	900 <sendMessage>
		makeLine(-3, 0);
    25ce:	f04f 0000 	mov.w	r0, #0
    25d2:	f04f 4140 	mov.w	r1, #3221225472	; 0xc0000000
    25d6:	f501 2100 	add.w	r1, r1, #524288	; 0x80000
    25da:	f04f 0200 	mov.w	r2, #0
    25de:	f04f 0300 	mov.w	r3, #0
    25e2:	f7fe fdb1 	bl	1148 <makeLine>
		makeLine(0, 3);
    25e6:	f04f 0000 	mov.w	r0, #0
    25ea:	f04f 0100 	mov.w	r1, #0
    25ee:	f04f 0200 	mov.w	r2, #0
    25f2:	f04f 4380 	mov.w	r3, #1073741824	; 0x40000000
    25f6:	f503 2300 	add.w	r3, r3, #524288	; 0x80000
    25fa:	f7fe fda5 	bl	1148 <makeLine>
		makeLine(3, 0);
    25fe:	f04f 0000 	mov.w	r0, #0
    2602:	f04f 4180 	mov.w	r1, #1073741824	; 0x40000000
    2606:	f501 2100 	add.w	r1, r1, #524288	; 0x80000
    260a:	f04f 0200 	mov.w	r2, #0
    260e:	f04f 0300 	mov.w	r3, #0
    2612:	f7fe fd99 	bl	1148 <makeLine>
		makeLine(-3, 0);
    2616:	f04f 0000 	mov.w	r0, #0
    261a:	f04f 4140 	mov.w	r1, #3221225472	; 0xc0000000
    261e:	f501 2100 	add.w	r1, r1, #524288	; 0x80000
    2622:	f04f 0200 	mov.w	r2, #0
    2626:	f04f 0300 	mov.w	r3, #0
    262a:	f7fe fd8d 	bl	1148 <makeLine>
		makeLine(0, 3);
    262e:	f04f 0000 	mov.w	r0, #0
    2632:	f04f 0100 	mov.w	r1, #0
    2636:	f04f 0200 	mov.w	r2, #0
    263a:	f04f 4380 	mov.w	r3, #1073741824	; 0x40000000
    263e:	f503 2300 	add.w	r3, r3, #524288	; 0x80000
    2642:	f7fe fd81 	bl	1148 <makeLine>
		sendMessage(servoRetract, 1, 0x373A);
    2646:	f240 0008 	movw	r0, #8
    264a:	f2c2 0000 	movt	r0, #8192	; 0x2000
    264e:	f04f 0101 	mov.w	r1, #1
    2652:	f243 723a 	movw	r2, #14138	; 0x373a
    2656:	f7fe f953 	bl	900 <sendMessage>
		makeLine(1, 1);
    265a:	f04f 0000 	mov.w	r0, #0
    265e:	f04f 517e 	mov.w	r1, #1065353216	; 0x3f800000
    2662:	f501 01e0 	add.w	r1, r1, #7340032	; 0x700000
    2666:	f04f 0200 	mov.w	r2, #0
    266a:	f04f 537e 	mov.w	r3, #1065353216	; 0x3f800000
    266e:	f503 03e0 	add.w	r3, r3, #7340032	; 0x700000
    2672:	f7fe fd69 	bl	1148 <makeLine>
    2676:	f003 b89e 	b.w	57b6 <MAIN_STACK_SIZE+0x37b6>
	}
	else if(character == 'G') {
    267a:	79fb      	ldrb	r3, [r7, #7]
    267c:	2b47      	cmp	r3, #71	; 0x47
    267e:	d16b      	bne.n	2758 <MAIN_STACK_SIZE+0x758>
		makeLine(4, -7);
    2680:	f04f 0000 	mov.w	r0, #0
    2684:	f04f 4180 	mov.w	r1, #1073741824	; 0x40000000
    2688:	f501 1180 	add.w	r1, r1, #1048576	; 0x100000
    268c:	f04f 0200 	mov.w	r2, #0
    2690:	f04f 4340 	mov.w	r3, #3221225472	; 0xc0000000
    2694:	f503 13e0 	add.w	r3, r3, #1835008	; 0x1c0000
    2698:	f7fe fd56 	bl	1148 <makeLine>
		sendMessage(servoExtend, 1, 0x373A);
    269c:	f240 000c 	movw	r0, #12
    26a0:	f2c2 0000 	movt	r0, #8192	; 0x2000
    26a4:	f04f 0101 	mov.w	r1, #1
    26a8:	f243 723a 	movw	r2, #14138	; 0x373a
    26ac:	f7fe f928 	bl	900 <sendMessage>
		makeLine(-3, 0);
    26b0:	f04f 0000 	mov.w	r0, #0
    26b4:	f04f 4140 	mov.w	r1, #3221225472	; 0xc0000000
    26b8:	f501 2100 	add.w	r1, r1, #524288	; 0x80000
    26bc:	f04f 0200 	mov.w	r2, #0
    26c0:	f04f 0300 	mov.w	r3, #0
    26c4:	f7fe fd40 	bl	1148 <makeLine>
		makeLine(0, 6);
    26c8:	f04f 0000 	mov.w	r0, #0
    26cc:	f04f 0100 	mov.w	r1, #0
    26d0:	f04f 0200 	mov.w	r2, #0
    26d4:	f04f 4380 	mov.w	r3, #1073741824	; 0x40000000
    26d8:	f503 13c0 	add.w	r3, r3, #1572864	; 0x180000
    26dc:	f7fe fd34 	bl	1148 <makeLine>
		makeLine(3, 0);
    26e0:	f04f 0000 	mov.w	r0, #0
    26e4:	f04f 4180 	mov.w	r1, #1073741824	; 0x40000000
    26e8:	f501 2100 	add.w	r1, r1, #524288	; 0x80000
    26ec:	f04f 0200 	mov.w	r2, #0
    26f0:	f04f 0300 	mov.w	r3, #0
    26f4:	f7fe fd28 	bl	1148 <makeLine>
		makeLine(0, 3);
    26f8:	f04f 0000 	mov.w	r0, #0
    26fc:	f04f 0100 	mov.w	r1, #0
    2700:	f04f 0200 	mov.w	r2, #0
    2704:	f04f 4380 	mov.w	r3, #1073741824	; 0x40000000
    2708:	f503 2300 	add.w	r3, r3, #524288	; 0x80000
    270c:	f7fe fd1c 	bl	1148 <makeLine>
		makeLine(-2, 0);
    2710:	f04f 0000 	mov.w	r0, #0
    2714:	f04f 4140 	mov.w	r1, #3221225472	; 0xc0000000
    2718:	f04f 0200 	mov.w	r2, #0
    271c:	f04f 0300 	mov.w	r3, #0
    2720:	f7fe fd12 	bl	1148 <makeLine>
		sendMessage(servoRetract, 1, 0x373A);
    2724:	f240 0008 	movw	r0, #8
    2728:	f2c2 0000 	movt	r0, #8192	; 0x2000
    272c:	f04f 0101 	mov.w	r1, #1
    2730:	f243 723a 	movw	r2, #14138	; 0x373a
    2734:	f7fe f8e4 	bl	900 <sendMessage>
		makeLine(3, 4);
    2738:	f04f 0000 	mov.w	r0, #0
    273c:	f04f 4180 	mov.w	r1, #1073741824	; 0x40000000
    2740:	f501 2100 	add.w	r1, r1, #524288	; 0x80000
    2744:	f04f 0200 	mov.w	r2, #0
    2748:	f04f 4380 	mov.w	r3, #1073741824	; 0x40000000
    274c:	f503 1380 	add.w	r3, r3, #1048576	; 0x100000
    2750:	f7fe fcfa 	bl	1148 <makeLine>
    2754:	f003 b82f 	b.w	57b6 <MAIN_STACK_SIZE+0x37b6>
	}
	else if(character == 'H') {
    2758:	79fb      	ldrb	r3, [r7, #7]
    275a:	2b48      	cmp	r3, #72	; 0x48
    275c:	d16d      	bne.n	283a <MAIN_STACK_SIZE+0x83a>
		makeLine(1.0, -1.0);
    275e:	f04f 0000 	mov.w	r0, #0
    2762:	f04f 517e 	mov.w	r1, #1065353216	; 0x3f800000
    2766:	f501 01e0 	add.w	r1, r1, #7340032	; 0x700000
    276a:	f04f 0200 	mov.w	r2, #0
    276e:	f04f 433f 	mov.w	r3, #3204448256	; 0xbf000000
    2772:	f503 0370 	add.w	r3, r3, #15728640	; 0xf00000
    2776:	f7fe fce7 	bl	1148 <makeLine>
		sendMessage(servoExtend, 1, 0x373A);
    277a:	f240 000c 	movw	r0, #12
    277e:	f2c2 0000 	movt	r0, #8192	; 0x2000
    2782:	f04f 0101 	mov.w	r1, #1
    2786:	f243 723a 	movw	r2, #14138	; 0x373a
    278a:	f7fe f8b9 	bl	900 <sendMessage>
		makeLine(0, -6);
    278e:	f04f 0000 	mov.w	r0, #0
    2792:	f04f 0100 	mov.w	r1, #0
    2796:	f04f 0200 	mov.w	r2, #0
    279a:	f04f 4340 	mov.w	r3, #3221225472	; 0xc0000000
    279e:	f503 13c0 	add.w	r3, r3, #1572864	; 0x180000
    27a2:	f7fe fcd1 	bl	1148 <makeLine>
		makeLine(0, 3);
    27a6:	f04f 0000 	mov.w	r0, #0
    27aa:	f04f 0100 	mov.w	r1, #0
    27ae:	f04f 0200 	mov.w	r2, #0
    27b2:	f04f 4380 	mov.w	r3, #1073741824	; 0x40000000
    27b6:	f503 2300 	add.w	r3, r3, #524288	; 0x80000
    27ba:	f7fe fcc5 	bl	1148 <makeLine>
		makeLine(-3, 0);
    27be:	f04f 0000 	mov.w	r0, #0
    27c2:	f04f 4140 	mov.w	r1, #3221225472	; 0xc0000000
    27c6:	f501 2100 	add.w	r1, r1, #524288	; 0x80000
    27ca:	f04f 0200 	mov.w	r2, #0
    27ce:	f04f 0300 	mov.w	r3, #0
    27d2:	f7fe fcb9 	bl	1148 <makeLine>
		makeLine(0, -3);
    27d6:	f04f 0000 	mov.w	r0, #0
    27da:	f04f 0100 	mov.w	r1, #0
    27de:	f04f 0200 	mov.w	r2, #0
    27e2:	f04f 4340 	mov.w	r3, #3221225472	; 0xc0000000
    27e6:	f503 2300 	add.w	r3, r3, #524288	; 0x80000
    27ea:	f7fe fcad 	bl	1148 <makeLine>
		makeLine(0, 6);
    27ee:	f04f 0000 	mov.w	r0, #0
    27f2:	f04f 0100 	mov.w	r1, #0
    27f6:	f04f 0200 	mov.w	r2, #0
    27fa:	f04f 4380 	mov.w	r3, #1073741824	; 0x40000000
    27fe:	f503 13c0 	add.w	r3, r3, #1572864	; 0x180000
    2802:	f7fe fca1 	bl	1148 <makeLine>
		sendMessage(servoRetract, 1, 0x373A);
    2806:	f240 0008 	movw	r0, #8
    280a:	f2c2 0000 	movt	r0, #8192	; 0x2000
    280e:	f04f 0101 	mov.w	r1, #1
    2812:	f243 723a 	movw	r2, #14138	; 0x373a
    2816:	f7fe f873 	bl	900 <sendMessage>
		makeLine(1, 1);
    281a:	f04f 0000 	mov.w	r0, #0
    281e:	f04f 517e 	mov.w	r1, #1065353216	; 0x3f800000
    2822:	f501 01e0 	add.w	r1, r1, #7340032	; 0x700000
    2826:	f04f 0200 	mov.w	r2, #0
    282a:	f04f 537e 	mov.w	r3, #1065353216	; 0x3f800000
    282e:	f503 03e0 	add.w	r3, r3, #7340032	; 0x700000
    2832:	f7fe fc89 	bl	1148 <makeLine>
    2836:	f002 bfbe 	b.w	57b6 <MAIN_STACK_SIZE+0x37b6>
	}
	else if(character == 'I') {
    283a:	79fb      	ldrb	r3, [r7, #7]
    283c:	2b49      	cmp	r3, #73	; 0x49
    283e:	d16d      	bne.n	291c <MAIN_STACK_SIZE+0x91c>
		makeLine(1.0, -1.0);
    2840:	f04f 0000 	mov.w	r0, #0
    2844:	f04f 517e 	mov.w	r1, #1065353216	; 0x3f800000
    2848:	f501 01e0 	add.w	r1, r1, #7340032	; 0x700000
    284c:	f04f 0200 	mov.w	r2, #0
    2850:	f04f 433f 	mov.w	r3, #3204448256	; 0xbf000000
    2854:	f503 0370 	add.w	r3, r3, #15728640	; 0xf00000
    2858:	f7fe fc76 	bl	1148 <makeLine>
		sendMessage(servoExtend, 1, 0x373A);
    285c:	f240 000c 	movw	r0, #12
    2860:	f2c2 0000 	movt	r0, #8192	; 0x2000
    2864:	f04f 0101 	mov.w	r1, #1
    2868:	f243 723a 	movw	r2, #14138	; 0x373a
    286c:	f7fe f848 	bl	900 <sendMessage>
		makeLine(3, 0);
    2870:	f04f 0000 	mov.w	r0, #0
    2874:	f04f 4180 	mov.w	r1, #1073741824	; 0x40000000
    2878:	f501 2100 	add.w	r1, r1, #524288	; 0x80000
    287c:	f04f 0200 	mov.w	r2, #0
    2880:	f04f 0300 	mov.w	r3, #0
    2884:	f7fe fc60 	bl	1148 <makeLine>
		makeLine(-1.5, 0);
    2888:	f04f 0000 	mov.w	r0, #0
    288c:	f04f 413f 	mov.w	r1, #3204448256	; 0xbf000000
    2890:	f501 0178 	add.w	r1, r1, #16252928	; 0xf80000
    2894:	f04f 0200 	mov.w	r2, #0
    2898:	f04f 0300 	mov.w	r3, #0
    289c:	f7fe fc54 	bl	1148 <makeLine>
		makeLine(0, -6);
    28a0:	f04f 0000 	mov.w	r0, #0
    28a4:	f04f 0100 	mov.w	r1, #0
    28a8:	f04f 0200 	mov.w	r2, #0
    28ac:	f04f 4340 	mov.w	r3, #3221225472	; 0xc0000000
    28b0:	f503 13c0 	add.w	r3, r3, #1572864	; 0x180000
    28b4:	f7fe fc48 	bl	1148 <makeLine>
		makeLine(-1.5, 0);
    28b8:	f04f 0000 	mov.w	r0, #0
    28bc:	f04f 413f 	mov.w	r1, #3204448256	; 0xbf000000
    28c0:	f501 0178 	add.w	r1, r1, #16252928	; 0xf80000
    28c4:	f04f 0200 	mov.w	r2, #0
    28c8:	f04f 0300 	mov.w	r3, #0
    28cc:	f7fe fc3c 	bl	1148 <makeLine>
		makeLine(3, 0);
    28d0:	f04f 0000 	mov.w	r0, #0
    28d4:	f04f 4180 	mov.w	r1, #1073741824	; 0x40000000
    28d8:	f501 2100 	add.w	r1, r1, #524288	; 0x80000
    28dc:	f04f 0200 	mov.w	r2, #0
    28e0:	f04f 0300 	mov.w	r3, #0
    28e4:	f7fe fc30 	bl	1148 <makeLine>
		sendMessage(servoRetract, 1, 0x373A);
    28e8:	f240 0008 	movw	r0, #8
    28ec:	f2c2 0000 	movt	r0, #8192	; 0x2000
    28f0:	f04f 0101 	mov.w	r1, #1
    28f4:	f243 723a 	movw	r2, #14138	; 0x373a
    28f8:	f7fe f802 	bl	900 <sendMessage>
		makeLine(1, 7);
    28fc:	f04f 0000 	mov.w	r0, #0
    2900:	f04f 517e 	mov.w	r1, #1065353216	; 0x3f800000
    2904:	f501 01e0 	add.w	r1, r1, #7340032	; 0x700000
    2908:	f04f 0200 	mov.w	r2, #0
    290c:	f04f 4380 	mov.w	r3, #1073741824	; 0x40000000
    2910:	f503 13e0 	add.w	r3, r3, #1835008	; 0x1c0000
    2914:	f7fe fc18 	bl	1148 <makeLine>
    2918:	f002 bf4d 	b.w	57b6 <MAIN_STACK_SIZE+0x37b6>
	}
	else if(character == 'J') {
    291c:	79fb      	ldrb	r3, [r7, #7]
    291e:	2b4a      	cmp	r3, #74	; 0x4a
    2920:	d16d      	bne.n	29fe <MAIN_STACK_SIZE+0x9fe>
		makeLine(4, -7);
    2922:	f04f 0000 	mov.w	r0, #0
    2926:	f04f 4180 	mov.w	r1, #1073741824	; 0x40000000
    292a:	f501 1180 	add.w	r1, r1, #1048576	; 0x100000
    292e:	f04f 0200 	mov.w	r2, #0
    2932:	f04f 4340 	mov.w	r3, #3221225472	; 0xc0000000
    2936:	f503 13e0 	add.w	r3, r3, #1835008	; 0x1c0000
    293a:	f7fe fc05 	bl	1148 <makeLine>
		sendMessage(servoExtend, 1, 0x373A);
    293e:	f240 000c 	movw	r0, #12
    2942:	f2c2 0000 	movt	r0, #8192	; 0x2000
    2946:	f04f 0101 	mov.w	r1, #1
    294a:	f243 723a 	movw	r2, #14138	; 0x373a
    294e:	f7fd ffd7 	bl	900 <sendMessage>
		makeLine(-3, 0);
    2952:	f04f 0000 	mov.w	r0, #0
    2956:	f04f 4140 	mov.w	r1, #3221225472	; 0xc0000000
    295a:	f501 2100 	add.w	r1, r1, #524288	; 0x80000
    295e:	f04f 0200 	mov.w	r2, #0
    2962:	f04f 0300 	mov.w	r3, #0
    2966:	f7fe fbef 	bl	1148 <makeLine>
		makeLine(-1.5, 0);
    296a:	f04f 0000 	mov.w	r0, #0
    296e:	f04f 413f 	mov.w	r1, #3204448256	; 0xbf000000
    2972:	f501 0178 	add.w	r1, r1, #16252928	; 0xf80000
    2976:	f04f 0200 	mov.w	r2, #0
    297a:	f04f 0300 	mov.w	r3, #0
    297e:	f7fe fbe3 	bl	1148 <makeLine>
		makeLine(0, 6);
    2982:	f04f 0000 	mov.w	r0, #0
    2986:	f04f 0100 	mov.w	r1, #0
    298a:	f04f 0200 	mov.w	r2, #0
    298e:	f04f 4380 	mov.w	r3, #1073741824	; 0x40000000
    2992:	f503 13c0 	add.w	r3, r3, #1572864	; 0x180000
    2996:	f7fe fbd7 	bl	1148 <makeLine>
		makeLine(-1.5, 0);
    299a:	f04f 0000 	mov.w	r0, #0
    299e:	f04f 413f 	mov.w	r1, #3204448256	; 0xbf000000
    29a2:	f501 0178 	add.w	r1, r1, #16252928	; 0xf80000
    29a6:	f04f 0200 	mov.w	r2, #0
    29aa:	f04f 0300 	mov.w	r3, #0
    29ae:	f7fe fbcb 	bl	1148 <makeLine>
		makeLine(0, 3);
    29b2:	f04f 0000 	mov.w	r0, #0
    29b6:	f04f 0100 	mov.w	r1, #0
    29ba:	f04f 0200 	mov.w	r2, #0
    29be:	f04f 4380 	mov.w	r3, #1073741824	; 0x40000000
    29c2:	f503 2300 	add.w	r3, r3, #524288	; 0x80000
    29c6:	f7fe fbbf 	bl	1148 <makeLine>
		sendMessage(servoRetract, 1, 0x373A);
    29ca:	f240 0008 	movw	r0, #8
    29ce:	f2c2 0000 	movt	r0, #8192	; 0x2000
    29d2:	f04f 0101 	mov.w	r1, #1
    29d6:	f243 723a 	movw	r2, #14138	; 0x373a
    29da:	f7fd ff91 	bl	900 <sendMessage>
		makeLine(4, 4);
    29de:	f04f 0000 	mov.w	r0, #0
    29e2:	f04f 4180 	mov.w	r1, #1073741824	; 0x40000000
    29e6:	f501 1180 	add.w	r1, r1, #1048576	; 0x100000
    29ea:	f04f 0200 	mov.w	r2, #0
    29ee:	f04f 4380 	mov.w	r3, #1073741824	; 0x40000000
    29f2:	f503 1380 	add.w	r3, r3, #1048576	; 0x100000
    29f6:	f7fe fba7 	bl	1148 <makeLine>
    29fa:	f002 bedc 	b.w	57b6 <MAIN_STACK_SIZE+0x37b6>
	}
	else if(character == 'K') {
    29fe:	79fb      	ldrb	r3, [r7, #7]
    2a00:	2b4b      	cmp	r3, #75	; 0x4b
    2a02:	f040 8082 	bne.w	2b0a <MAIN_STACK_SIZE+0xb0a>
		makeLine(1.0, -1.0);
    2a06:	f04f 0000 	mov.w	r0, #0
    2a0a:	f04f 517e 	mov.w	r1, #1065353216	; 0x3f800000
    2a0e:	f501 01e0 	add.w	r1, r1, #7340032	; 0x700000
    2a12:	f04f 0200 	mov.w	r2, #0
    2a16:	f04f 433f 	mov.w	r3, #3204448256	; 0xbf000000
    2a1a:	f503 0370 	add.w	r3, r3, #15728640	; 0xf00000
    2a1e:	f7fe fb93 	bl	1148 <makeLine>
		sendMessage(servoExtend, 1, 0x373A);
    2a22:	f240 000c 	movw	r0, #12
    2a26:	f2c2 0000 	movt	r0, #8192	; 0x2000
    2a2a:	f04f 0101 	mov.w	r1, #1
    2a2e:	f243 723a 	movw	r2, #14138	; 0x373a
    2a32:	f7fd ff65 	bl	900 <sendMessage>
		makeLine(0, -6);
    2a36:	f04f 0000 	mov.w	r0, #0
    2a3a:	f04f 0100 	mov.w	r1, #0
    2a3e:	f04f 0200 	mov.w	r2, #0
    2a42:	f04f 4340 	mov.w	r3, #3221225472	; 0xc0000000
    2a46:	f503 13c0 	add.w	r3, r3, #1572864	; 0x180000
    2a4a:	f7fe fb7d 	bl	1148 <makeLine>
		makeLine(0, 3);
    2a4e:	f04f 0000 	mov.w	r0, #0
    2a52:	f04f 0100 	mov.w	r1, #0
    2a56:	f04f 0200 	mov.w	r2, #0
    2a5a:	f04f 4380 	mov.w	r3, #1073741824	; 0x40000000
    2a5e:	f503 2300 	add.w	r3, r3, #524288	; 0x80000
    2a62:	f7fe fb71 	bl	1148 <makeLine>
		makeLine(3, -3);
    2a66:	f04f 0000 	mov.w	r0, #0
    2a6a:	f04f 4180 	mov.w	r1, #1073741824	; 0x40000000
    2a6e:	f501 2100 	add.w	r1, r1, #524288	; 0x80000
    2a72:	f04f 0200 	mov.w	r2, #0
    2a76:	f04f 4340 	mov.w	r3, #3221225472	; 0xc0000000
    2a7a:	f503 2300 	add.w	r3, r3, #524288	; 0x80000
    2a7e:	f7fe fb63 	bl	1148 <makeLine>
		makeLine(-3, 3);
    2a82:	f04f 0000 	mov.w	r0, #0
    2a86:	f04f 4140 	mov.w	r1, #3221225472	; 0xc0000000
    2a8a:	f501 2100 	add.w	r1, r1, #524288	; 0x80000
    2a8e:	f04f 0200 	mov.w	r2, #0
    2a92:	f04f 4380 	mov.w	r3, #1073741824	; 0x40000000
    2a96:	f503 2300 	add.w	r3, r3, #524288	; 0x80000
    2a9a:	f7fe fb55 	bl	1148 <makeLine>
		makeLine(3, 3);
    2a9e:	f04f 0000 	mov.w	r0, #0
    2aa2:	f04f 4180 	mov.w	r1, #1073741824	; 0x40000000
    2aa6:	f501 2100 	add.w	r1, r1, #524288	; 0x80000
    2aaa:	f04f 0200 	mov.w	r2, #0
    2aae:	f04f 4380 	mov.w	r3, #1073741824	; 0x40000000
    2ab2:	f503 2300 	add.w	r3, r3, #524288	; 0x80000
    2ab6:	f7fe fb47 	bl	1148 <makeLine>
		makeLine(-3, -3);
    2aba:	f04f 0000 	mov.w	r0, #0
    2abe:	f04f 4140 	mov.w	r1, #3221225472	; 0xc0000000
    2ac2:	f501 2100 	add.w	r1, r1, #524288	; 0x80000
    2ac6:	f04f 0200 	mov.w	r2, #0
    2aca:	f04f 4340 	mov.w	r3, #3221225472	; 0xc0000000
    2ace:	f503 2300 	add.w	r3, r3, #524288	; 0x80000
    2ad2:	f7fe fb39 	bl	1148 <makeLine>
		sendMessage(servoRetract, 1, 0x373A);
    2ad6:	f240 0008 	movw	r0, #8
    2ada:	f2c2 0000 	movt	r0, #8192	; 0x2000
    2ade:	f04f 0101 	mov.w	r1, #1
    2ae2:	f243 723a 	movw	r2, #14138	; 0x373a
    2ae6:	f7fd ff0b 	bl	900 <sendMessage>
		makeLine(4, 4);
    2aea:	f04f 0000 	mov.w	r0, #0
    2aee:	f04f 4180 	mov.w	r1, #1073741824	; 0x40000000
    2af2:	f501 1180 	add.w	r1, r1, #1048576	; 0x100000
    2af6:	f04f 0200 	mov.w	r2, #0
    2afa:	f04f 4380 	mov.w	r3, #1073741824	; 0x40000000
    2afe:	f503 1380 	add.w	r3, r3, #1048576	; 0x100000
    2b02:	f7fe fb21 	bl	1148 <makeLine>
    2b06:	f002 be56 	b.w	57b6 <MAIN_STACK_SIZE+0x37b6>
	}
	else if(character == 'L') {
    2b0a:	79fb      	ldrb	r3, [r7, #7]
    2b0c:	2b4c      	cmp	r3, #76	; 0x4c
    2b0e:	d149      	bne.n	2ba4 <MAIN_STACK_SIZE+0xba4>
		makeLine(1.0, -7);
    2b10:	f04f 0000 	mov.w	r0, #0
    2b14:	f04f 517e 	mov.w	r1, #1065353216	; 0x3f800000
    2b18:	f501 01e0 	add.w	r1, r1, #7340032	; 0x700000
    2b1c:	f04f 0200 	mov.w	r2, #0
    2b20:	f04f 4340 	mov.w	r3, #3221225472	; 0xc0000000
    2b24:	f503 13e0 	add.w	r3, r3, #1835008	; 0x1c0000
    2b28:	f7fe fb0e 	bl	1148 <makeLine>
		sendMessage(servoExtend, 1, 0x373A);
    2b2c:	f240 000c 	movw	r0, #12
    2b30:	f2c2 0000 	movt	r0, #8192	; 0x2000
    2b34:	f04f 0101 	mov.w	r1, #1
    2b38:	f243 723a 	movw	r2, #14138	; 0x373a
    2b3c:	f7fd fee0 	bl	900 <sendMessage>
		makeLine(0, 6);
    2b40:	f04f 0000 	mov.w	r0, #0
    2b44:	f04f 0100 	mov.w	r1, #0
    2b48:	f04f 0200 	mov.w	r2, #0
    2b4c:	f04f 4380 	mov.w	r3, #1073741824	; 0x40000000
    2b50:	f503 13c0 	add.w	r3, r3, #1572864	; 0x180000
    2b54:	f7fe faf8 	bl	1148 <makeLine>
		makeLine(3, 0);
    2b58:	f04f 0000 	mov.w	r0, #0
    2b5c:	f04f 4180 	mov.w	r1, #1073741824	; 0x40000000
    2b60:	f501 2100 	add.w	r1, r1, #524288	; 0x80000
    2b64:	f04f 0200 	mov.w	r2, #0
    2b68:	f04f 0300 	mov.w	r3, #0
    2b6c:	f7fe faec 	bl	1148 <makeLine>
		sendMessage(servoRetract, 1, 0x373A);
    2b70:	f240 0008 	movw	r0, #8
    2b74:	f2c2 0000 	movt	r0, #8192	; 0x2000
    2b78:	f04f 0101 	mov.w	r1, #1
    2b7c:	f243 723a 	movw	r2, #14138	; 0x373a
    2b80:	f7fd febe 	bl	900 <sendMessage>
		makeLine(1, 1);
    2b84:	f04f 0000 	mov.w	r0, #0
    2b88:	f04f 517e 	mov.w	r1, #1065353216	; 0x3f800000
    2b8c:	f501 01e0 	add.w	r1, r1, #7340032	; 0x700000
    2b90:	f04f 0200 	mov.w	r2, #0
    2b94:	f04f 537e 	mov.w	r3, #1065353216	; 0x3f800000
    2b98:	f503 03e0 	add.w	r3, r3, #7340032	; 0x700000
    2b9c:	f7fe fad4 	bl	1148 <makeLine>
    2ba0:	f002 be09 	b.w	57b6 <MAIN_STACK_SIZE+0x37b6>
	}
	else if(character == 'M') {
    2ba4:	79fb      	ldrb	r3, [r7, #7]
    2ba6:	2b4d      	cmp	r3, #77	; 0x4d
    2ba8:	d165      	bne.n	2c76 <MAIN_STACK_SIZE+0xc76>
		makeLine(1.0, -1);
    2baa:	f04f 0000 	mov.w	r0, #0
    2bae:	f04f 517e 	mov.w	r1, #1065353216	; 0x3f800000
    2bb2:	f501 01e0 	add.w	r1, r1, #7340032	; 0x700000
    2bb6:	f04f 0200 	mov.w	r2, #0
    2bba:	f04f 433f 	mov.w	r3, #3204448256	; 0xbf000000
    2bbe:	f503 0370 	add.w	r3, r3, #15728640	; 0xf00000
    2bc2:	f7fe fac1 	bl	1148 <makeLine>
		sendMessage(servoExtend, 1, 0x373A);
    2bc6:	f240 000c 	movw	r0, #12
    2bca:	f2c2 0000 	movt	r0, #8192	; 0x2000
    2bce:	f04f 0101 	mov.w	r1, #1
    2bd2:	f243 723a 	movw	r2, #14138	; 0x373a
    2bd6:	f7fd fe93 	bl	900 <sendMessage>
		makeLine(0, -6);
    2bda:	f04f 0000 	mov.w	r0, #0
    2bde:	f04f 0100 	mov.w	r1, #0
    2be2:	f04f 0200 	mov.w	r2, #0
    2be6:	f04f 4340 	mov.w	r3, #3221225472	; 0xc0000000
    2bea:	f503 13c0 	add.w	r3, r3, #1572864	; 0x180000
    2bee:	f7fe faab 	bl	1148 <makeLine>
		makeLine(1.5, 6);
    2bf2:	f04f 0000 	mov.w	r0, #0
    2bf6:	f04f 517e 	mov.w	r1, #1065353216	; 0x3f800000
    2bfa:	f501 01f0 	add.w	r1, r1, #7864320	; 0x780000
    2bfe:	f04f 0200 	mov.w	r2, #0
    2c02:	f04f 4380 	mov.w	r3, #1073741824	; 0x40000000
    2c06:	f503 13c0 	add.w	r3, r3, #1572864	; 0x180000
    2c0a:	f7fe fa9d 	bl	1148 <makeLine>
		makeLine(1.5, -6);
    2c0e:	f04f 0000 	mov.w	r0, #0
    2c12:	f04f 517e 	mov.w	r1, #1065353216	; 0x3f800000
    2c16:	f501 01f0 	add.w	r1, r1, #7864320	; 0x780000
    2c1a:	f04f 0200 	mov.w	r2, #0
    2c1e:	f04f 4340 	mov.w	r3, #3221225472	; 0xc0000000
    2c22:	f503 13c0 	add.w	r3, r3, #1572864	; 0x180000
    2c26:	f7fe fa8f 	bl	1148 <makeLine>
		makeLine(0, 6);
    2c2a:	f04f 0000 	mov.w	r0, #0
    2c2e:	f04f 0100 	mov.w	r1, #0
    2c32:	f04f 0200 	mov.w	r2, #0
    2c36:	f04f 4380 	mov.w	r3, #1073741824	; 0x40000000
    2c3a:	f503 13c0 	add.w	r3, r3, #1572864	; 0x180000
    2c3e:	f7fe fa83 	bl	1148 <makeLine>
		sendMessage(servoRetract, 1, 0x373A);
    2c42:	f240 0008 	movw	r0, #8
    2c46:	f2c2 0000 	movt	r0, #8192	; 0x2000
    2c4a:	f04f 0101 	mov.w	r1, #1
    2c4e:	f243 723a 	movw	r2, #14138	; 0x373a
    2c52:	f7fd fe55 	bl	900 <sendMessage>
		makeLine(1, 1);
    2c56:	f04f 0000 	mov.w	r0, #0
    2c5a:	f04f 517e 	mov.w	r1, #1065353216	; 0x3f800000
    2c5e:	f501 01e0 	add.w	r1, r1, #7340032	; 0x700000
    2c62:	f04f 0200 	mov.w	r2, #0
    2c66:	f04f 537e 	mov.w	r3, #1065353216	; 0x3f800000
    2c6a:	f503 03e0 	add.w	r3, r3, #7340032	; 0x700000
    2c6e:	f7fe fa6b 	bl	1148 <makeLine>
    2c72:	f002 bda0 	b.w	57b6 <MAIN_STACK_SIZE+0x37b6>
	}
	else if(character == 'N') {
    2c76:	79fb      	ldrb	r3, [r7, #7]
    2c78:	2b4e      	cmp	r3, #78	; 0x4e
    2c7a:	d157      	bne.n	2d2c <MAIN_STACK_SIZE+0xd2c>
		makeLine(1.0, -1);
    2c7c:	f04f 0000 	mov.w	r0, #0
    2c80:	f04f 517e 	mov.w	r1, #1065353216	; 0x3f800000
    2c84:	f501 01e0 	add.w	r1, r1, #7340032	; 0x700000
    2c88:	f04f 0200 	mov.w	r2, #0
    2c8c:	f04f 433f 	mov.w	r3, #3204448256	; 0xbf000000
    2c90:	f503 0370 	add.w	r3, r3, #15728640	; 0xf00000
    2c94:	f7fe fa58 	bl	1148 <makeLine>
		sendMessage(servoExtend, 1, 0x373A);
    2c98:	f240 000c 	movw	r0, #12
    2c9c:	f2c2 0000 	movt	r0, #8192	; 0x2000
    2ca0:	f04f 0101 	mov.w	r1, #1
    2ca4:	f243 723a 	movw	r2, #14138	; 0x373a
    2ca8:	f7fd fe2a 	bl	900 <sendMessage>
		makeLine(0, -6);
    2cac:	f04f 0000 	mov.w	r0, #0
    2cb0:	f04f 0100 	mov.w	r1, #0
    2cb4:	f04f 0200 	mov.w	r2, #0
    2cb8:	f04f 4340 	mov.w	r3, #3221225472	; 0xc0000000
    2cbc:	f503 13c0 	add.w	r3, r3, #1572864	; 0x180000
    2cc0:	f7fe fa42 	bl	1148 <makeLine>
		makeLine(3, 6);
    2cc4:	f04f 0000 	mov.w	r0, #0
    2cc8:	f04f 4180 	mov.w	r1, #1073741824	; 0x40000000
    2ccc:	f501 2100 	add.w	r1, r1, #524288	; 0x80000
    2cd0:	f04f 0200 	mov.w	r2, #0
    2cd4:	f04f 4380 	mov.w	r3, #1073741824	; 0x40000000
    2cd8:	f503 13c0 	add.w	r3, r3, #1572864	; 0x180000
    2cdc:	f7fe fa34 	bl	1148 <makeLine>
		makeLine(0, -6);
    2ce0:	f04f 0000 	mov.w	r0, #0
    2ce4:	f04f 0100 	mov.w	r1, #0
    2ce8:	f04f 0200 	mov.w	r2, #0
    2cec:	f04f 4340 	mov.w	r3, #3221225472	; 0xc0000000
    2cf0:	f503 13c0 	add.w	r3, r3, #1572864	; 0x180000
    2cf4:	f7fe fa28 	bl	1148 <makeLine>
		sendMessage(servoRetract, 1, 0x373A);
    2cf8:	f240 0008 	movw	r0, #8
    2cfc:	f2c2 0000 	movt	r0, #8192	; 0x2000
    2d00:	f04f 0101 	mov.w	r1, #1
    2d04:	f243 723a 	movw	r2, #14138	; 0x373a
    2d08:	f7fd fdfa 	bl	900 <sendMessage>
		makeLine(1, 1);
    2d0c:	f04f 0000 	mov.w	r0, #0
    2d10:	f04f 517e 	mov.w	r1, #1065353216	; 0x3f800000
    2d14:	f501 01e0 	add.w	r1, r1, #7340032	; 0x700000
    2d18:	f04f 0200 	mov.w	r2, #0
    2d1c:	f04f 537e 	mov.w	r3, #1065353216	; 0x3f800000
    2d20:	f503 03e0 	add.w	r3, r3, #7340032	; 0x700000
    2d24:	f7fe fa10 	bl	1148 <makeLine>
    2d28:	f002 bd45 	b.w	57b6 <MAIN_STACK_SIZE+0x37b6>
	}
	else if(character == 'O') {
    2d2c:	79fb      	ldrb	r3, [r7, #7]
    2d2e:	2b4f      	cmp	r3, #79	; 0x4f
    2d30:	d161      	bne.n	2df6 <MAIN_STACK_SIZE+0xdf6>
		makeLine(4, -1.0);
    2d32:	f04f 0000 	mov.w	r0, #0
    2d36:	f04f 4180 	mov.w	r1, #1073741824	; 0x40000000
    2d3a:	f501 1180 	add.w	r1, r1, #1048576	; 0x100000
    2d3e:	f04f 0200 	mov.w	r2, #0
    2d42:	f04f 433f 	mov.w	r3, #3204448256	; 0xbf000000
    2d46:	f503 0370 	add.w	r3, r3, #15728640	; 0xf00000
    2d4a:	f7fe f9fd 	bl	1148 <makeLine>
		sendMessage(servoExtend, 1, 0x373A);
    2d4e:	f240 000c 	movw	r0, #12
    2d52:	f2c2 0000 	movt	r0, #8192	; 0x2000
    2d56:	f04f 0101 	mov.w	r1, #1
    2d5a:	f243 723a 	movw	r2, #14138	; 0x373a
    2d5e:	f7fd fdcf 	bl	900 <sendMessage>
		makeLine(-3, 0);
    2d62:	f04f 0000 	mov.w	r0, #0
    2d66:	f04f 4140 	mov.w	r1, #3221225472	; 0xc0000000
    2d6a:	f501 2100 	add.w	r1, r1, #524288	; 0x80000
    2d6e:	f04f 0200 	mov.w	r2, #0
    2d72:	f04f 0300 	mov.w	r3, #0
    2d76:	f7fe f9e7 	bl	1148 <makeLine>
		makeLine(0, -6);
    2d7a:	f04f 0000 	mov.w	r0, #0
    2d7e:	f04f 0100 	mov.w	r1, #0
    2d82:	f04f 0200 	mov.w	r2, #0
    2d86:	f04f 4340 	mov.w	r3, #3221225472	; 0xc0000000
    2d8a:	f503 13c0 	add.w	r3, r3, #1572864	; 0x180000
    2d8e:	f7fe f9db 	bl	1148 <makeLine>
		makeLine(3, 0);
    2d92:	f04f 0000 	mov.w	r0, #0
    2d96:	f04f 4180 	mov.w	r1, #1073741824	; 0x40000000
    2d9a:	f501 2100 	add.w	r1, r1, #524288	; 0x80000
    2d9e:	f04f 0200 	mov.w	r2, #0
    2da2:	f04f 0300 	mov.w	r3, #0
    2da6:	f7fe f9cf 	bl	1148 <makeLine>
		makeLine(0, 6);
    2daa:	f04f 0000 	mov.w	r0, #0
    2dae:	f04f 0100 	mov.w	r1, #0
    2db2:	f04f 0200 	mov.w	r2, #0
    2db6:	f04f 4380 	mov.w	r3, #1073741824	; 0x40000000
    2dba:	f503 13c0 	add.w	r3, r3, #1572864	; 0x180000
    2dbe:	f7fe f9c3 	bl	1148 <makeLine>
		sendMessage(servoRetract, 1, 0x373A);
    2dc2:	f240 0008 	movw	r0, #8
    2dc6:	f2c2 0000 	movt	r0, #8192	; 0x2000
    2dca:	f04f 0101 	mov.w	r1, #1
    2dce:	f243 723a 	movw	r2, #14138	; 0x373a
    2dd2:	f7fd fd95 	bl	900 <sendMessage>
		makeLine(1, 1);
    2dd6:	f04f 0000 	mov.w	r0, #0
    2dda:	f04f 517e 	mov.w	r1, #1065353216	; 0x3f800000
    2dde:	f501 01e0 	add.w	r1, r1, #7340032	; 0x700000
    2de2:	f04f 0200 	mov.w	r2, #0
    2de6:	f04f 537e 	mov.w	r3, #1065353216	; 0x3f800000
    2dea:	f503 03e0 	add.w	r3, r3, #7340032	; 0x700000
    2dee:	f7fe f9ab 	bl	1148 <makeLine>
    2df2:	f002 bce0 	b.w	57b6 <MAIN_STACK_SIZE+0x37b6>
	}
	else if(character == 'P') {
    2df6:	79fb      	ldrb	r3, [r7, #7]
    2df8:	2b50      	cmp	r3, #80	; 0x50
    2dfa:	d161      	bne.n	2ec0 <MAIN_STACK_SIZE+0xec0>
		makeLine(1, -1.0);
    2dfc:	f04f 0000 	mov.w	r0, #0
    2e00:	f04f 517e 	mov.w	r1, #1065353216	; 0x3f800000
    2e04:	f501 01e0 	add.w	r1, r1, #7340032	; 0x700000
    2e08:	f04f 0200 	mov.w	r2, #0
    2e0c:	f04f 433f 	mov.w	r3, #3204448256	; 0xbf000000
    2e10:	f503 0370 	add.w	r3, r3, #15728640	; 0xf00000
    2e14:	f7fe f998 	bl	1148 <makeLine>
		sendMessage(servoExtend, 1, 0x373A);
    2e18:	f240 000c 	movw	r0, #12
    2e1c:	f2c2 0000 	movt	r0, #8192	; 0x2000
    2e20:	f04f 0101 	mov.w	r1, #1
    2e24:	f243 723a 	movw	r2, #14138	; 0x373a
    2e28:	f7fd fd6a 	bl	900 <sendMessage>
		makeLine(0, -6);
    2e2c:	f04f 0000 	mov.w	r0, #0
    2e30:	f04f 0100 	mov.w	r1, #0
    2e34:	f04f 0200 	mov.w	r2, #0
    2e38:	f04f 4340 	mov.w	r3, #3221225472	; 0xc0000000
    2e3c:	f503 13c0 	add.w	r3, r3, #1572864	; 0x180000
    2e40:	f7fe f982 	bl	1148 <makeLine>
		makeLine(3, 0);
    2e44:	f04f 0000 	mov.w	r0, #0
    2e48:	f04f 4180 	mov.w	r1, #1073741824	; 0x40000000
    2e4c:	f501 2100 	add.w	r1, r1, #524288	; 0x80000
    2e50:	f04f 0200 	mov.w	r2, #0
    2e54:	f04f 0300 	mov.w	r3, #0
    2e58:	f7fe f976 	bl	1148 <makeLine>
		makeLine(0, 3);
    2e5c:	f04f 0000 	mov.w	r0, #0
    2e60:	f04f 0100 	mov.w	r1, #0
    2e64:	f04f 0200 	mov.w	r2, #0
    2e68:	f04f 4380 	mov.w	r3, #1073741824	; 0x40000000
    2e6c:	f503 2300 	add.w	r3, r3, #524288	; 0x80000
    2e70:	f7fe f96a 	bl	1148 <makeLine>
		makeLine(-3, 0);
    2e74:	f04f 0000 	mov.w	r0, #0
    2e78:	f04f 4140 	mov.w	r1, #3221225472	; 0xc0000000
    2e7c:	f501 2100 	add.w	r1, r1, #524288	; 0x80000
    2e80:	f04f 0200 	mov.w	r2, #0
    2e84:	f04f 0300 	mov.w	r3, #0
    2e88:	f7fe f95e 	bl	1148 <makeLine>
		sendMessage(servoRetract, 1, 0x373A);
    2e8c:	f240 0008 	movw	r0, #8
    2e90:	f2c2 0000 	movt	r0, #8192	; 0x2000
    2e94:	f04f 0101 	mov.w	r1, #1
    2e98:	f243 723a 	movw	r2, #14138	; 0x373a
    2e9c:	f7fd fd30 	bl	900 <sendMessage>
		makeLine(4, 4);
    2ea0:	f04f 0000 	mov.w	r0, #0
    2ea4:	f04f 4180 	mov.w	r1, #1073741824	; 0x40000000
    2ea8:	f501 1180 	add.w	r1, r1, #1048576	; 0x100000
    2eac:	f04f 0200 	mov.w	r2, #0
    2eb0:	f04f 4380 	mov.w	r3, #1073741824	; 0x40000000
    2eb4:	f503 1380 	add.w	r3, r3, #1048576	; 0x100000
    2eb8:	f7fe f946 	bl	1148 <makeLine>
    2ebc:	f002 bc7b 	b.w	57b6 <MAIN_STACK_SIZE+0x37b6>
	}
	else if(character == 'Q') {
    2ec0:	79fb      	ldrb	r3, [r7, #7]
    2ec2:	2b51      	cmp	r3, #81	; 0x51
    2ec4:	f040 8090 	bne.w	2fe8 <MAIN_STACK_SIZE+0xfe8>
		makeLine(1, -2);
    2ec8:	f04f 0000 	mov.w	r0, #0
    2ecc:	f04f 517e 	mov.w	r1, #1065353216	; 0x3f800000
    2ed0:	f501 01e0 	add.w	r1, r1, #7340032	; 0x700000
    2ed4:	f04f 0200 	mov.w	r2, #0
    2ed8:	f04f 4340 	mov.w	r3, #3221225472	; 0xc0000000
    2edc:	f7fe f934 	bl	1148 <makeLine>
		sendMessage(servoExtend, 1, 0x373A);
    2ee0:	f240 000c 	movw	r0, #12
    2ee4:	f2c2 0000 	movt	r0, #8192	; 0x2000
    2ee8:	f04f 0101 	mov.w	r1, #1
    2eec:	f243 723a 	movw	r2, #14138	; 0x373a
    2ef0:	f7fd fd06 	bl	900 <sendMessage>
		makeLine(0, -5);
    2ef4:	f04f 0000 	mov.w	r0, #0
    2ef8:	f04f 0100 	mov.w	r1, #0
    2efc:	f04f 0200 	mov.w	r2, #0
    2f00:	f04f 4340 	mov.w	r3, #3221225472	; 0xc0000000
    2f04:	f503 13a0 	add.w	r3, r3, #1310720	; 0x140000
    2f08:	f7fe f91e 	bl	1148 <makeLine>
		makeLine(3, 0);
    2f0c:	f04f 0000 	mov.w	r0, #0
    2f10:	f04f 4180 	mov.w	r1, #1073741824	; 0x40000000
    2f14:	f501 2100 	add.w	r1, r1, #524288	; 0x80000
    2f18:	f04f 0200 	mov.w	r2, #0
    2f1c:	f04f 0300 	mov.w	r3, #0
    2f20:	f7fe f912 	bl	1148 <makeLine>
		makeLine(0, 5);
    2f24:	f04f 0000 	mov.w	r0, #0
    2f28:	f04f 0100 	mov.w	r1, #0
    2f2c:	f04f 0200 	mov.w	r2, #0
    2f30:	f04f 4380 	mov.w	r3, #1073741824	; 0x40000000
    2f34:	f503 13a0 	add.w	r3, r3, #1310720	; 0x140000
    2f38:	f7fe f906 	bl	1148 <makeLine>
		makeLine(-3, 0);
    2f3c:	f04f 0000 	mov.w	r0, #0
    2f40:	f04f 4140 	mov.w	r1, #3221225472	; 0xc0000000
    2f44:	f501 2100 	add.w	r1, r1, #524288	; 0x80000
    2f48:	f04f 0200 	mov.w	r2, #0
    2f4c:	f04f 0300 	mov.w	r3, #0
    2f50:	f7fe f8fa 	bl	1148 <makeLine>
		sendMessage(servoRetract, 1, 0x373A);
    2f54:	f240 0008 	movw	r0, #8
    2f58:	f2c2 0000 	movt	r0, #8192	; 0x2000
    2f5c:	f04f 0101 	mov.w	r1, #1
    2f60:	f243 723a 	movw	r2, #14138	; 0x373a
    2f64:	f7fd fccc 	bl	900 <sendMessage>
		makeLine(1.5, 2.5);
    2f68:	f04f 0000 	mov.w	r0, #0
    2f6c:	f04f 517e 	mov.w	r1, #1065353216	; 0x3f800000
    2f70:	f501 01f0 	add.w	r1, r1, #7864320	; 0x780000
    2f74:	f04f 0200 	mov.w	r2, #0
    2f78:	f04f 4380 	mov.w	r3, #1073741824	; 0x40000000
    2f7c:	f503 2380 	add.w	r3, r3, #262144	; 0x40000
    2f80:	f7fe f8e2 	bl	1148 <makeLine>
		sendMessage(servoExtend, 1, 0x373A);
    2f84:	f240 000c 	movw	r0, #12
    2f88:	f2c2 0000 	movt	r0, #8192	; 0x2000
    2f8c:	f04f 0101 	mov.w	r1, #1
    2f90:	f243 723a 	movw	r2, #14138	; 0x373a
    2f94:	f7fd fcb4 	bl	900 <sendMessage>
		makeLine(1.5, 3.5);
    2f98:	f04f 0000 	mov.w	r0, #0
    2f9c:	f04f 517e 	mov.w	r1, #1065353216	; 0x3f800000
    2fa0:	f501 01f0 	add.w	r1, r1, #7864320	; 0x780000
    2fa4:	f04f 0200 	mov.w	r2, #0
    2fa8:	f04f 4380 	mov.w	r3, #1073741824	; 0x40000000
    2fac:	f503 2340 	add.w	r3, r3, #786432	; 0xc0000
    2fb0:	f7fe f8ca 	bl	1148 <makeLine>
		sendMessage(servoRetract, 1, 0x373A);
    2fb4:	f240 0008 	movw	r0, #8
    2fb8:	f2c2 0000 	movt	r0, #8192	; 0x2000
    2fbc:	f04f 0101 	mov.w	r1, #1
    2fc0:	f243 723a 	movw	r2, #14138	; 0x373a
    2fc4:	f7fd fc9c 	bl	900 <sendMessage>
		makeLine(1, 1);
    2fc8:	f04f 0000 	mov.w	r0, #0
    2fcc:	f04f 517e 	mov.w	r1, #1065353216	; 0x3f800000
    2fd0:	f501 01e0 	add.w	r1, r1, #7340032	; 0x700000
    2fd4:	f04f 0200 	mov.w	r2, #0
    2fd8:	f04f 537e 	mov.w	r3, #1065353216	; 0x3f800000
    2fdc:	f503 03e0 	add.w	r3, r3, #7340032	; 0x700000
    2fe0:	f7fe f8b2 	bl	1148 <makeLine>
    2fe4:	f002 bbe7 	b.w	57b6 <MAIN_STACK_SIZE+0x37b6>
	}
	else if(character == 'R') {
    2fe8:	79fb      	ldrb	r3, [r7, #7]
    2fea:	2b52      	cmp	r3, #82	; 0x52
    2fec:	d16f      	bne.n	30ce <MAIN_STACK_SIZE+0x10ce>
		makeLine(1, -1.0);
    2fee:	f04f 0000 	mov.w	r0, #0
    2ff2:	f04f 517e 	mov.w	r1, #1065353216	; 0x3f800000
    2ff6:	f501 01e0 	add.w	r1, r1, #7340032	; 0x700000
    2ffa:	f04f 0200 	mov.w	r2, #0
    2ffe:	f04f 433f 	mov.w	r3, #3204448256	; 0xbf000000
    3002:	f503 0370 	add.w	r3, r3, #15728640	; 0xf00000
    3006:	f7fe f89f 	bl	1148 <makeLine>
		sendMessage(servoExtend, 1, 0x373A);
    300a:	f240 000c 	movw	r0, #12
    300e:	f2c2 0000 	movt	r0, #8192	; 0x2000
    3012:	f04f 0101 	mov.w	r1, #1
    3016:	f243 723a 	movw	r2, #14138	; 0x373a
    301a:	f7fd fc71 	bl	900 <sendMessage>
		makeLine(0, -6);
    301e:	f04f 0000 	mov.w	r0, #0
    3022:	f04f 0100 	mov.w	r1, #0
    3026:	f04f 0200 	mov.w	r2, #0
    302a:	f04f 4340 	mov.w	r3, #3221225472	; 0xc0000000
    302e:	f503 13c0 	add.w	r3, r3, #1572864	; 0x180000
    3032:	f7fe f889 	bl	1148 <makeLine>
		makeLine(3, 0);
    3036:	f04f 0000 	mov.w	r0, #0
    303a:	f04f 4180 	mov.w	r1, #1073741824	; 0x40000000
    303e:	f501 2100 	add.w	r1, r1, #524288	; 0x80000
    3042:	f04f 0200 	mov.w	r2, #0
    3046:	f04f 0300 	mov.w	r3, #0
    304a:	f7fe f87d 	bl	1148 <makeLine>
		makeLine(0, 3);
    304e:	f04f 0000 	mov.w	r0, #0
    3052:	f04f 0100 	mov.w	r1, #0
    3056:	f04f 0200 	mov.w	r2, #0
    305a:	f04f 4380 	mov.w	r3, #1073741824	; 0x40000000
    305e:	f503 2300 	add.w	r3, r3, #524288	; 0x80000
    3062:	f7fe f871 	bl	1148 <makeLine>
		makeLine(-3, 0);
    3066:	f04f 0000 	mov.w	r0, #0
    306a:	f04f 4140 	mov.w	r1, #3221225472	; 0xc0000000
    306e:	f501 2100 	add.w	r1, r1, #524288	; 0x80000
    3072:	f04f 0200 	mov.w	r2, #0
    3076:	f04f 0300 	mov.w	r3, #0
    307a:	f7fe f865 	bl	1148 <makeLine>
		makeLine(3, 3);
    307e:	f04f 0000 	mov.w	r0, #0
    3082:	f04f 4180 	mov.w	r1, #1073741824	; 0x40000000
    3086:	f501 2100 	add.w	r1, r1, #524288	; 0x80000
    308a:	f04f 0200 	mov.w	r2, #0
    308e:	f04f 4380 	mov.w	r3, #1073741824	; 0x40000000
    3092:	f503 2300 	add.w	r3, r3, #524288	; 0x80000
    3096:	f7fe f857 	bl	1148 <makeLine>
		sendMessage(servoRetract, 1, 0x373A);
    309a:	f240 0008 	movw	r0, #8
    309e:	f2c2 0000 	movt	r0, #8192	; 0x2000
    30a2:	f04f 0101 	mov.w	r1, #1
    30a6:	f243 723a 	movw	r2, #14138	; 0x373a
    30aa:	f7fd fc29 	bl	900 <sendMessage>
		makeLine(1, 1);
    30ae:	f04f 0000 	mov.w	r0, #0
    30b2:	f04f 517e 	mov.w	r1, #1065353216	; 0x3f800000
    30b6:	f501 01e0 	add.w	r1, r1, #7340032	; 0x700000
    30ba:	f04f 0200 	mov.w	r2, #0
    30be:	f04f 537e 	mov.w	r3, #1065353216	; 0x3f800000
    30c2:	f503 03e0 	add.w	r3, r3, #7340032	; 0x700000
    30c6:	f7fe f83f 	bl	1148 <makeLine>
    30ca:	f002 bb74 	b.w	57b6 <MAIN_STACK_SIZE+0x37b6>
	}
	else if(character == 'S') {
    30ce:	79fb      	ldrb	r3, [r7, #7]
    30d0:	2b53      	cmp	r3, #83	; 0x53
    30d2:	d16d      	bne.n	31b0 <MAIN_STACK_SIZE+0x11b0>
		makeLine(1, -1.0);
    30d4:	f04f 0000 	mov.w	r0, #0
    30d8:	f04f 517e 	mov.w	r1, #1065353216	; 0x3f800000
    30dc:	f501 01e0 	add.w	r1, r1, #7340032	; 0x700000
    30e0:	f04f 0200 	mov.w	r2, #0
    30e4:	f04f 433f 	mov.w	r3, #3204448256	; 0xbf000000
    30e8:	f503 0370 	add.w	r3, r3, #15728640	; 0xf00000
    30ec:	f7fe f82c 	bl	1148 <makeLine>
		sendMessage(servoExtend, 1, 0x373A);
    30f0:	f240 000c 	movw	r0, #12
    30f4:	f2c2 0000 	movt	r0, #8192	; 0x2000
    30f8:	f04f 0101 	mov.w	r1, #1
    30fc:	f243 723a 	movw	r2, #14138	; 0x373a
    3100:	f7fd fbfe 	bl	900 <sendMessage>
		makeLine(3, 0);
    3104:	f04f 0000 	mov.w	r0, #0
    3108:	f04f 4180 	mov.w	r1, #1073741824	; 0x40000000
    310c:	f501 2100 	add.w	r1, r1, #524288	; 0x80000
    3110:	f04f 0200 	mov.w	r2, #0
    3114:	f04f 0300 	mov.w	r3, #0
    3118:	f7fe f816 	bl	1148 <makeLine>
		makeLine(0, -3);
    311c:	f04f 0000 	mov.w	r0, #0
    3120:	f04f 0100 	mov.w	r1, #0
    3124:	f04f 0200 	mov.w	r2, #0
    3128:	f04f 4340 	mov.w	r3, #3221225472	; 0xc0000000
    312c:	f503 2300 	add.w	r3, r3, #524288	; 0x80000
    3130:	f7fe f80a 	bl	1148 <makeLine>
		makeLine(-3, 0);
    3134:	f04f 0000 	mov.w	r0, #0
    3138:	f04f 4140 	mov.w	r1, #3221225472	; 0xc0000000
    313c:	f501 2100 	add.w	r1, r1, #524288	; 0x80000
    3140:	f04f 0200 	mov.w	r2, #0
    3144:	f04f 0300 	mov.w	r3, #0
    3148:	f7fd fffe 	bl	1148 <makeLine>
		makeLine(0, -3);
    314c:	f04f 0000 	mov.w	r0, #0
    3150:	f04f 0100 	mov.w	r1, #0
    3154:	f04f 0200 	mov.w	r2, #0
    3158:	f04f 4340 	mov.w	r3, #3221225472	; 0xc0000000
    315c:	f503 2300 	add.w	r3, r3, #524288	; 0x80000
    3160:	f7fd fff2 	bl	1148 <makeLine>
		makeLine(3, 0);
    3164:	f04f 0000 	mov.w	r0, #0
    3168:	f04f 4180 	mov.w	r1, #1073741824	; 0x40000000
    316c:	f501 2100 	add.w	r1, r1, #524288	; 0x80000
    3170:	f04f 0200 	mov.w	r2, #0
    3174:	f04f 0300 	mov.w	r3, #0
    3178:	f7fd ffe6 	bl	1148 <makeLine>
		sendMessage(servoRetract, 1, 0x373A);
    317c:	f240 0008 	movw	r0, #8
    3180:	f2c2 0000 	movt	r0, #8192	; 0x2000
    3184:	f04f 0101 	mov.w	r1, #1
    3188:	f243 723a 	movw	r2, #14138	; 0x373a
    318c:	f7fd fbb8 	bl	900 <sendMessage>
		makeLine(1, 7);
    3190:	f04f 0000 	mov.w	r0, #0
    3194:	f04f 517e 	mov.w	r1, #1065353216	; 0x3f800000
    3198:	f501 01e0 	add.w	r1, r1, #7340032	; 0x700000
    319c:	f04f 0200 	mov.w	r2, #0
    31a0:	f04f 4380 	mov.w	r3, #1073741824	; 0x40000000
    31a4:	f503 13e0 	add.w	r3, r3, #1835008	; 0x1c0000
    31a8:	f7fd ffce 	bl	1148 <makeLine>
    31ac:	f002 bb03 	b.w	57b6 <MAIN_STACK_SIZE+0x37b6>
	}
	else if(character == 'T') {
    31b0:	79fb      	ldrb	r3, [r7, #7]
    31b2:	2b54      	cmp	r3, #84	; 0x54
    31b4:	d155      	bne.n	3262 <MAIN_STACK_SIZE+0x1262>
		makeLine(2.5, -1.0);
    31b6:	f04f 0000 	mov.w	r0, #0
    31ba:	f04f 4180 	mov.w	r1, #1073741824	; 0x40000000
    31be:	f501 2180 	add.w	r1, r1, #262144	; 0x40000
    31c2:	f04f 0200 	mov.w	r2, #0
    31c6:	f04f 433f 	mov.w	r3, #3204448256	; 0xbf000000
    31ca:	f503 0370 	add.w	r3, r3, #15728640	; 0xf00000
    31ce:	f7fd ffbb 	bl	1148 <makeLine>
		sendMessage(servoExtend, 1, 0x373A);
    31d2:	f240 000c 	movw	r0, #12
    31d6:	f2c2 0000 	movt	r0, #8192	; 0x2000
    31da:	f04f 0101 	mov.w	r1, #1
    31de:	f243 723a 	movw	r2, #14138	; 0x373a
    31e2:	f7fd fb8d 	bl	900 <sendMessage>
		makeLine(0, -6);
    31e6:	f04f 0000 	mov.w	r0, #0
    31ea:	f04f 0100 	mov.w	r1, #0
    31ee:	f04f 0200 	mov.w	r2, #0
    31f2:	f04f 4340 	mov.w	r3, #3221225472	; 0xc0000000
    31f6:	f503 13c0 	add.w	r3, r3, #1572864	; 0x180000
    31fa:	f7fd ffa5 	bl	1148 <makeLine>
		makeLine(-1.5, 0);
    31fe:	f04f 0000 	mov.w	r0, #0
    3202:	f04f 413f 	mov.w	r1, #3204448256	; 0xbf000000
    3206:	f501 0178 	add.w	r1, r1, #16252928	; 0xf80000
    320a:	f04f 0200 	mov.w	r2, #0
    320e:	f04f 0300 	mov.w	r3, #0
    3212:	f7fd ff99 	bl	1148 <makeLine>
		makeLine(3, 0);
    3216:	f04f 0000 	mov.w	r0, #0
    321a:	f04f 4180 	mov.w	r1, #1073741824	; 0x40000000
    321e:	f501 2100 	add.w	r1, r1, #524288	; 0x80000
    3222:	f04f 0200 	mov.w	r2, #0
    3226:	f04f 0300 	mov.w	r3, #0
    322a:	f7fd ff8d 	bl	1148 <makeLine>
		sendMessage(servoRetract, 1, 0x373A);
    322e:	f240 0008 	movw	r0, #8
    3232:	f2c2 0000 	movt	r0, #8192	; 0x2000
    3236:	f04f 0101 	mov.w	r1, #1
    323a:	f243 723a 	movw	r2, #14138	; 0x373a
    323e:	f7fd fb5f 	bl	900 <sendMessage>
		makeLine(1, 7);
    3242:	f04f 0000 	mov.w	r0, #0
    3246:	f04f 517e 	mov.w	r1, #1065353216	; 0x3f800000
    324a:	f501 01e0 	add.w	r1, r1, #7340032	; 0x700000
    324e:	f04f 0200 	mov.w	r2, #0
    3252:	f04f 4380 	mov.w	r3, #1073741824	; 0x40000000
    3256:	f503 13e0 	add.w	r3, r3, #1835008	; 0x1c0000
    325a:	f7fd ff75 	bl	1148 <makeLine>
    325e:	f002 baaa 	b.w	57b6 <MAIN_STACK_SIZE+0x37b6>
	}
	else if(character == 'U') {
    3262:	79fb      	ldrb	r3, [r7, #7]
    3264:	2b55      	cmp	r3, #85	; 0x55
    3266:	d155      	bne.n	3314 <MAIN_STACK_SIZE+0x1314>
		makeLine(1, -7);
    3268:	f04f 0000 	mov.w	r0, #0
    326c:	f04f 517e 	mov.w	r1, #1065353216	; 0x3f800000
    3270:	f501 01e0 	add.w	r1, r1, #7340032	; 0x700000
    3274:	f04f 0200 	mov.w	r2, #0
    3278:	f04f 4340 	mov.w	r3, #3221225472	; 0xc0000000
    327c:	f503 13e0 	add.w	r3, r3, #1835008	; 0x1c0000
    3280:	f7fd ff62 	bl	1148 <makeLine>
		sendMessage(servoExtend, 1, 0x373A);
    3284:	f240 000c 	movw	r0, #12
    3288:	f2c2 0000 	movt	r0, #8192	; 0x2000
    328c:	f04f 0101 	mov.w	r1, #1
    3290:	f243 723a 	movw	r2, #14138	; 0x373a
    3294:	f7fd fb34 	bl	900 <sendMessage>
		makeLine(0, 6);
    3298:	f04f 0000 	mov.w	r0, #0
    329c:	f04f 0100 	mov.w	r1, #0
    32a0:	f04f 0200 	mov.w	r2, #0
    32a4:	f04f 4380 	mov.w	r3, #1073741824	; 0x40000000
    32a8:	f503 13c0 	add.w	r3, r3, #1572864	; 0x180000
    32ac:	f7fd ff4c 	bl	1148 <makeLine>
		makeLine(3, 0);
    32b0:	f04f 0000 	mov.w	r0, #0
    32b4:	f04f 4180 	mov.w	r1, #1073741824	; 0x40000000
    32b8:	f501 2100 	add.w	r1, r1, #524288	; 0x80000
    32bc:	f04f 0200 	mov.w	r2, #0
    32c0:	f04f 0300 	mov.w	r3, #0
    32c4:	f7fd ff40 	bl	1148 <makeLine>
		makeLine(0, -6);
    32c8:	f04f 0000 	mov.w	r0, #0
    32cc:	f04f 0100 	mov.w	r1, #0
    32d0:	f04f 0200 	mov.w	r2, #0
    32d4:	f04f 4340 	mov.w	r3, #3221225472	; 0xc0000000
    32d8:	f503 13c0 	add.w	r3, r3, #1572864	; 0x180000
    32dc:	f7fd ff34 	bl	1148 <makeLine>
		sendMessage(servoRetract, 1, 0x373A);
    32e0:	f240 0008 	movw	r0, #8
    32e4:	f2c2 0000 	movt	r0, #8192	; 0x2000
    32e8:	f04f 0101 	mov.w	r1, #1
    32ec:	f243 723a 	movw	r2, #14138	; 0x373a
    32f0:	f7fd fb06 	bl	900 <sendMessage>
		makeLine(1, 7);
    32f4:	f04f 0000 	mov.w	r0, #0
    32f8:	f04f 517e 	mov.w	r1, #1065353216	; 0x3f800000
    32fc:	f501 01e0 	add.w	r1, r1, #7340032	; 0x700000
    3300:	f04f 0200 	mov.w	r2, #0
    3304:	f04f 4380 	mov.w	r3, #1073741824	; 0x40000000
    3308:	f503 13e0 	add.w	r3, r3, #1835008	; 0x1c0000
    330c:	f7fd ff1c 	bl	1148 <makeLine>
    3310:	f002 ba51 	b.w	57b6 <MAIN_STACK_SIZE+0x37b6>
	}
	else if(character == 'V') {
    3314:	79fb      	ldrb	r3, [r7, #7]
    3316:	2b56      	cmp	r3, #86	; 0x56
    3318:	d14d      	bne.n	33b6 <MAIN_STACK_SIZE+0x13b6>
		makeLine(1, -7);
    331a:	f04f 0000 	mov.w	r0, #0
    331e:	f04f 517e 	mov.w	r1, #1065353216	; 0x3f800000
    3322:	f501 01e0 	add.w	r1, r1, #7340032	; 0x700000
    3326:	f04f 0200 	mov.w	r2, #0
    332a:	f04f 4340 	mov.w	r3, #3221225472	; 0xc0000000
    332e:	f503 13e0 	add.w	r3, r3, #1835008	; 0x1c0000
    3332:	f7fd ff09 	bl	1148 <makeLine>
		sendMessage(servoExtend, 1, 0x373A);
    3336:	f240 000c 	movw	r0, #12
    333a:	f2c2 0000 	movt	r0, #8192	; 0x2000
    333e:	f04f 0101 	mov.w	r1, #1
    3342:	f243 723a 	movw	r2, #14138	; 0x373a
    3346:	f7fd fadb 	bl	900 <sendMessage>
		makeLine(1.5, 6);
    334a:	f04f 0000 	mov.w	r0, #0
    334e:	f04f 517e 	mov.w	r1, #1065353216	; 0x3f800000
    3352:	f501 01f0 	add.w	r1, r1, #7864320	; 0x780000
    3356:	f04f 0200 	mov.w	r2, #0
    335a:	f04f 4380 	mov.w	r3, #1073741824	; 0x40000000
    335e:	f503 13c0 	add.w	r3, r3, #1572864	; 0x180000
    3362:	f7fd fef1 	bl	1148 <makeLine>
		makeLine(1.5, -6);
    3366:	f04f 0000 	mov.w	r0, #0
    336a:	f04f 517e 	mov.w	r1, #1065353216	; 0x3f800000
    336e:	f501 01f0 	add.w	r1, r1, #7864320	; 0x780000
    3372:	f04f 0200 	mov.w	r2, #0
    3376:	f04f 4340 	mov.w	r3, #3221225472	; 0xc0000000
    337a:	f503 13c0 	add.w	r3, r3, #1572864	; 0x180000
    337e:	f7fd fee3 	bl	1148 <makeLine>
		sendMessage(servoRetract, 1, 0x373A);
    3382:	f240 0008 	movw	r0, #8
    3386:	f2c2 0000 	movt	r0, #8192	; 0x2000
    338a:	f04f 0101 	mov.w	r1, #1
    338e:	f243 723a 	movw	r2, #14138	; 0x373a
    3392:	f7fd fab5 	bl	900 <sendMessage>
		makeLine(1, 7);
    3396:	f04f 0000 	mov.w	r0, #0
    339a:	f04f 517e 	mov.w	r1, #1065353216	; 0x3f800000
    339e:	f501 01e0 	add.w	r1, r1, #7340032	; 0x700000
    33a2:	f04f 0200 	mov.w	r2, #0
    33a6:	f04f 4380 	mov.w	r3, #1073741824	; 0x40000000
    33aa:	f503 13e0 	add.w	r3, r3, #1835008	; 0x1c0000
    33ae:	f7fd fecb 	bl	1148 <makeLine>
    33b2:	f002 ba00 	b.w	57b6 <MAIN_STACK_SIZE+0x37b6>
	}
	else if(character == 'W') {
    33b6:	79fb      	ldrb	r3, [r7, #7]
    33b8:	2b57      	cmp	r3, #87	; 0x57
    33ba:	d165      	bne.n	3488 <MAIN_STACK_SIZE+0x1488>
		makeLine(1, -7);
    33bc:	f04f 0000 	mov.w	r0, #0
    33c0:	f04f 517e 	mov.w	r1, #1065353216	; 0x3f800000
    33c4:	f501 01e0 	add.w	r1, r1, #7340032	; 0x700000
    33c8:	f04f 0200 	mov.w	r2, #0
    33cc:	f04f 4340 	mov.w	r3, #3221225472	; 0xc0000000
    33d0:	f503 13e0 	add.w	r3, r3, #1835008	; 0x1c0000
    33d4:	f7fd feb8 	bl	1148 <makeLine>
		sendMessage(servoExtend, 1, 0x373A);
    33d8:	f240 000c 	movw	r0, #12
    33dc:	f2c2 0000 	movt	r0, #8192	; 0x2000
    33e0:	f04f 0101 	mov.w	r1, #1
    33e4:	f243 723a 	movw	r2, #14138	; 0x373a
    33e8:	f7fd fa8a 	bl	900 <sendMessage>
		makeLine(0, 6);
    33ec:	f04f 0000 	mov.w	r0, #0
    33f0:	f04f 0100 	mov.w	r1, #0
    33f4:	f04f 0200 	mov.w	r2, #0
    33f8:	f04f 4380 	mov.w	r3, #1073741824	; 0x40000000
    33fc:	f503 13c0 	add.w	r3, r3, #1572864	; 0x180000
    3400:	f7fd fea2 	bl	1148 <makeLine>
		makeLine(1.5, -6);
    3404:	f04f 0000 	mov.w	r0, #0
    3408:	f04f 517e 	mov.w	r1, #1065353216	; 0x3f800000
    340c:	f501 01f0 	add.w	r1, r1, #7864320	; 0x780000
    3410:	f04f 0200 	mov.w	r2, #0
    3414:	f04f 4340 	mov.w	r3, #3221225472	; 0xc0000000
    3418:	f503 13c0 	add.w	r3, r3, #1572864	; 0x180000
    341c:	f7fd fe94 	bl	1148 <makeLine>
		makeLine(1.5, 6);
    3420:	f04f 0000 	mov.w	r0, #0
    3424:	f04f 517e 	mov.w	r1, #1065353216	; 0x3f800000
    3428:	f501 01f0 	add.w	r1, r1, #7864320	; 0x780000
    342c:	f04f 0200 	mov.w	r2, #0
    3430:	f04f 4380 	mov.w	r3, #1073741824	; 0x40000000
    3434:	f503 13c0 	add.w	r3, r3, #1572864	; 0x180000
    3438:	f7fd fe86 	bl	1148 <makeLine>
		makeLine(0, -6);
    343c:	f04f 0000 	mov.w	r0, #0
    3440:	f04f 0100 	mov.w	r1, #0
    3444:	f04f 0200 	mov.w	r2, #0
    3448:	f04f 4340 	mov.w	r3, #3221225472	; 0xc0000000
    344c:	f503 13c0 	add.w	r3, r3, #1572864	; 0x180000
    3450:	f7fd fe7a 	bl	1148 <makeLine>
		sendMessage(servoRetract, 1, 0x373A);
    3454:	f240 0008 	movw	r0, #8
    3458:	f2c2 0000 	movt	r0, #8192	; 0x2000
    345c:	f04f 0101 	mov.w	r1, #1
    3460:	f243 723a 	movw	r2, #14138	; 0x373a
    3464:	f7fd fa4c 	bl	900 <sendMessage>
		makeLine(1, 7);
    3468:	f04f 0000 	mov.w	r0, #0
    346c:	f04f 517e 	mov.w	r1, #1065353216	; 0x3f800000
    3470:	f501 01e0 	add.w	r1, r1, #7340032	; 0x700000
    3474:	f04f 0200 	mov.w	r2, #0
    3478:	f04f 4380 	mov.w	r3, #1073741824	; 0x40000000
    347c:	f503 13e0 	add.w	r3, r3, #1835008	; 0x1c0000
    3480:	f7fd fe62 	bl	1148 <makeLine>
    3484:	f002 b997 	b.w	57b6 <MAIN_STACK_SIZE+0x37b6>
	}
	else if(character == 'X') {
    3488:	79fb      	ldrb	r3, [r7, #7]
    348a:	2b58      	cmp	r3, #88	; 0x58
    348c:	d16d      	bne.n	356a <MAIN_STACK_SIZE+0x156a>
		makeLine(1, -7);
    348e:	f04f 0000 	mov.w	r0, #0
    3492:	f04f 517e 	mov.w	r1, #1065353216	; 0x3f800000
    3496:	f501 01e0 	add.w	r1, r1, #7340032	; 0x700000
    349a:	f04f 0200 	mov.w	r2, #0
    349e:	f04f 4340 	mov.w	r3, #3221225472	; 0xc0000000
    34a2:	f503 13e0 	add.w	r3, r3, #1835008	; 0x1c0000
    34a6:	f7fd fe4f 	bl	1148 <makeLine>
		sendMessage(servoExtend, 1, 0x373A);
    34aa:	f240 000c 	movw	r0, #12
    34ae:	f2c2 0000 	movt	r0, #8192	; 0x2000
    34b2:	f04f 0101 	mov.w	r1, #1
    34b6:	f243 723a 	movw	r2, #14138	; 0x373a
    34ba:	f7fd fa21 	bl	900 <sendMessage>
		makeLine(3, 6);
    34be:	f04f 0000 	mov.w	r0, #0
    34c2:	f04f 4180 	mov.w	r1, #1073741824	; 0x40000000
    34c6:	f501 2100 	add.w	r1, r1, #524288	; 0x80000
    34ca:	f04f 0200 	mov.w	r2, #0
    34ce:	f04f 4380 	mov.w	r3, #1073741824	; 0x40000000
    34d2:	f503 13c0 	add.w	r3, r3, #1572864	; 0x180000
    34d6:	f7fd fe37 	bl	1148 <makeLine>
		sendMessage(servoRetract, 1, 0x373A);
    34da:	f240 0008 	movw	r0, #8
    34de:	f2c2 0000 	movt	r0, #8192	; 0x2000
    34e2:	f04f 0101 	mov.w	r1, #1
    34e6:	f243 723a 	movw	r2, #14138	; 0x373a
    34ea:	f7fd fa09 	bl	900 <sendMessage>
		makeLine(0, -6);
    34ee:	f04f 0000 	mov.w	r0, #0
    34f2:	f04f 0100 	mov.w	r1, #0
    34f6:	f04f 0200 	mov.w	r2, #0
    34fa:	f04f 4340 	mov.w	r3, #3221225472	; 0xc0000000
    34fe:	f503 13c0 	add.w	r3, r3, #1572864	; 0x180000
    3502:	f7fd fe21 	bl	1148 <makeLine>
		sendMessage(servoExtend, 1, 0x373A);
    3506:	f240 000c 	movw	r0, #12
    350a:	f2c2 0000 	movt	r0, #8192	; 0x2000
    350e:	f04f 0101 	mov.w	r1, #1
    3512:	f243 723a 	movw	r2, #14138	; 0x373a
    3516:	f7fd f9f3 	bl	900 <sendMessage>
		makeLine(-3, 6);
    351a:	f04f 0000 	mov.w	r0, #0
    351e:	f04f 4140 	mov.w	r1, #3221225472	; 0xc0000000
    3522:	f501 2100 	add.w	r1, r1, #524288	; 0x80000
    3526:	f04f 0200 	mov.w	r2, #0
    352a:	f04f 4380 	mov.w	r3, #1073741824	; 0x40000000
    352e:	f503 13c0 	add.w	r3, r3, #1572864	; 0x180000
    3532:	f7fd fe09 	bl	1148 <makeLine>
		sendMessage(servoRetract, 1, 0x373A);
    3536:	f240 0008 	movw	r0, #8
    353a:	f2c2 0000 	movt	r0, #8192	; 0x2000
    353e:	f04f 0101 	mov.w	r1, #1
    3542:	f243 723a 	movw	r2, #14138	; 0x373a
    3546:	f7fd f9db 	bl	900 <sendMessage>
		makeLine(1, 7);
    354a:	f04f 0000 	mov.w	r0, #0
    354e:	f04f 517e 	mov.w	r1, #1065353216	; 0x3f800000
    3552:	f501 01e0 	add.w	r1, r1, #7340032	; 0x700000
    3556:	f04f 0200 	mov.w	r2, #0
    355a:	f04f 4380 	mov.w	r3, #1073741824	; 0x40000000
    355e:	f503 13e0 	add.w	r3, r3, #1835008	; 0x1c0000
    3562:	f7fd fdf1 	bl	1148 <makeLine>
    3566:	f002 b926 	b.w	57b6 <MAIN_STACK_SIZE+0x37b6>
	}
	else if(character == 'Y') {
    356a:	79fb      	ldrb	r3, [r7, #7]
    356c:	2b59      	cmp	r3, #89	; 0x59
    356e:	d167      	bne.n	3640 <MAIN_STACK_SIZE+0x1640>
		makeLine(2.5, -1.0);
    3570:	f04f 0000 	mov.w	r0, #0
    3574:	f04f 4180 	mov.w	r1, #1073741824	; 0x40000000
    3578:	f501 2180 	add.w	r1, r1, #262144	; 0x40000
    357c:	f04f 0200 	mov.w	r2, #0
    3580:	f04f 433f 	mov.w	r3, #3204448256	; 0xbf000000
    3584:	f503 0370 	add.w	r3, r3, #15728640	; 0xf00000
    3588:	f7fd fdde 	bl	1148 <makeLine>
		sendMessage(servoExtend, 1, 0x373A);
    358c:	f240 000c 	movw	r0, #12
    3590:	f2c2 0000 	movt	r0, #8192	; 0x2000
    3594:	f04f 0101 	mov.w	r1, #1
    3598:	f243 723a 	movw	r2, #14138	; 0x373a
    359c:	f7fd f9b0 	bl	900 <sendMessage>
		makeLine(0, -3);
    35a0:	f04f 0000 	mov.w	r0, #0
    35a4:	f04f 0100 	mov.w	r1, #0
    35a8:	f04f 0200 	mov.w	r2, #0
    35ac:	f04f 4340 	mov.w	r3, #3221225472	; 0xc0000000
    35b0:	f503 2300 	add.w	r3, r3, #524288	; 0x80000
    35b4:	f7fd fdc8 	bl	1148 <makeLine>
		makeLine(-1.5, -3);
    35b8:	f04f 0000 	mov.w	r0, #0
    35bc:	f04f 413f 	mov.w	r1, #3204448256	; 0xbf000000
    35c0:	f501 0178 	add.w	r1, r1, #16252928	; 0xf80000
    35c4:	f04f 0200 	mov.w	r2, #0
    35c8:	f04f 4340 	mov.w	r3, #3221225472	; 0xc0000000
    35cc:	f503 2300 	add.w	r3, r3, #524288	; 0x80000
    35d0:	f7fd fdba 	bl	1148 <makeLine>
		makeLine(1.5, 3);
    35d4:	f04f 0000 	mov.w	r0, #0
    35d8:	f04f 517e 	mov.w	r1, #1065353216	; 0x3f800000
    35dc:	f501 01f0 	add.w	r1, r1, #7864320	; 0x780000
    35e0:	f04f 0200 	mov.w	r2, #0
    35e4:	f04f 4380 	mov.w	r3, #1073741824	; 0x40000000
    35e8:	f503 2300 	add.w	r3, r3, #524288	; 0x80000
    35ec:	f7fd fdac 	bl	1148 <makeLine>
		makeLine(1.5, -3);
    35f0:	f04f 0000 	mov.w	r0, #0
    35f4:	f04f 517e 	mov.w	r1, #1065353216	; 0x3f800000
    35f8:	f501 01f0 	add.w	r1, r1, #7864320	; 0x780000
    35fc:	f04f 0200 	mov.w	r2, #0
    3600:	f04f 4340 	mov.w	r3, #3221225472	; 0xc0000000
    3604:	f503 2300 	add.w	r3, r3, #524288	; 0x80000
    3608:	f7fd fd9e 	bl	1148 <makeLine>
		sendMessage(servoRetract, 1, 0x373A);
    360c:	f240 0008 	movw	r0, #8
    3610:	f2c2 0000 	movt	r0, #8192	; 0x2000
    3614:	f04f 0101 	mov.w	r1, #1
    3618:	f243 723a 	movw	r2, #14138	; 0x373a
    361c:	f7fd f970 	bl	900 <sendMessage>
		makeLine(1, 7);
    3620:	f04f 0000 	mov.w	r0, #0
    3624:	f04f 517e 	mov.w	r1, #1065353216	; 0x3f800000
    3628:	f501 01e0 	add.w	r1, r1, #7340032	; 0x700000
    362c:	f04f 0200 	mov.w	r2, #0
    3630:	f04f 4380 	mov.w	r3, #1073741824	; 0x40000000
    3634:	f503 13e0 	add.w	r3, r3, #1835008	; 0x1c0000
    3638:	f7fd fd86 	bl	1148 <makeLine>
    363c:	f002 b8bb 	b.w	57b6 <MAIN_STACK_SIZE+0x37b6>
	}
	else if(character == 'Z') {
    3640:	79fb      	ldrb	r3, [r7, #7]
    3642:	2b5a      	cmp	r3, #90	; 0x5a
    3644:	d157      	bne.n	36f6 <MAIN_STACK_SIZE+0x16f6>
		makeLine(1, -7);
    3646:	f04f 0000 	mov.w	r0, #0
    364a:	f04f 517e 	mov.w	r1, #1065353216	; 0x3f800000
    364e:	f501 01e0 	add.w	r1, r1, #7340032	; 0x700000
    3652:	f04f 0200 	mov.w	r2, #0
    3656:	f04f 4340 	mov.w	r3, #3221225472	; 0xc0000000
    365a:	f503 13e0 	add.w	r3, r3, #1835008	; 0x1c0000
    365e:	f7fd fd73 	bl	1148 <makeLine>
		sendMessage(servoExtend, 1, 0x373A);
    3662:	f240 000c 	movw	r0, #12
    3666:	f2c2 0000 	movt	r0, #8192	; 0x2000
    366a:	f04f 0101 	mov.w	r1, #1
    366e:	f243 723a 	movw	r2, #14138	; 0x373a
    3672:	f7fd f945 	bl	900 <sendMessage>
		makeLine(3, 0);
    3676:	f04f 0000 	mov.w	r0, #0
    367a:	f04f 4180 	mov.w	r1, #1073741824	; 0x40000000
    367e:	f501 2100 	add.w	r1, r1, #524288	; 0x80000
    3682:	f04f 0200 	mov.w	r2, #0
    3686:	f04f 0300 	mov.w	r3, #0
    368a:	f7fd fd5d 	bl	1148 <makeLine>
		makeLine(-3, 6);
    368e:	f04f 0000 	mov.w	r0, #0
    3692:	f04f 4140 	mov.w	r1, #3221225472	; 0xc0000000
    3696:	f501 2100 	add.w	r1, r1, #524288	; 0x80000
    369a:	f04f 0200 	mov.w	r2, #0
    369e:	f04f 4380 	mov.w	r3, #1073741824	; 0x40000000
    36a2:	f503 13c0 	add.w	r3, r3, #1572864	; 0x180000
    36a6:	f7fd fd4f 	bl	1148 <makeLine>
		makeLine(3, 0);
    36aa:	f04f 0000 	mov.w	r0, #0
    36ae:	f04f 4180 	mov.w	r1, #1073741824	; 0x40000000
    36b2:	f501 2100 	add.w	r1, r1, #524288	; 0x80000
    36b6:	f04f 0200 	mov.w	r2, #0
    36ba:	f04f 0300 	mov.w	r3, #0
    36be:	f7fd fd43 	bl	1148 <makeLine>
		sendMessage(servoRetract, 1, 0x373A);
    36c2:	f240 0008 	movw	r0, #8
    36c6:	f2c2 0000 	movt	r0, #8192	; 0x2000
    36ca:	f04f 0101 	mov.w	r1, #1
    36ce:	f243 723a 	movw	r2, #14138	; 0x373a
    36d2:	f7fd f915 	bl	900 <sendMessage>
		makeLine(1, 1);
    36d6:	f04f 0000 	mov.w	r0, #0
    36da:	f04f 517e 	mov.w	r1, #1065353216	; 0x3f800000
    36de:	f501 01e0 	add.w	r1, r1, #7340032	; 0x700000
    36e2:	f04f 0200 	mov.w	r2, #0
    36e6:	f04f 537e 	mov.w	r3, #1065353216	; 0x3f800000
    36ea:	f503 03e0 	add.w	r3, r3, #7340032	; 0x700000
    36ee:	f7fd fd2b 	bl	1148 <makeLine>
    36f2:	f002 b860 	b.w	57b6 <MAIN_STACK_SIZE+0x37b6>
	}
	else if(character == 'a') {
    36f6:	79fb      	ldrb	r3, [r7, #7]
    36f8:	2b61      	cmp	r3, #97	; 0x61
    36fa:	d16f      	bne.n	37dc <MAIN_STACK_SIZE+0x17dc>
		makeLine(1.0, -4.0);
    36fc:	f04f 0000 	mov.w	r0, #0
    3700:	f04f 517e 	mov.w	r1, #1065353216	; 0x3f800000
    3704:	f501 01e0 	add.w	r1, r1, #7340032	; 0x700000
    3708:	f04f 0200 	mov.w	r2, #0
    370c:	f04f 4340 	mov.w	r3, #3221225472	; 0xc0000000
    3710:	f503 1380 	add.w	r3, r3, #1048576	; 0x100000
    3714:	f7fd fd18 	bl	1148 <makeLine>
		sendMessage(servoExtend, 1, 0x373A);
    3718:	f240 000c 	movw	r0, #12
    371c:	f2c2 0000 	movt	r0, #8192	; 0x2000
    3720:	f04f 0101 	mov.w	r1, #1
    3724:	f243 723a 	movw	r2, #14138	; 0x373a
    3728:	f7fd f8ea 	bl	900 <sendMessage>
		makeLine(1.0, -1.0);
    372c:	f04f 0000 	mov.w	r0, #0
    3730:	f04f 517e 	mov.w	r1, #1065353216	; 0x3f800000
    3734:	f501 01e0 	add.w	r1, r1, #7340032	; 0x700000
    3738:	f04f 0200 	mov.w	r2, #0
    373c:	f04f 433f 	mov.w	r3, #3204448256	; 0xbf000000
    3740:	f503 0370 	add.w	r3, r3, #15728640	; 0xf00000
    3744:	f7fd fd00 	bl	1148 <makeLine>
		makeLine(1.0, 1.0);
    3748:	f04f 0000 	mov.w	r0, #0
    374c:	f04f 517e 	mov.w	r1, #1065353216	; 0x3f800000
    3750:	f501 01e0 	add.w	r1, r1, #7340032	; 0x700000
    3754:	f04f 0200 	mov.w	r2, #0
    3758:	f04f 537e 	mov.w	r3, #1065353216	; 0x3f800000
    375c:	f503 03e0 	add.w	r3, r3, #7340032	; 0x700000
    3760:	f7fd fcf2 	bl	1148 <makeLine>
		makeLine(0.0, 2.0);
    3764:	f04f 0000 	mov.w	r0, #0
    3768:	f04f 0100 	mov.w	r1, #0
    376c:	f04f 0200 	mov.w	r2, #0
    3770:	f04f 4380 	mov.w	r3, #1073741824	; 0x40000000
    3774:	f7fd fce8 	bl	1148 <makeLine>
		makeLine(-2.0, -1.0);
    3778:	f04f 0000 	mov.w	r0, #0
    377c:	f04f 4140 	mov.w	r1, #3221225472	; 0xc0000000
    3780:	f04f 0200 	mov.w	r2, #0
    3784:	f04f 433f 	mov.w	r3, #3204448256	; 0xbf000000
    3788:	f503 0370 	add.w	r3, r3, #15728640	; 0xf00000
    378c:	f7fd fcdc 	bl	1148 <makeLine>
		makeLine(2.0, -1.0);
    3790:	f04f 0000 	mov.w	r0, #0
    3794:	f04f 4180 	mov.w	r1, #1073741824	; 0x40000000
    3798:	f04f 0200 	mov.w	r2, #0
    379c:	f04f 433f 	mov.w	r3, #3204448256	; 0xbf000000
    37a0:	f503 0370 	add.w	r3, r3, #15728640	; 0xf00000
    37a4:	f7fd fcd0 	bl	1148 <makeLine>
		sendMessage(servoRetract, 1, 0x373A);
    37a8:	f240 0008 	movw	r0, #8
    37ac:	f2c2 0000 	movt	r0, #8192	; 0x2000
    37b0:	f04f 0101 	mov.w	r1, #1
    37b4:	f243 723a 	movw	r2, #14138	; 0x373a
    37b8:	f7fd f8a2 	bl	900 <sendMessage>
		makeLine(1.0, 4.0);
    37bc:	f04f 0000 	mov.w	r0, #0
    37c0:	f04f 517e 	mov.w	r1, #1065353216	; 0x3f800000
    37c4:	f501 01e0 	add.w	r1, r1, #7340032	; 0x700000
    37c8:	f04f 0200 	mov.w	r2, #0
    37cc:	f04f 4380 	mov.w	r3, #1073741824	; 0x40000000
    37d0:	f503 1380 	add.w	r3, r3, #1048576	; 0x100000
    37d4:	f7fd fcb8 	bl	1148 <makeLine>
    37d8:	f001 bfed 	b.w	57b6 <MAIN_STACK_SIZE+0x37b6>
	}
	else if(character == 'b') {
    37dc:	79fb      	ldrb	r3, [r7, #7]
    37de:	2b62      	cmp	r3, #98	; 0x62
    37e0:	d153      	bne.n	388a <MAIN_STACK_SIZE+0x188a>
		makeLine(2.0, -6.0);
    37e2:	f04f 0000 	mov.w	r0, #0
    37e6:	f04f 4180 	mov.w	r1, #1073741824	; 0x40000000
    37ea:	f04f 0200 	mov.w	r2, #0
    37ee:	f04f 4340 	mov.w	r3, #3221225472	; 0xc0000000
    37f2:	f503 13c0 	add.w	r3, r3, #1572864	; 0x180000
    37f6:	f7fd fca7 	bl	1148 <makeLine>
		sendMessage(servoExtend, 1, 0x373A);
    37fa:	f240 000c 	movw	r0, #12
    37fe:	f2c2 0000 	movt	r0, #8192	; 0x2000
    3802:	f04f 0101 	mov.w	r1, #1
    3806:	f243 723a 	movw	r2, #14138	; 0x373a
    380a:	f7fd f879 	bl	900 <sendMessage>
		makeLine(0.0, 4.0);
    380e:	f04f 0000 	mov.w	r0, #0
    3812:	f04f 0100 	mov.w	r1, #0
    3816:	f04f 0200 	mov.w	r2, #0
    381a:	f04f 4380 	mov.w	r3, #1073741824	; 0x40000000
    381e:	f503 1380 	add.w	r3, r3, #1048576	; 0x100000
    3822:	f7fd fc91 	bl	1148 <makeLine>
		makeLine(2.0, -1.0);
    3826:	f04f 0000 	mov.w	r0, #0
    382a:	f04f 4180 	mov.w	r1, #1073741824	; 0x40000000
    382e:	f04f 0200 	mov.w	r2, #0
    3832:	f04f 433f 	mov.w	r3, #3204448256	; 0xbf000000
    3836:	f503 0370 	add.w	r3, r3, #15728640	; 0xf00000
    383a:	f7fd fc85 	bl	1148 <makeLine>
		makeLine(-2.0, -1.0);
    383e:	f04f 0000 	mov.w	r0, #0
    3842:	f04f 4140 	mov.w	r1, #3221225472	; 0xc0000000
    3846:	f04f 0200 	mov.w	r2, #0
    384a:	f04f 433f 	mov.w	r3, #3204448256	; 0xbf000000
    384e:	f503 0370 	add.w	r3, r3, #15728640	; 0xf00000
    3852:	f7fd fc79 	bl	1148 <makeLine>
		sendMessage(servoRetract, 1, 0x373A);
    3856:	f240 0008 	movw	r0, #8
    385a:	f2c2 0000 	movt	r0, #8192	; 0x2000
    385e:	f04f 0101 	mov.w	r1, #1
    3862:	f243 723a 	movw	r2, #14138	; 0x373a
    3866:	f7fd f84b 	bl	900 <sendMessage>
		makeLine(3.0, 4.0);
    386a:	f04f 0000 	mov.w	r0, #0
    386e:	f04f 4180 	mov.w	r1, #1073741824	; 0x40000000
    3872:	f501 2100 	add.w	r1, r1, #524288	; 0x80000
    3876:	f04f 0200 	mov.w	r2, #0
    387a:	f04f 4380 	mov.w	r3, #1073741824	; 0x40000000
    387e:	f503 1380 	add.w	r3, r3, #1048576	; 0x100000
    3882:	f7fd fc61 	bl	1148 <makeLine>
    3886:	f001 bf96 	b.w	57b6 <MAIN_STACK_SIZE+0x37b6>
	}
	else if(character == 'c') {
    388a:	79fb      	ldrb	r3, [r7, #7]
    388c:	2b63      	cmp	r3, #99	; 0x63
    388e:	d173      	bne.n	3978 <MAIN_STACK_SIZE+0x1978>
		makeLine(4.0, -4.0);
    3890:	f04f 0000 	mov.w	r0, #0
    3894:	f04f 4180 	mov.w	r1, #1073741824	; 0x40000000
    3898:	f501 1180 	add.w	r1, r1, #1048576	; 0x100000
    389c:	f04f 0200 	mov.w	r2, #0
    38a0:	f04f 4340 	mov.w	r3, #3221225472	; 0xc0000000
    38a4:	f503 1380 	add.w	r3, r3, #1048576	; 0x100000
    38a8:	f7fd fc4e 	bl	1148 <makeLine>
		sendMessage(servoExtend, 1, 0x373A);
    38ac:	f240 000c 	movw	r0, #12
    38b0:	f2c2 0000 	movt	r0, #8192	; 0x2000
    38b4:	f04f 0101 	mov.w	r1, #1
    38b8:	f243 723a 	movw	r2, #14138	; 0x373a
    38bc:	f7fd f820 	bl	900 <sendMessage>
		makeLine(-1.5, -1.0);
    38c0:	f04f 0000 	mov.w	r0, #0
    38c4:	f04f 413f 	mov.w	r1, #3204448256	; 0xbf000000
    38c8:	f501 0178 	add.w	r1, r1, #16252928	; 0xf80000
    38cc:	f04f 0200 	mov.w	r2, #0
    38d0:	f04f 433f 	mov.w	r3, #3204448256	; 0xbf000000
    38d4:	f503 0370 	add.w	r3, r3, #15728640	; 0xf00000
    38d8:	f7fd fc36 	bl	1148 <makeLine>
		makeLine(-1.5, 1.0);
    38dc:	f04f 0000 	mov.w	r0, #0
    38e0:	f04f 413f 	mov.w	r1, #3204448256	; 0xbf000000
    38e4:	f501 0178 	add.w	r1, r1, #16252928	; 0xf80000
    38e8:	f04f 0200 	mov.w	r2, #0
    38ec:	f04f 537e 	mov.w	r3, #1065353216	; 0x3f800000
    38f0:	f503 03e0 	add.w	r3, r3, #7340032	; 0x700000
    38f4:	f7fd fc28 	bl	1148 <makeLine>
		makeLine(0.0, 1.5);
    38f8:	f04f 0000 	mov.w	r0, #0
    38fc:	f04f 0100 	mov.w	r1, #0
    3900:	f04f 0200 	mov.w	r2, #0
    3904:	f04f 537e 	mov.w	r3, #1065353216	; 0x3f800000
    3908:	f503 03f0 	add.w	r3, r3, #7864320	; 0x780000
    390c:	f7fd fc1c 	bl	1148 <makeLine>
		makeLine(1.5, 1.0);
    3910:	f04f 0000 	mov.w	r0, #0
    3914:	f04f 517e 	mov.w	r1, #1065353216	; 0x3f800000
    3918:	f501 01f0 	add.w	r1, r1, #7864320	; 0x780000
    391c:	f04f 0200 	mov.w	r2, #0
    3920:	f04f 537e 	mov.w	r3, #1065353216	; 0x3f800000
    3924:	f503 03e0 	add.w	r3, r3, #7340032	; 0x700000
    3928:	f7fd fc0e 	bl	1148 <makeLine>
		makeLine(1.5, -1.0);
    392c:	f04f 0000 	mov.w	r0, #0
    3930:	f04f 517e 	mov.w	r1, #1065353216	; 0x3f800000
    3934:	f501 01f0 	add.w	r1, r1, #7864320	; 0x780000
    3938:	f04f 0200 	mov.w	r2, #0
    393c:	f04f 433f 	mov.w	r3, #3204448256	; 0xbf000000
    3940:	f503 0370 	add.w	r3, r3, #15728640	; 0xf00000
    3944:	f7fd fc00 	bl	1148 <makeLine>
		sendMessage(servoRetract, 1, 0x373A);
    3948:	f240 0008 	movw	r0, #8
    394c:	f2c2 0000 	movt	r0, #8192	; 0x2000
    3950:	f04f 0101 	mov.w	r1, #1
    3954:	f243 723a 	movw	r2, #14138	; 0x373a
    3958:	f7fc ffd2 	bl	900 <sendMessage>
		makeLine(1.0, 2.0);
    395c:	f04f 0000 	mov.w	r0, #0
    3960:	f04f 517e 	mov.w	r1, #1065353216	; 0x3f800000
    3964:	f501 01e0 	add.w	r1, r1, #7340032	; 0x700000
    3968:	f04f 0200 	mov.w	r2, #0
    396c:	f04f 4380 	mov.w	r3, #1073741824	; 0x40000000
    3970:	f7fd fbea 	bl	1148 <makeLine>
    3974:	f001 bf1f 	b.w	57b6 <MAIN_STACK_SIZE+0x37b6>
	}
	else if(character == 'd') {
    3978:	79fb      	ldrb	r3, [r7, #7]
    397a:	2b64      	cmp	r3, #100	; 0x64
    397c:	d153      	bne.n	3a26 <MAIN_STACK_SIZE+0x1a26>
		makeLine(3.0, -3.0);
    397e:	f04f 0000 	mov.w	r0, #0
    3982:	f04f 4180 	mov.w	r1, #1073741824	; 0x40000000
    3986:	f501 2100 	add.w	r1, r1, #524288	; 0x80000
    398a:	f04f 0200 	mov.w	r2, #0
    398e:	f04f 4340 	mov.w	r3, #3221225472	; 0xc0000000
    3992:	f503 2300 	add.w	r3, r3, #524288	; 0x80000
    3996:	f7fd fbd7 	bl	1148 <makeLine>
		sendMessage(servoExtend, 1, 0x373A);
    399a:	f240 000c 	movw	r0, #12
    399e:	f2c2 0000 	movt	r0, #8192	; 0x2000
    39a2:	f04f 0101 	mov.w	r1, #1
    39a6:	f243 723a 	movw	r2, #14138	; 0x373a
    39aa:	f7fc ffa9 	bl	900 <sendMessage>
		makeLine(-2.0, 1.0);
    39ae:	f04f 0000 	mov.w	r0, #0
    39b2:	f04f 4140 	mov.w	r1, #3221225472	; 0xc0000000
    39b6:	f04f 0200 	mov.w	r2, #0
    39ba:	f04f 537e 	mov.w	r3, #1065353216	; 0x3f800000
    39be:	f503 03e0 	add.w	r3, r3, #7340032	; 0x700000
    39c2:	f7fd fbc1 	bl	1148 <makeLine>
		makeLine(2.0, 1.0);
    39c6:	f04f 0000 	mov.w	r0, #0
    39ca:	f04f 4180 	mov.w	r1, #1073741824	; 0x40000000
    39ce:	f04f 0200 	mov.w	r2, #0
    39d2:	f04f 537e 	mov.w	r3, #1065353216	; 0x3f800000
    39d6:	f503 03e0 	add.w	r3, r3, #7340032	; 0x700000
    39da:	f7fd fbb5 	bl	1148 <makeLine>
		makeLine(0.0, -4.0);
    39de:	f04f 0000 	mov.w	r0, #0
    39e2:	f04f 0100 	mov.w	r1, #0
    39e6:	f04f 0200 	mov.w	r2, #0
    39ea:	f04f 4340 	mov.w	r3, #3221225472	; 0xc0000000
    39ee:	f503 1380 	add.w	r3, r3, #1048576	; 0x100000
    39f2:	f7fd fba9 	bl	1148 <makeLine>
		sendMessage(servoRetract, 1, 0x373A);
    39f6:	f240 0008 	movw	r0, #8
    39fa:	f2c2 0000 	movt	r0, #8192	; 0x2000
    39fe:	f04f 0101 	mov.w	r1, #1
    3a02:	f243 723a 	movw	r2, #14138	; 0x373a
    3a06:	f7fc ff7b 	bl	900 <sendMessage>
		makeLine(2.0, 5.0);
    3a0a:	f04f 0000 	mov.w	r0, #0
    3a0e:	f04f 4180 	mov.w	r1, #1073741824	; 0x40000000
    3a12:	f04f 0200 	mov.w	r2, #0
    3a16:	f04f 4380 	mov.w	r3, #1073741824	; 0x40000000
    3a1a:	f503 13a0 	add.w	r3, r3, #1310720	; 0x140000
    3a1e:	f7fd fb93 	bl	1148 <makeLine>
    3a22:	f001 bec8 	b.w	57b6 <MAIN_STACK_SIZE+0x37b6>
	}
	else if(character == 'e') {
    3a26:	79fb      	ldrb	r3, [r7, #7]
    3a28:	2b65      	cmp	r3, #101	; 0x65
    3a2a:	d17b      	bne.n	3b24 <MAIN_STACK_SIZE+0x1b24>
		makeLine(1.5, -3.0);
    3a2c:	f04f 0000 	mov.w	r0, #0
    3a30:	f04f 517e 	mov.w	r1, #1065353216	; 0x3f800000
    3a34:	f501 01f0 	add.w	r1, r1, #7864320	; 0x780000
    3a38:	f04f 0200 	mov.w	r2, #0
    3a3c:	f04f 4340 	mov.w	r3, #3221225472	; 0xc0000000
    3a40:	f503 2300 	add.w	r3, r3, #524288	; 0x80000
    3a44:	f7fd fb80 	bl	1148 <makeLine>
		sendMessage(servoExtend, 1, 0x373A);
    3a48:	f240 000c 	movw	r0, #12
    3a4c:	f2c2 0000 	movt	r0, #8192	; 0x2000
    3a50:	f04f 0101 	mov.w	r1, #1
    3a54:	f243 723a 	movw	r2, #14138	; 0x373a
    3a58:	f7fc ff52 	bl	900 <sendMessage>
		makeLine(2.0, 0.0);
    3a5c:	f04f 0000 	mov.w	r0, #0
    3a60:	f04f 4180 	mov.w	r1, #1073741824	; 0x40000000
    3a64:	f04f 0200 	mov.w	r2, #0
    3a68:	f04f 0300 	mov.w	r3, #0
    3a6c:	f7fd fb6c 	bl	1148 <makeLine>
		makeLine(-1.0, -1.5);
    3a70:	f04f 0000 	mov.w	r0, #0
    3a74:	f04f 413f 	mov.w	r1, #3204448256	; 0xbf000000
    3a78:	f501 0170 	add.w	r1, r1, #15728640	; 0xf00000
    3a7c:	f04f 0200 	mov.w	r2, #0
    3a80:	f04f 433f 	mov.w	r3, #3204448256	; 0xbf000000
    3a84:	f503 0378 	add.w	r3, r3, #16252928	; 0xf80000
    3a88:	f7fd fb5e 	bl	1148 <makeLine>
		makeLine(-2.0, 1.5);
    3a8c:	f04f 0000 	mov.w	r0, #0
    3a90:	f04f 4140 	mov.w	r1, #3221225472	; 0xc0000000
    3a94:	f04f 0200 	mov.w	r2, #0
    3a98:	f04f 537e 	mov.w	r3, #1065353216	; 0x3f800000
    3a9c:	f503 03f0 	add.w	r3, r3, #7864320	; 0x780000
    3aa0:	f7fd fb52 	bl	1148 <makeLine>
		makeLine(0.0, 1.0);
    3aa4:	f04f 0000 	mov.w	r0, #0
    3aa8:	f04f 0100 	mov.w	r1, #0
    3aac:	f04f 0200 	mov.w	r2, #0
    3ab0:	f04f 537e 	mov.w	r3, #1065353216	; 0x3f800000
    3ab4:	f503 03e0 	add.w	r3, r3, #7340032	; 0x700000
    3ab8:	f7fd fb46 	bl	1148 <makeLine>
		makeLine(1.0, 1.5);
    3abc:	f04f 0000 	mov.w	r0, #0
    3ac0:	f04f 517e 	mov.w	r1, #1065353216	; 0x3f800000
    3ac4:	f501 01e0 	add.w	r1, r1, #7340032	; 0x700000
    3ac8:	f04f 0200 	mov.w	r2, #0
    3acc:	f04f 537e 	mov.w	r3, #1065353216	; 0x3f800000
    3ad0:	f503 03f0 	add.w	r3, r3, #7864320	; 0x780000
    3ad4:	f7fd fb38 	bl	1148 <makeLine>
		makeLine(2.0, -1.5);
    3ad8:	f04f 0000 	mov.w	r0, #0
    3adc:	f04f 4180 	mov.w	r1, #1073741824	; 0x40000000
    3ae0:	f04f 0200 	mov.w	r2, #0
    3ae4:	f04f 433f 	mov.w	r3, #3204448256	; 0xbf000000
    3ae8:	f503 0378 	add.w	r3, r3, #16252928	; 0xf80000
    3aec:	f7fd fb2c 	bl	1148 <makeLine>
		sendMessage(servoRetract, 1, 0x373A);
    3af0:	f240 0008 	movw	r0, #8
    3af4:	f2c2 0000 	movt	r0, #8192	; 0x2000
    3af8:	f04f 0101 	mov.w	r1, #1
    3afc:	f243 723a 	movw	r2, #14138	; 0x373a
    3b00:	f7fc fefe 	bl	900 <sendMessage>
		makeLine(1.5, 4.0);
    3b04:	f04f 0000 	mov.w	r0, #0
    3b08:	f04f 517e 	mov.w	r1, #1065353216	; 0x3f800000
    3b0c:	f501 01f0 	add.w	r1, r1, #7864320	; 0x780000
    3b10:	f04f 0200 	mov.w	r2, #0
    3b14:	f04f 4380 	mov.w	r3, #1073741824	; 0x40000000
    3b18:	f503 1380 	add.w	r3, r3, #1048576	; 0x100000
    3b1c:	f7fd fb14 	bl	1148 <makeLine>
    3b20:	f001 be49 	b.w	57b6 <MAIN_STACK_SIZE+0x37b6>
	}
	else if(character == 'f') {
    3b24:	79fb      	ldrb	r3, [r7, #7]
    3b26:	2b66      	cmp	r3, #102	; 0x66
    3b28:	f040 8084 	bne.w	3c34 <MAIN_STACK_SIZE+0x1c34>
		makeLine(2.0, -1.0);
    3b2c:	f04f 0000 	mov.w	r0, #0
    3b30:	f04f 4180 	mov.w	r1, #1073741824	; 0x40000000
    3b34:	f04f 0200 	mov.w	r2, #0
    3b38:	f04f 433f 	mov.w	r3, #3204448256	; 0xbf000000
    3b3c:	f503 0370 	add.w	r3, r3, #15728640	; 0xf00000
    3b40:	f7fd fb02 	bl	1148 <makeLine>
		sendMessage(servoExtend, 1, 0x373A);
    3b44:	f240 000c 	movw	r0, #12
    3b48:	f2c2 0000 	movt	r0, #8192	; 0x2000
    3b4c:	f04f 0101 	mov.w	r1, #1
    3b50:	f243 723a 	movw	r2, #14138	; 0x373a
    3b54:	f7fc fed4 	bl	900 <sendMessage>
		makeLine(0.0, -4.0);
    3b58:	f04f 0000 	mov.w	r0, #0
    3b5c:	f04f 0100 	mov.w	r1, #0
    3b60:	f04f 0200 	mov.w	r2, #0
    3b64:	f04f 4340 	mov.w	r3, #3221225472	; 0xc0000000
    3b68:	f503 1380 	add.w	r3, r3, #1048576	; 0x100000
    3b6c:	f7fd faec 	bl	1148 <makeLine>
		makeLine(1.0, -1.0);
    3b70:	f04f 0000 	mov.w	r0, #0
    3b74:	f04f 517e 	mov.w	r1, #1065353216	; 0x3f800000
    3b78:	f501 01e0 	add.w	r1, r1, #7340032	; 0x700000
    3b7c:	f04f 0200 	mov.w	r2, #0
    3b80:	f04f 433f 	mov.w	r3, #3204448256	; 0xbf000000
    3b84:	f503 0370 	add.w	r3, r3, #15728640	; 0xf00000
    3b88:	f7fd fade 	bl	1148 <makeLine>
		makeLine(1.0, 1.0);
    3b8c:	f04f 0000 	mov.w	r0, #0
    3b90:	f04f 517e 	mov.w	r1, #1065353216	; 0x3f800000
    3b94:	f501 01e0 	add.w	r1, r1, #7340032	; 0x700000
    3b98:	f04f 0200 	mov.w	r2, #0
    3b9c:	f04f 537e 	mov.w	r3, #1065353216	; 0x3f800000
    3ba0:	f503 03e0 	add.w	r3, r3, #7340032	; 0x700000
    3ba4:	f7fd fad0 	bl	1148 <makeLine>
		sendMessage(servoRetract, 1, 0x373A);
    3ba8:	f240 0008 	movw	r0, #8
    3bac:	f2c2 0000 	movt	r0, #8192	; 0x2000
    3bb0:	f04f 0101 	mov.w	r1, #1
    3bb4:	f243 723a 	movw	r2, #14138	; 0x373a
    3bb8:	f7fc fea2 	bl	900 <sendMessage>
		makeLine(-2.5, 2.0);
    3bbc:	f04f 0000 	mov.w	r0, #0
    3bc0:	f04f 4140 	mov.w	r1, #3221225472	; 0xc0000000
    3bc4:	f501 2180 	add.w	r1, r1, #262144	; 0x40000
    3bc8:	f04f 0200 	mov.w	r2, #0
    3bcc:	f04f 4380 	mov.w	r3, #1073741824	; 0x40000000
    3bd0:	f7fd faba 	bl	1148 <makeLine>
		sendMessage(servoExtend, 1, 0x373A);
    3bd4:	f240 000c 	movw	r0, #12
    3bd8:	f2c2 0000 	movt	r0, #8192	; 0x2000
    3bdc:	f04f 0101 	mov.w	r1, #1
    3be0:	f243 723a 	movw	r2, #14138	; 0x373a
    3be4:	f7fc fe8c 	bl	900 <sendMessage>
		makeLine(2.5, 0.0);
    3be8:	f04f 0000 	mov.w	r0, #0
    3bec:	f04f 4180 	mov.w	r1, #1073741824	; 0x40000000
    3bf0:	f501 2180 	add.w	r1, r1, #262144	; 0x40000
    3bf4:	f04f 0200 	mov.w	r2, #0
    3bf8:	f04f 0300 	mov.w	r3, #0
    3bfc:	f7fd faa4 	bl	1148 <makeLine>
		sendMessage(servoRetract, 1, 0x373A);
    3c00:	f240 0008 	movw	r0, #8
    3c04:	f2c2 0000 	movt	r0, #8192	; 0x2000
    3c08:	f04f 0101 	mov.w	r1, #1
    3c0c:	f243 723a 	movw	r2, #14138	; 0x373a
    3c10:	f7fc fe76 	bl	900 <sendMessage>
		makeLine(1.0, 3.0);
    3c14:	f04f 0000 	mov.w	r0, #0
    3c18:	f04f 517e 	mov.w	r1, #1065353216	; 0x3f800000
    3c1c:	f501 01e0 	add.w	r1, r1, #7340032	; 0x700000
    3c20:	f04f 0200 	mov.w	r2, #0
    3c24:	f04f 4380 	mov.w	r3, #1073741824	; 0x40000000
    3c28:	f503 2300 	add.w	r3, r3, #524288	; 0x80000
    3c2c:	f7fd fa8c 	bl	1148 <makeLine>
    3c30:	f001 bdc1 	b.w	57b6 <MAIN_STACK_SIZE+0x37b6>
	}
	else if(character == 'g') {
    3c34:	79fb      	ldrb	r3, [r7, #7]
    3c36:	2b67      	cmp	r3, #103	; 0x67
    3c38:	f040 8090 	bne.w	3d5c <MAIN_STACK_SIZE+0x1d5c>
		makeLine(1.0, -2.0);
    3c3c:	f04f 0000 	mov.w	r0, #0
    3c40:	f04f 517e 	mov.w	r1, #1065353216	; 0x3f800000
    3c44:	f501 01e0 	add.w	r1, r1, #7340032	; 0x700000
    3c48:	f04f 0200 	mov.w	r2, #0
    3c4c:	f04f 4340 	mov.w	r3, #3221225472	; 0xc0000000
    3c50:	f7fd fa7a 	bl	1148 <makeLine>
		sendMessage(servoExtend, 1, 0x373A);
    3c54:	f240 000c 	movw	r0, #12
    3c58:	f2c2 0000 	movt	r0, #8192	; 0x2000
    3c5c:	f04f 0101 	mov.w	r1, #1
    3c60:	f243 723a 	movw	r2, #14138	; 0x373a
    3c64:	f7fc fe4c 	bl	900 <sendMessage>
		makeLine(1.5, 1.0);
    3c68:	f04f 0000 	mov.w	r0, #0
    3c6c:	f04f 517e 	mov.w	r1, #1065353216	; 0x3f800000
    3c70:	f501 01f0 	add.w	r1, r1, #7864320	; 0x780000
    3c74:	f04f 0200 	mov.w	r2, #0
    3c78:	f04f 537e 	mov.w	r3, #1065353216	; 0x3f800000
    3c7c:	f503 03e0 	add.w	r3, r3, #7340032	; 0x700000
    3c80:	f7fd fa62 	bl	1148 <makeLine>
		makeLine(1.5, -1.0);
    3c84:	f04f 0000 	mov.w	r0, #0
    3c88:	f04f 517e 	mov.w	r1, #1065353216	; 0x3f800000
    3c8c:	f501 01f0 	add.w	r1, r1, #7864320	; 0x780000
    3c90:	f04f 0200 	mov.w	r2, #0
    3c94:	f04f 433f 	mov.w	r3, #3204448256	; 0xbf000000
    3c98:	f503 0370 	add.w	r3, r3, #15728640	; 0xf00000
    3c9c:	f7fd fa54 	bl	1148 <makeLine>
		makeLine(0.0, -2.5);
    3ca0:	f04f 0000 	mov.w	r0, #0
    3ca4:	f04f 0100 	mov.w	r1, #0
    3ca8:	f04f 0200 	mov.w	r2, #0
    3cac:	f04f 4340 	mov.w	r3, #3221225472	; 0xc0000000
    3cb0:	f503 2380 	add.w	r3, r3, #262144	; 0x40000
    3cb4:	f7fd fa48 	bl	1148 <makeLine>
		makeLine(-1.5, -1.5);
    3cb8:	f04f 0000 	mov.w	r0, #0
    3cbc:	f04f 413f 	mov.w	r1, #3204448256	; 0xbf000000
    3cc0:	f501 0178 	add.w	r1, r1, #16252928	; 0xf80000
    3cc4:	f04f 0200 	mov.w	r2, #0
    3cc8:	f04f 433f 	mov.w	r3, #3204448256	; 0xbf000000
    3ccc:	f503 0378 	add.w	r3, r3, #16252928	; 0xf80000
    3cd0:	f7fd fa3a 	bl	1148 <makeLine>
		makeLine(-1.5, 1.5);
    3cd4:	f04f 0000 	mov.w	r0, #0
    3cd8:	f04f 413f 	mov.w	r1, #3204448256	; 0xbf000000
    3cdc:	f501 0178 	add.w	r1, r1, #16252928	; 0xf80000
    3ce0:	f04f 0200 	mov.w	r2, #0
    3ce4:	f04f 537e 	mov.w	r3, #1065353216	; 0x3f800000
    3ce8:	f503 03f0 	add.w	r3, r3, #7864320	; 0x780000
    3cec:	f7fd fa2c 	bl	1148 <makeLine>
		makeLine(1.5, 1.5);
    3cf0:	f04f 0000 	mov.w	r0, #0
    3cf4:	f04f 517e 	mov.w	r1, #1065353216	; 0x3f800000
    3cf8:	f501 01f0 	add.w	r1, r1, #7864320	; 0x780000
    3cfc:	f04f 0200 	mov.w	r2, #0
    3d00:	f04f 537e 	mov.w	r3, #1065353216	; 0x3f800000
    3d04:	f503 03f0 	add.w	r3, r3, #7864320	; 0x780000
    3d08:	f7fd fa1e 	bl	1148 <makeLine>
		makeLine(1.5, -1.5);
    3d0c:	f04f 0000 	mov.w	r0, #0
    3d10:	f04f 517e 	mov.w	r1, #1065353216	; 0x3f800000
    3d14:	f501 01f0 	add.w	r1, r1, #7864320	; 0x780000
    3d18:	f04f 0200 	mov.w	r2, #0
    3d1c:	f04f 433f 	mov.w	r3, #3204448256	; 0xbf000000
    3d20:	f503 0378 	add.w	r3, r3, #16252928	; 0xf80000
    3d24:	f7fd fa10 	bl	1148 <makeLine>
		sendMessage(servoRetract, 1, 0x373A);
    3d28:	f240 0008 	movw	r0, #8
    3d2c:	f2c2 0000 	movt	r0, #8192	; 0x2000
    3d30:	f04f 0101 	mov.w	r1, #1
    3d34:	f243 723a 	movw	r2, #14138	; 0x373a
    3d38:	f7fc fde2 	bl	900 <sendMessage>
		makeLine(1.0, 4.5);
    3d3c:	f04f 0000 	mov.w	r0, #0
    3d40:	f04f 517e 	mov.w	r1, #1065353216	; 0x3f800000
    3d44:	f501 01e0 	add.w	r1, r1, #7340032	; 0x700000
    3d48:	f04f 0200 	mov.w	r2, #0
    3d4c:	f04f 4380 	mov.w	r3, #1073741824	; 0x40000000
    3d50:	f503 1390 	add.w	r3, r3, #1179648	; 0x120000
    3d54:	f7fd f9f8 	bl	1148 <makeLine>
    3d58:	f001 bd2d 	b.w	57b6 <MAIN_STACK_SIZE+0x37b6>
	}
	else if(character == 'h') {
    3d5c:	79fb      	ldrb	r3, [r7, #7]
    3d5e:	2b68      	cmp	r3, #104	; 0x68
    3d60:	f040 8084 	bne.w	3e6c <MAIN_STACK_SIZE+0x1e6c>
		makeLine(1.5, -1.0);
    3d64:	f04f 0000 	mov.w	r0, #0
    3d68:	f04f 517e 	mov.w	r1, #1065353216	; 0x3f800000
    3d6c:	f501 01f0 	add.w	r1, r1, #7864320	; 0x780000
    3d70:	f04f 0200 	mov.w	r2, #0
    3d74:	f04f 433f 	mov.w	r3, #3204448256	; 0xbf000000
    3d78:	f503 0370 	add.w	r3, r3, #15728640	; 0xf00000
    3d7c:	f7fd f9e4 	bl	1148 <makeLine>
		sendMessage(servoExtend, 1, 0x373A);
    3d80:	f240 000c 	movw	r0, #12
    3d84:	f2c2 0000 	movt	r0, #8192	; 0x2000
    3d88:	f04f 0101 	mov.w	r1, #1
    3d8c:	f243 723a 	movw	r2, #14138	; 0x373a
    3d90:	f7fc fdb6 	bl	900 <sendMessage>
		makeLine(0.0, -4.0);
    3d94:	f04f 0000 	mov.w	r0, #0
    3d98:	f04f 0100 	mov.w	r1, #0
    3d9c:	f04f 0200 	mov.w	r2, #0
    3da0:	f04f 4340 	mov.w	r3, #3221225472	; 0xc0000000
    3da4:	f503 1380 	add.w	r3, r3, #1048576	; 0x100000
    3da8:	f7fd f9ce 	bl	1148 <makeLine>
		sendMessage(servoRetract, 1, 0x373A);
    3dac:	f240 0008 	movw	r0, #8
    3db0:	f2c2 0000 	movt	r0, #8192	; 0x2000
    3db4:	f04f 0101 	mov.w	r1, #1
    3db8:	f243 723a 	movw	r2, #14138	; 0x373a
    3dbc:	f7fc fda0 	bl	900 <sendMessage>
		makeLine(0.0, 2.5);
    3dc0:	f04f 0000 	mov.w	r0, #0
    3dc4:	f04f 0100 	mov.w	r1, #0
    3dc8:	f04f 0200 	mov.w	r2, #0
    3dcc:	f04f 4380 	mov.w	r3, #1073741824	; 0x40000000
    3dd0:	f503 2380 	add.w	r3, r3, #262144	; 0x40000
    3dd4:	f7fd f9b8 	bl	1148 <makeLine>
		sendMessage(servoExtend, 1, 0x373A);
    3dd8:	f240 000c 	movw	r0, #12
    3ddc:	f2c2 0000 	movt	r0, #8192	; 0x2000
    3de0:	f04f 0101 	mov.w	r1, #1
    3de4:	f243 723a 	movw	r2, #14138	; 0x373a
    3de8:	f7fc fd8a 	bl	900 <sendMessage>
		makeLine(1.0, -1.0);
    3dec:	f04f 0000 	mov.w	r0, #0
    3df0:	f04f 517e 	mov.w	r1, #1065353216	; 0x3f800000
    3df4:	f501 01e0 	add.w	r1, r1, #7340032	; 0x700000
    3df8:	f04f 0200 	mov.w	r2, #0
    3dfc:	f04f 433f 	mov.w	r3, #3204448256	; 0xbf000000
    3e00:	f503 0370 	add.w	r3, r3, #15728640	; 0xf00000
    3e04:	f7fd f9a0 	bl	1148 <makeLine>
		makeLine(1.0, 1.0);
    3e08:	f04f 0000 	mov.w	r0, #0
    3e0c:	f04f 517e 	mov.w	r1, #1065353216	; 0x3f800000
    3e10:	f501 01e0 	add.w	r1, r1, #7340032	; 0x700000
    3e14:	f04f 0200 	mov.w	r2, #0
    3e18:	f04f 537e 	mov.w	r3, #1065353216	; 0x3f800000
    3e1c:	f503 03e0 	add.w	r3, r3, #7340032	; 0x700000
    3e20:	f7fd f992 	bl	1148 <makeLine>
		makeLine(0.0, 2.0);
    3e24:	f04f 0000 	mov.w	r0, #0
    3e28:	f04f 0100 	mov.w	r1, #0
    3e2c:	f04f 0200 	mov.w	r2, #0
    3e30:	f04f 4380 	mov.w	r3, #1073741824	; 0x40000000
    3e34:	f7fd f988 	bl	1148 <makeLine>
		sendMessage(servoRetract, 1, 0x373A);
    3e38:	f240 0008 	movw	r0, #8
    3e3c:	f2c2 0000 	movt	r0, #8192	; 0x2000
    3e40:	f04f 0101 	mov.w	r1, #1
    3e44:	f243 723a 	movw	r2, #14138	; 0x373a
    3e48:	f7fc fd5a 	bl	900 <sendMessage>
		makeLine(1.5, 1.0);
    3e4c:	f04f 0000 	mov.w	r0, #0
    3e50:	f04f 517e 	mov.w	r1, #1065353216	; 0x3f800000
    3e54:	f501 01f0 	add.w	r1, r1, #7864320	; 0x780000
    3e58:	f04f 0200 	mov.w	r2, #0
    3e5c:	f04f 537e 	mov.w	r3, #1065353216	; 0x3f800000
    3e60:	f503 03e0 	add.w	r3, r3, #7340032	; 0x700000
    3e64:	f7fd f970 	bl	1148 <makeLine>
    3e68:	f001 bca5 	b.w	57b6 <MAIN_STACK_SIZE+0x37b6>
	}
	else if(character == 'i') {
    3e6c:	79fb      	ldrb	r3, [r7, #7]
    3e6e:	2b69      	cmp	r3, #105	; 0x69
    3e70:	d15d      	bne.n	3f2e <MAIN_STACK_SIZE+0x1f2e>
		makeLine(2.5, -1.0);
    3e72:	f04f 0000 	mov.w	r0, #0
    3e76:	f04f 4180 	mov.w	r1, #1073741824	; 0x40000000
    3e7a:	f501 2180 	add.w	r1, r1, #262144	; 0x40000
    3e7e:	f04f 0200 	mov.w	r2, #0
    3e82:	f04f 433f 	mov.w	r3, #3204448256	; 0xbf000000
    3e86:	f503 0370 	add.w	r3, r3, #15728640	; 0xf00000
    3e8a:	f7fd f95d 	bl	1148 <makeLine>
		sendMessage(servoExtend, 1, 0x373A);
    3e8e:	f240 000c 	movw	r0, #12
    3e92:	f2c2 0000 	movt	r0, #8192	; 0x2000
    3e96:	f04f 0101 	mov.w	r1, #1
    3e9a:	f243 723a 	movw	r2, #14138	; 0x373a
    3e9e:	f7fc fd2f 	bl	900 <sendMessage>
		makeLine(0.0, -3.0);
    3ea2:	f04f 0000 	mov.w	r0, #0
    3ea6:	f04f 0100 	mov.w	r1, #0
    3eaa:	f04f 0200 	mov.w	r2, #0
    3eae:	f04f 4340 	mov.w	r3, #3221225472	; 0xc0000000
    3eb2:	f503 2300 	add.w	r3, r3, #524288	; 0x80000
    3eb6:	f7fd f947 	bl	1148 <makeLine>
		sendMessage(servoRetract, 1, 0x373A);
    3eba:	f240 0008 	movw	r0, #8
    3ebe:	f2c2 0000 	movt	r0, #8192	; 0x2000
    3ec2:	f04f 0101 	mov.w	r1, #1
    3ec6:	f243 723a 	movw	r2, #14138	; 0x373a
    3eca:	f7fc fd19 	bl	900 <sendMessage>
		makeLine(0.0, -1.0);
    3ece:	f04f 0000 	mov.w	r0, #0
    3ed2:	f04f 0100 	mov.w	r1, #0
    3ed6:	f04f 0200 	mov.w	r2, #0
    3eda:	f04f 433f 	mov.w	r3, #3204448256	; 0xbf000000
    3ede:	f503 0370 	add.w	r3, r3, #15728640	; 0xf00000
    3ee2:	f7fd f931 	bl	1148 <makeLine>
		sendMessage(servoExtend, 1, 0x373A);
    3ee6:	f240 000c 	movw	r0, #12
    3eea:	f2c2 0000 	movt	r0, #8192	; 0x2000
    3eee:	f04f 0101 	mov.w	r1, #1
    3ef2:	f243 723a 	movw	r2, #14138	; 0x373a
    3ef6:	f7fc fd03 	bl	900 <sendMessage>
		sendMessage(servoRetract, 1, 0x373A);
    3efa:	f240 0008 	movw	r0, #8
    3efe:	f2c2 0000 	movt	r0, #8192	; 0x2000
    3f02:	f04f 0101 	mov.w	r1, #1
    3f06:	f243 723a 	movw	r2, #14138	; 0x373a
    3f0a:	f7fc fcf9 	bl	900 <sendMessage>
		makeLine(2.5, 5.0);
    3f0e:	f04f 0000 	mov.w	r0, #0
    3f12:	f04f 4180 	mov.w	r1, #1073741824	; 0x40000000
    3f16:	f501 2180 	add.w	r1, r1, #262144	; 0x40000
    3f1a:	f04f 0200 	mov.w	r2, #0
    3f1e:	f04f 4380 	mov.w	r3, #1073741824	; 0x40000000
    3f22:	f503 13a0 	add.w	r3, r3, #1310720	; 0x140000
    3f26:	f7fd f90f 	bl	1148 <makeLine>
    3f2a:	f001 bc44 	b.w	57b6 <MAIN_STACK_SIZE+0x37b6>
	}
	else if(character == 'j') {
    3f2e:	79fb      	ldrb	r3, [r7, #7]
    3f30:	2b6a      	cmp	r3, #106	; 0x6a
    3f32:	d177      	bne.n	4024 <MAIN_STACK_SIZE+0x2024>
		makeLine(1.5, -1.5);
    3f34:	f04f 0000 	mov.w	r0, #0
    3f38:	f04f 517e 	mov.w	r1, #1065353216	; 0x3f800000
    3f3c:	f501 01f0 	add.w	r1, r1, #7864320	; 0x780000
    3f40:	f04f 0200 	mov.w	r2, #0
    3f44:	f04f 433f 	mov.w	r3, #3204448256	; 0xbf000000
    3f48:	f503 0378 	add.w	r3, r3, #16252928	; 0xf80000
    3f4c:	f7fd f8fc 	bl	1148 <makeLine>
		sendMessage(servoExtend, 1, 0x373A);
    3f50:	f240 000c 	movw	r0, #12
    3f54:	f2c2 0000 	movt	r0, #8192	; 0x2000
    3f58:	f04f 0101 	mov.w	r1, #1
    3f5c:	f243 723a 	movw	r2, #14138	; 0x373a
    3f60:	f7fc fcce 	bl	900 <sendMessage>
		makeLine(1.0, 1.0);
    3f64:	f04f 0000 	mov.w	r0, #0
    3f68:	f04f 517e 	mov.w	r1, #1065353216	; 0x3f800000
    3f6c:	f501 01e0 	add.w	r1, r1, #7340032	; 0x700000
    3f70:	f04f 0200 	mov.w	r2, #0
    3f74:	f04f 537e 	mov.w	r3, #1065353216	; 0x3f800000
    3f78:	f503 03e0 	add.w	r3, r3, #7340032	; 0x700000
    3f7c:	f7fd f8e4 	bl	1148 <makeLine>
		makeLine(1.0, -1.0);
    3f80:	f04f 0000 	mov.w	r0, #0
    3f84:	f04f 517e 	mov.w	r1, #1065353216	; 0x3f800000
    3f88:	f501 01e0 	add.w	r1, r1, #7340032	; 0x700000
    3f8c:	f04f 0200 	mov.w	r2, #0
    3f90:	f04f 433f 	mov.w	r3, #3204448256	; 0xbf000000
    3f94:	f503 0370 	add.w	r3, r3, #15728640	; 0xf00000
    3f98:	f7fd f8d6 	bl	1148 <makeLine>
		makeLine(0.0, -2.0);
    3f9c:	f04f 0000 	mov.w	r0, #0
    3fa0:	f04f 0100 	mov.w	r1, #0
    3fa4:	f04f 0200 	mov.w	r2, #0
    3fa8:	f04f 4340 	mov.w	r3, #3221225472	; 0xc0000000
    3fac:	f7fd f8cc 	bl	1148 <makeLine>
		sendMessage(servoRetract, 1, 0x373A);
    3fb0:	f240 0008 	movw	r0, #8
    3fb4:	f2c2 0000 	movt	r0, #8192	; 0x2000
    3fb8:	f04f 0101 	mov.w	r1, #1
    3fbc:	f243 723a 	movw	r2, #14138	; 0x373a
    3fc0:	f7fc fc9e 	bl	900 <sendMessage>
		makeLine(0.0, -1.0);
    3fc4:	f04f 0000 	mov.w	r0, #0
    3fc8:	f04f 0100 	mov.w	r1, #0
    3fcc:	f04f 0200 	mov.w	r2, #0
    3fd0:	f04f 433f 	mov.w	r3, #3204448256	; 0xbf000000
    3fd4:	f503 0370 	add.w	r3, r3, #15728640	; 0xf00000
    3fd8:	f7fd f8b6 	bl	1148 <makeLine>
		sendMessage(servoExtend, 1, 0x373A);
    3fdc:	f240 000c 	movw	r0, #12
    3fe0:	f2c2 0000 	movt	r0, #8192	; 0x2000
    3fe4:	f04f 0101 	mov.w	r1, #1
    3fe8:	f243 723a 	movw	r2, #14138	; 0x373a
    3fec:	f7fc fc88 	bl	900 <sendMessage>
		sendMessage(servoRetract, 1, 0x373A);
    3ff0:	f240 0008 	movw	r0, #8
    3ff4:	f2c2 0000 	movt	r0, #8192	; 0x2000
    3ff8:	f04f 0101 	mov.w	r1, #1
    3ffc:	f243 723a 	movw	r2, #14138	; 0x373a
    4000:	f7fc fc7e 	bl	900 <sendMessage>
		makeLine(1.5, 4.5);
    4004:	f04f 0000 	mov.w	r0, #0
    4008:	f04f 517e 	mov.w	r1, #1065353216	; 0x3f800000
    400c:	f501 01f0 	add.w	r1, r1, #7864320	; 0x780000
    4010:	f04f 0200 	mov.w	r2, #0
    4014:	f04f 4380 	mov.w	r3, #1073741824	; 0x40000000
    4018:	f503 1390 	add.w	r3, r3, #1179648	; 0x120000
    401c:	f7fd f894 	bl	1148 <makeLine>
    4020:	f001 bbc9 	b.w	57b6 <MAIN_STACK_SIZE+0x37b6>
	}
	else if(character == 'k') {
    4024:	79fb      	ldrb	r3, [r7, #7]
    4026:	2b6b      	cmp	r3, #107	; 0x6b
    4028:	d179      	bne.n	411e <MAIN_STACK_SIZE+0x211e>
		makeLine(1.5, -1.0);
    402a:	f04f 0000 	mov.w	r0, #0
    402e:	f04f 517e 	mov.w	r1, #1065353216	; 0x3f800000
    4032:	f501 01f0 	add.w	r1, r1, #7864320	; 0x780000
    4036:	f04f 0200 	mov.w	r2, #0
    403a:	f04f 433f 	mov.w	r3, #3204448256	; 0xbf000000
    403e:	f503 0370 	add.w	r3, r3, #15728640	; 0xf00000
    4042:	f7fd f881 	bl	1148 <makeLine>
		sendMessage(servoExtend, 1, 0x373A);
    4046:	f240 000c 	movw	r0, #12
    404a:	f2c2 0000 	movt	r0, #8192	; 0x2000
    404e:	f04f 0101 	mov.w	r1, #1
    4052:	f243 723a 	movw	r2, #14138	; 0x373a
    4056:	f7fc fc53 	bl	900 <sendMessage>
		makeLine(0.0, -4.5);
    405a:	f04f 0000 	mov.w	r0, #0
    405e:	f04f 0100 	mov.w	r1, #0
    4062:	f04f 0200 	mov.w	r2, #0
    4066:	f04f 4340 	mov.w	r3, #3221225472	; 0xc0000000
    406a:	f503 1390 	add.w	r3, r3, #1179648	; 0x120000
    406e:	f7fd f86b 	bl	1148 <makeLine>
		sendMessage(servoRetract, 1, 0x373A);
    4072:	f240 0008 	movw	r0, #8
    4076:	f2c2 0000 	movt	r0, #8192	; 0x2000
    407a:	f04f 0101 	mov.w	r1, #1
    407e:	f243 723a 	movw	r2, #14138	; 0x373a
    4082:	f7fc fc3d 	bl	900 <sendMessage>
		makeLine(1.5, 1.5);
    4086:	f04f 0000 	mov.w	r0, #0
    408a:	f04f 517e 	mov.w	r1, #1065353216	; 0x3f800000
    408e:	f501 01f0 	add.w	r1, r1, #7864320	; 0x780000
    4092:	f04f 0200 	mov.w	r2, #0
    4096:	f04f 537e 	mov.w	r3, #1065353216	; 0x3f800000
    409a:	f503 03f0 	add.w	r3, r3, #7864320	; 0x780000
    409e:	f7fd f853 	bl	1148 <makeLine>
		sendMessage(servoExtend, 1, 0x373A);
    40a2:	f240 000c 	movw	r0, #12
    40a6:	f2c2 0000 	movt	r0, #8192	; 0x2000
    40aa:	f04f 0101 	mov.w	r1, #1
    40ae:	f243 723a 	movw	r2, #14138	; 0x373a
    40b2:	f7fc fc25 	bl	900 <sendMessage>
		makeLine(-1.5, 1.5);
    40b6:	f04f 0000 	mov.w	r0, #0
    40ba:	f04f 413f 	mov.w	r1, #3204448256	; 0xbf000000
    40be:	f501 0178 	add.w	r1, r1, #16252928	; 0xf80000
    40c2:	f04f 0200 	mov.w	r2, #0
    40c6:	f04f 537e 	mov.w	r3, #1065353216	; 0x3f800000
    40ca:	f503 03f0 	add.w	r3, r3, #7864320	; 0x780000
    40ce:	f7fd f83b 	bl	1148 <makeLine>
		makeLine(1.5, 1.5);
    40d2:	f04f 0000 	mov.w	r0, #0
    40d6:	f04f 517e 	mov.w	r1, #1065353216	; 0x3f800000
    40da:	f501 01f0 	add.w	r1, r1, #7864320	; 0x780000
    40de:	f04f 0200 	mov.w	r2, #0
    40e2:	f04f 537e 	mov.w	r3, #1065353216	; 0x3f800000
    40e6:	f503 03f0 	add.w	r3, r3, #7864320	; 0x780000
    40ea:	f7fd f82d 	bl	1148 <makeLine>
		sendMessage(servoRetract, 1, 0x373A);
    40ee:	f240 0008 	movw	r0, #8
    40f2:	f2c2 0000 	movt	r0, #8192	; 0x2000
    40f6:	f04f 0101 	mov.w	r1, #1
    40fa:	f243 723a 	movw	r2, #14138	; 0x373a
    40fe:	f7fc fbff 	bl	900 <sendMessage>
		makeLine(2.0, 1.0);
    4102:	f04f 0000 	mov.w	r0, #0
    4106:	f04f 4180 	mov.w	r1, #1073741824	; 0x40000000
    410a:	f04f 0200 	mov.w	r2, #0
    410e:	f04f 537e 	mov.w	r3, #1065353216	; 0x3f800000
    4112:	f503 03e0 	add.w	r3, r3, #7340032	; 0x700000
    4116:	f7fd f817 	bl	1148 <makeLine>
    411a:	f001 bb4c 	b.w	57b6 <MAIN_STACK_SIZE+0x37b6>
	}
	else if(character == 'l') {
    411e:	79fb      	ldrb	r3, [r7, #7]
    4120:	2b6c      	cmp	r3, #108	; 0x6c
    4122:	d13d      	bne.n	41a0 <MAIN_STACK_SIZE+0x21a0>
		makeLine(2.5, -1.0);
    4124:	f04f 0000 	mov.w	r0, #0
    4128:	f04f 4180 	mov.w	r1, #1073741824	; 0x40000000
    412c:	f501 2180 	add.w	r1, r1, #262144	; 0x40000
    4130:	f04f 0200 	mov.w	r2, #0
    4134:	f04f 433f 	mov.w	r3, #3204448256	; 0xbf000000
    4138:	f503 0370 	add.w	r3, r3, #15728640	; 0xf00000
    413c:	f7fd f804 	bl	1148 <makeLine>
		sendMessage(servoExtend, 1, 0x373A);
    4140:	f240 000c 	movw	r0, #12
    4144:	f2c2 0000 	movt	r0, #8192	; 0x2000
    4148:	f04f 0101 	mov.w	r1, #1
    414c:	f243 723a 	movw	r2, #14138	; 0x373a
    4150:	f7fc fbd6 	bl	900 <sendMessage>
		makeLine(0.0, -4.0);
    4154:	f04f 0000 	mov.w	r0, #0
    4158:	f04f 0100 	mov.w	r1, #0
    415c:	f04f 0200 	mov.w	r2, #0
    4160:	f04f 4340 	mov.w	r3, #3221225472	; 0xc0000000
    4164:	f503 1380 	add.w	r3, r3, #1048576	; 0x100000
    4168:	f7fc ffee 	bl	1148 <makeLine>
		sendMessage(servoRetract, 1, 0x373A);
    416c:	f240 0008 	movw	r0, #8
    4170:	f2c2 0000 	movt	r0, #8192	; 0x2000
    4174:	f04f 0101 	mov.w	r1, #1
    4178:	f243 723a 	movw	r2, #14138	; 0x373a
    417c:	f7fc fbc0 	bl	900 <sendMessage>
		makeLine(2.5, 5.0);
    4180:	f04f 0000 	mov.w	r0, #0
    4184:	f04f 4180 	mov.w	r1, #1073741824	; 0x40000000
    4188:	f501 2180 	add.w	r1, r1, #262144	; 0x40000
    418c:	f04f 0200 	mov.w	r2, #0
    4190:	f04f 4380 	mov.w	r3, #1073741824	; 0x40000000
    4194:	f503 13a0 	add.w	r3, r3, #1310720	; 0x140000
    4198:	f7fc ffd6 	bl	1148 <makeLine>
    419c:	f001 bb0b 	b.w	57b6 <MAIN_STACK_SIZE+0x37b6>
	}
	else if(character == 'm') {
    41a0:	79fb      	ldrb	r3, [r7, #7]
    41a2:	2b6d      	cmp	r3, #109	; 0x6d
    41a4:	d167      	bne.n	4276 <MAIN_STACK_SIZE+0x2276>
		makeLine(1.0, -1.0);
    41a6:	f04f 0000 	mov.w	r0, #0
    41aa:	f04f 517e 	mov.w	r1, #1065353216	; 0x3f800000
    41ae:	f501 01e0 	add.w	r1, r1, #7340032	; 0x700000
    41b2:	f04f 0200 	mov.w	r2, #0
    41b6:	f04f 433f 	mov.w	r3, #3204448256	; 0xbf000000
    41ba:	f503 0370 	add.w	r3, r3, #15728640	; 0xf00000
    41be:	f7fc ffc3 	bl	1148 <makeLine>
		sendMessage(servoExtend, 1, 0x373A);
    41c2:	f240 000c 	movw	r0, #12
    41c6:	f2c2 0000 	movt	r0, #8192	; 0x2000
    41ca:	f04f 0101 	mov.w	r1, #1
    41ce:	f243 723a 	movw	r2, #14138	; 0x373a
    41d2:	f7fc fb95 	bl	900 <sendMessage>
		makeLine(0.75, -2.5);
    41d6:	f04f 0000 	mov.w	r0, #0
    41da:	f04f 517e 	mov.w	r1, #1065353216	; 0x3f800000
    41de:	f501 01d0 	add.w	r1, r1, #6815744	; 0x680000
    41e2:	f04f 0200 	mov.w	r2, #0
    41e6:	f04f 4340 	mov.w	r3, #3221225472	; 0xc0000000
    41ea:	f503 2380 	add.w	r3, r3, #262144	; 0x40000
    41ee:	f7fc ffab 	bl	1148 <makeLine>
		makeLine(0.75, 2.5);
    41f2:	f04f 0000 	mov.w	r0, #0
    41f6:	f04f 517e 	mov.w	r1, #1065353216	; 0x3f800000
    41fa:	f501 01d0 	add.w	r1, r1, #6815744	; 0x680000
    41fe:	f04f 0200 	mov.w	r2, #0
    4202:	f04f 4380 	mov.w	r3, #1073741824	; 0x40000000
    4206:	f503 2380 	add.w	r3, r3, #262144	; 0x40000
    420a:	f7fc ff9d 	bl	1148 <makeLine>
		makeLine(0.75, -2.5);
    420e:	f04f 0000 	mov.w	r0, #0
    4212:	f04f 517e 	mov.w	r1, #1065353216	; 0x3f800000
    4216:	f501 01d0 	add.w	r1, r1, #6815744	; 0x680000
    421a:	f04f 0200 	mov.w	r2, #0
    421e:	f04f 4340 	mov.w	r3, #3221225472	; 0xc0000000
    4222:	f503 2380 	add.w	r3, r3, #262144	; 0x40000
    4226:	f7fc ff8f 	bl	1148 <makeLine>
		makeLine(0.75, 2.6);
    422a:	f04f 0000 	mov.w	r0, #0
    422e:	f04f 517e 	mov.w	r1, #1065353216	; 0x3f800000
    4232:	f501 01d0 	add.w	r1, r1, #6815744	; 0x680000
    4236:	f60f 43f8 	addw	r3, pc, #3320	; 0xcf8
    423a:	e9d3 2300 	ldrd	r2, r3, [r3]
    423e:	f7fc ff83 	bl	1148 <makeLine>
		sendMessage(servoRetract, 1, 0x373A);
    4242:	f240 0008 	movw	r0, #8
    4246:	f2c2 0000 	movt	r0, #8192	; 0x2000
    424a:	f04f 0101 	mov.w	r1, #1
    424e:	f243 723a 	movw	r2, #14138	; 0x373a
    4252:	f7fc fb55 	bl	900 <sendMessage>
		makeLine(1.0, 1.0);
    4256:	f04f 0000 	mov.w	r0, #0
    425a:	f04f 517e 	mov.w	r1, #1065353216	; 0x3f800000
    425e:	f501 01e0 	add.w	r1, r1, #7340032	; 0x700000
    4262:	f04f 0200 	mov.w	r2, #0
    4266:	f04f 537e 	mov.w	r3, #1065353216	; 0x3f800000
    426a:	f503 03e0 	add.w	r3, r3, #7340032	; 0x700000
    426e:	f7fc ff6b 	bl	1148 <makeLine>
    4272:	f001 baa0 	b.w	57b6 <MAIN_STACK_SIZE+0x37b6>
	}
	else if(character == 'n') {
    4276:	79fb      	ldrb	r3, [r7, #7]
    4278:	2b6e      	cmp	r3, #110	; 0x6e
    427a:	f040 8084 	bne.w	4386 <MAIN_STACK_SIZE+0x2386>
		makeLine(1.5, -1.0);
    427e:	f04f 0000 	mov.w	r0, #0
    4282:	f04f 517e 	mov.w	r1, #1065353216	; 0x3f800000
    4286:	f501 01f0 	add.w	r1, r1, #7864320	; 0x780000
    428a:	f04f 0200 	mov.w	r2, #0
    428e:	f04f 433f 	mov.w	r3, #3204448256	; 0xbf000000
    4292:	f503 0370 	add.w	r3, r3, #15728640	; 0xf00000
    4296:	f7fc ff57 	bl	1148 <makeLine>
		sendMessage(servoExtend, 1, 0x373A);
    429a:	f240 000c 	movw	r0, #12
    429e:	f2c2 0000 	movt	r0, #8192	; 0x2000
    42a2:	f04f 0101 	mov.w	r1, #1
    42a6:	f243 723a 	movw	r2, #14138	; 0x373a
    42aa:	f7fc fb29 	bl	900 <sendMessage>
		makeLine(0.0, -3.0);
    42ae:	f04f 0000 	mov.w	r0, #0
    42b2:	f04f 0100 	mov.w	r1, #0
    42b6:	f04f 0200 	mov.w	r2, #0
    42ba:	f04f 4340 	mov.w	r3, #3221225472	; 0xc0000000
    42be:	f503 2300 	add.w	r3, r3, #524288	; 0x80000
    42c2:	f7fc ff41 	bl	1148 <makeLine>
		sendMessage(servoRetract, 1, 0x373A);
    42c6:	f240 0008 	movw	r0, #8
    42ca:	f2c2 0000 	movt	r0, #8192	; 0x2000
    42ce:	f04f 0101 	mov.w	r1, #1
    42d2:	f243 723a 	movw	r2, #14138	; 0x373a
    42d6:	f7fc fb13 	bl	900 <sendMessage>
		makeLine(0.0, 1.0);
    42da:	f04f 0000 	mov.w	r0, #0
    42de:	f04f 0100 	mov.w	r1, #0
    42e2:	f04f 0200 	mov.w	r2, #0
    42e6:	f04f 537e 	mov.w	r3, #1065353216	; 0x3f800000
    42ea:	f503 03e0 	add.w	r3, r3, #7340032	; 0x700000
    42ee:	f7fc ff2b 	bl	1148 <makeLine>
		sendMessage(servoExtend, 1, 0x373A);
    42f2:	f240 000c 	movw	r0, #12
    42f6:	f2c2 0000 	movt	r0, #8192	; 0x2000
    42fa:	f04f 0101 	mov.w	r1, #1
    42fe:	f243 723a 	movw	r2, #14138	; 0x373a
    4302:	f7fc fafd 	bl	900 <sendMessage>
		makeLine(1.5, -1.0);
    4306:	f04f 0000 	mov.w	r0, #0
    430a:	f04f 517e 	mov.w	r1, #1065353216	; 0x3f800000
    430e:	f501 01f0 	add.w	r1, r1, #7864320	; 0x780000
    4312:	f04f 0200 	mov.w	r2, #0
    4316:	f04f 433f 	mov.w	r3, #3204448256	; 0xbf000000
    431a:	f503 0370 	add.w	r3, r3, #15728640	; 0xf00000
    431e:	f7fc ff13 	bl	1148 <makeLine>
		makeLine(1.5, 1.0);
    4322:	f04f 0000 	mov.w	r0, #0
    4326:	f04f 517e 	mov.w	r1, #1065353216	; 0x3f800000
    432a:	f501 01f0 	add.w	r1, r1, #7864320	; 0x780000
    432e:	f04f 0200 	mov.w	r2, #0
    4332:	f04f 537e 	mov.w	r3, #1065353216	; 0x3f800000
    4336:	f503 03e0 	add.w	r3, r3, #7340032	; 0x700000
    433a:	f7fc ff05 	bl	1148 <makeLine>
		makeLine(0.0, 2.0);
    433e:	f04f 0000 	mov.w	r0, #0
    4342:	f04f 0100 	mov.w	r1, #0
    4346:	f04f 0200 	mov.w	r2, #0
    434a:	f04f 4380 	mov.w	r3, #1073741824	; 0x40000000
    434e:	f7fc fefb 	bl	1148 <makeLine>
		sendMessage(servoRetract, 1, 0x373A);
    4352:	f240 0008 	movw	r0, #8
    4356:	f2c2 0000 	movt	r0, #8192	; 0x2000
    435a:	f04f 0101 	mov.w	r1, #1
    435e:	f243 723a 	movw	r2, #14138	; 0x373a
    4362:	f7fc facd 	bl	900 <sendMessage>
		makeLine(0.5, 1.0);
    4366:	f04f 0000 	mov.w	r0, #0
    436a:	f04f 517e 	mov.w	r1, #1065353216	; 0x3f800000
    436e:	f501 01c0 	add.w	r1, r1, #6291456	; 0x600000
    4372:	f04f 0200 	mov.w	r2, #0
    4376:	f04f 537e 	mov.w	r3, #1065353216	; 0x3f800000
    437a:	f503 03e0 	add.w	r3, r3, #7340032	; 0x700000
    437e:	f7fc fee3 	bl	1148 <makeLine>
    4382:	f001 ba18 	b.w	57b6 <MAIN_STACK_SIZE+0x37b6>
	}
	else if(character == 'o') {
    4386:	79fb      	ldrb	r3, [r7, #7]
    4388:	2b6f      	cmp	r3, #111	; 0x6f
    438a:	d165      	bne.n	4458 <MAIN_STACK_SIZE+0x2458>
		makeLine(1.5, -2.0);
    438c:	f04f 0000 	mov.w	r0, #0
    4390:	f04f 517e 	mov.w	r1, #1065353216	; 0x3f800000
    4394:	f501 01f0 	add.w	r1, r1, #7864320	; 0x780000
    4398:	f04f 0200 	mov.w	r2, #0
    439c:	f04f 4340 	mov.w	r3, #3221225472	; 0xc0000000
    43a0:	f7fc fed2 	bl	1148 <makeLine>
		sendMessage(servoExtend, 1, 0x373A);
    43a4:	f240 000c 	movw	r0, #12
    43a8:	f2c2 0000 	movt	r0, #8192	; 0x2000
    43ac:	f04f 0101 	mov.w	r1, #1
    43b0:	f243 723a 	movw	r2, #14138	; 0x373a
    43b4:	f7fc faa4 	bl	900 <sendMessage>
		makeLine(1.0, -1.0);
    43b8:	f04f 0000 	mov.w	r0, #0
    43bc:	f04f 517e 	mov.w	r1, #1065353216	; 0x3f800000
    43c0:	f501 01e0 	add.w	r1, r1, #7340032	; 0x700000
    43c4:	f04f 0200 	mov.w	r2, #0
    43c8:	f04f 433f 	mov.w	r3, #3204448256	; 0xbf000000
    43cc:	f503 0370 	add.w	r3, r3, #15728640	; 0xf00000
    43d0:	f7fc feba 	bl	1148 <makeLine>
		makeLine(1.0, 1.0);
    43d4:	f04f 0000 	mov.w	r0, #0
    43d8:	f04f 517e 	mov.w	r1, #1065353216	; 0x3f800000
    43dc:	f501 01e0 	add.w	r1, r1, #7340032	; 0x700000
    43e0:	f04f 0200 	mov.w	r2, #0
    43e4:	f04f 537e 	mov.w	r3, #1065353216	; 0x3f800000
    43e8:	f503 03e0 	add.w	r3, r3, #7340032	; 0x700000
    43ec:	f7fc feac 	bl	1148 <makeLine>
		makeLine(-1.0, 1.0);
    43f0:	f04f 0000 	mov.w	r0, #0
    43f4:	f04f 413f 	mov.w	r1, #3204448256	; 0xbf000000
    43f8:	f501 0170 	add.w	r1, r1, #15728640	; 0xf00000
    43fc:	f04f 0200 	mov.w	r2, #0
    4400:	f04f 537e 	mov.w	r3, #1065353216	; 0x3f800000
    4404:	f503 03e0 	add.w	r3, r3, #7340032	; 0x700000
    4408:	f7fc fe9e 	bl	1148 <makeLine>
		makeLine(-1.0, -1.0);
    440c:	f04f 0000 	mov.w	r0, #0
    4410:	f04f 413f 	mov.w	r1, #3204448256	; 0xbf000000
    4414:	f501 0170 	add.w	r1, r1, #15728640	; 0xf00000
    4418:	f04f 0200 	mov.w	r2, #0
    441c:	f04f 433f 	mov.w	r3, #3204448256	; 0xbf000000
    4420:	f503 0370 	add.w	r3, r3, #15728640	; 0xf00000
    4424:	f7fc fe90 	bl	1148 <makeLine>
		sendMessage(servoRetract, 1, 0x373A);
    4428:	f240 0008 	movw	r0, #8
    442c:	f2c2 0000 	movt	r0, #8192	; 0x2000
    4430:	f04f 0101 	mov.w	r1, #1
    4434:	f243 723a 	movw	r2, #14138	; 0x373a
    4438:	f7fc fa62 	bl	900 <sendMessage>
		makeLine(3.5, 2.0);
    443c:	f04f 0000 	mov.w	r0, #0
    4440:	f04f 4180 	mov.w	r1, #1073741824	; 0x40000000
    4444:	f501 2140 	add.w	r1, r1, #786432	; 0xc0000
    4448:	f04f 0200 	mov.w	r2, #0
    444c:	f04f 4380 	mov.w	r3, #1073741824	; 0x40000000
    4450:	f7fc fe7a 	bl	1148 <makeLine>
    4454:	f001 b9af 	b.w	57b6 <MAIN_STACK_SIZE+0x37b6>
	}
	else if(character == 'p') {
    4458:	79fb      	ldrb	r3, [r7, #7]
    445a:	2b70      	cmp	r3, #112	; 0x70
    445c:	d175      	bne.n	454a <MAIN_STACK_SIZE+0x254a>
		makeLine(1.5, -1.0);
    445e:	f04f 0000 	mov.w	r0, #0
    4462:	f04f 517e 	mov.w	r1, #1065353216	; 0x3f800000
    4466:	f501 01f0 	add.w	r1, r1, #7864320	; 0x780000
    446a:	f04f 0200 	mov.w	r2, #0
    446e:	f04f 433f 	mov.w	r3, #3204448256	; 0xbf000000
    4472:	f503 0370 	add.w	r3, r3, #15728640	; 0xf00000
    4476:	f7fc fe67 	bl	1148 <makeLine>
		sendMessage(servoExtend, 1, 0x373A);
    447a:	f240 000c 	movw	r0, #12
    447e:	f2c2 0000 	movt	r0, #8192	; 0x2000
    4482:	f04f 0101 	mov.w	r1, #1
    4486:	f243 723a 	movw	r2, #14138	; 0x373a
    448a:	f7fc fa39 	bl	900 <sendMessage>
		makeLine(0.0, -3.0);
    448e:	f04f 0000 	mov.w	r0, #0
    4492:	f04f 0100 	mov.w	r1, #0
    4496:	f04f 0200 	mov.w	r2, #0
    449a:	f04f 4340 	mov.w	r3, #3221225472	; 0xc0000000
    449e:	f503 2300 	add.w	r3, r3, #524288	; 0x80000
    44a2:	f7fc fe51 	bl	1148 <makeLine>
		makeLine(1.0, -1.0);
    44a6:	f04f 0000 	mov.w	r0, #0
    44aa:	f04f 517e 	mov.w	r1, #1065353216	; 0x3f800000
    44ae:	f501 01e0 	add.w	r1, r1, #7340032	; 0x700000
    44b2:	f04f 0200 	mov.w	r2, #0
    44b6:	f04f 433f 	mov.w	r3, #3204448256	; 0xbf000000
    44ba:	f503 0370 	add.w	r3, r3, #15728640	; 0xf00000
    44be:	f7fc fe43 	bl	1148 <makeLine>
		makeLine(1.0, 1.0);
    44c2:	f04f 0000 	mov.w	r0, #0
    44c6:	f04f 517e 	mov.w	r1, #1065353216	; 0x3f800000
    44ca:	f501 01e0 	add.w	r1, r1, #7340032	; 0x700000
    44ce:	f04f 0200 	mov.w	r2, #0
    44d2:	f04f 537e 	mov.w	r3, #1065353216	; 0x3f800000
    44d6:	f503 03e0 	add.w	r3, r3, #7340032	; 0x700000
    44da:	f7fc fe35 	bl	1148 <makeLine>
		makeLine(-1.0, 1.0);
    44de:	f04f 0000 	mov.w	r0, #0
    44e2:	f04f 413f 	mov.w	r1, #3204448256	; 0xbf000000
    44e6:	f501 0170 	add.w	r1, r1, #15728640	; 0xf00000
    44ea:	f04f 0200 	mov.w	r2, #0
    44ee:	f04f 537e 	mov.w	r3, #1065353216	; 0x3f800000
    44f2:	f503 03e0 	add.w	r3, r3, #7340032	; 0x700000
    44f6:	f7fc fe27 	bl	1148 <makeLine>
		makeLine(-1.0, -1.0);
    44fa:	f04f 0000 	mov.w	r0, #0
    44fe:	f04f 413f 	mov.w	r1, #3204448256	; 0xbf000000
    4502:	f501 0170 	add.w	r1, r1, #15728640	; 0xf00000
    4506:	f04f 0200 	mov.w	r2, #0
    450a:	f04f 433f 	mov.w	r3, #3204448256	; 0xbf000000
    450e:	f503 0370 	add.w	r3, r3, #15728640	; 0xf00000
    4512:	f7fc fe19 	bl	1148 <makeLine>
		sendMessage(servoRetract, 1, 0x373A);
    4516:	f240 0008 	movw	r0, #8
    451a:	f2c2 0000 	movt	r0, #8192	; 0x2000
    451e:	f04f 0101 	mov.w	r1, #1
    4522:	f243 723a 	movw	r2, #14138	; 0x373a
    4526:	f7fc f9eb 	bl	900 <sendMessage>
		makeLine(3.5, 4.0);
    452a:	f04f 0000 	mov.w	r0, #0
    452e:	f04f 4180 	mov.w	r1, #1073741824	; 0x40000000
    4532:	f501 2140 	add.w	r1, r1, #786432	; 0xc0000
    4536:	f04f 0200 	mov.w	r2, #0
    453a:	f04f 4380 	mov.w	r3, #1073741824	; 0x40000000
    453e:	f503 1380 	add.w	r3, r3, #1048576	; 0x100000
    4542:	f7fc fe01 	bl	1148 <makeLine>
    4546:	f001 b936 	b.w	57b6 <MAIN_STACK_SIZE+0x37b6>
	}
	else if(character == 'q') {
    454a:	79fb      	ldrb	r3, [r7, #7]
    454c:	2b71      	cmp	r3, #113	; 0x71
    454e:	f040 8082 	bne.w	4656 <MAIN_STACK_SIZE+0x2656>
		makeLine(3.0, -4.0);
    4552:	f04f 0000 	mov.w	r0, #0
    4556:	f04f 4180 	mov.w	r1, #1073741824	; 0x40000000
    455a:	f501 2100 	add.w	r1, r1, #524288	; 0x80000
    455e:	f04f 0200 	mov.w	r2, #0
    4562:	f04f 4340 	mov.w	r3, #3221225472	; 0xc0000000
    4566:	f503 1380 	add.w	r3, r3, #1048576	; 0x100000
    456a:	f7fc fded 	bl	1148 <makeLine>
		sendMessage(servoExtend, 1, 0x373A);
    456e:	f240 000c 	movw	r0, #12
    4572:	f2c2 0000 	movt	r0, #8192	; 0x2000
    4576:	f04f 0101 	mov.w	r1, #1
    457a:	f243 723a 	movw	r2, #14138	; 0x373a
    457e:	f7fc f9bf 	bl	900 <sendMessage>
		makeLine(-1.0, 1.0);
    4582:	f04f 0000 	mov.w	r0, #0
    4586:	f04f 413f 	mov.w	r1, #3204448256	; 0xbf000000
    458a:	f501 0170 	add.w	r1, r1, #15728640	; 0xf00000
    458e:	f04f 0200 	mov.w	r2, #0
    4592:	f04f 537e 	mov.w	r3, #1065353216	; 0x3f800000
    4596:	f503 03e0 	add.w	r3, r3, #7340032	; 0x700000
    459a:	f7fc fdd5 	bl	1148 <makeLine>
		makeLine(-1.0, -1.0);
    459e:	f04f 0000 	mov.w	r0, #0
    45a2:	f04f 413f 	mov.w	r1, #3204448256	; 0xbf000000
    45a6:	f501 0170 	add.w	r1, r1, #15728640	; 0xf00000
    45aa:	f04f 0200 	mov.w	r2, #0
    45ae:	f04f 433f 	mov.w	r3, #3204448256	; 0xbf000000
    45b2:	f503 0370 	add.w	r3, r3, #15728640	; 0xf00000
    45b6:	f7fc fdc7 	bl	1148 <makeLine>
		makeLine(1.0, -1.0);
    45ba:	f04f 0000 	mov.w	r0, #0
    45be:	f04f 517e 	mov.w	r1, #1065353216	; 0x3f800000
    45c2:	f501 01e0 	add.w	r1, r1, #7340032	; 0x700000
    45c6:	f04f 0200 	mov.w	r2, #0
    45ca:	f04f 433f 	mov.w	r3, #3204448256	; 0xbf000000
    45ce:	f503 0370 	add.w	r3, r3, #15728640	; 0xf00000
    45d2:	f7fc fdb9 	bl	1148 <makeLine>
		makeLine(1.0, 1.0);
    45d6:	f04f 0000 	mov.w	r0, #0
    45da:	f04f 517e 	mov.w	r1, #1065353216	; 0x3f800000
    45de:	f501 01e0 	add.w	r1, r1, #7340032	; 0x700000
    45e2:	f04f 0200 	mov.w	r2, #0
    45e6:	f04f 537e 	mov.w	r3, #1065353216	; 0x3f800000
    45ea:	f503 03e0 	add.w	r3, r3, #7340032	; 0x700000
    45ee:	f7fc fdab 	bl	1148 <makeLine>
		makeLine(0.0, 3.0);
    45f2:	f04f 0000 	mov.w	r0, #0
    45f6:	f04f 0100 	mov.w	r1, #0
    45fa:	f04f 0200 	mov.w	r2, #0
    45fe:	f04f 4380 	mov.w	r3, #1073741824	; 0x40000000
    4602:	f503 2300 	add.w	r3, r3, #524288	; 0x80000
    4606:	f7fc fd9f 	bl	1148 <makeLine>
		makeLine(1.0, -1.0);
    460a:	f04f 0000 	mov.w	r0, #0
    460e:	f04f 517e 	mov.w	r1, #1065353216	; 0x3f800000
    4612:	f501 01e0 	add.w	r1, r1, #7340032	; 0x700000
    4616:	f04f 0200 	mov.w	r2, #0
    461a:	f04f 433f 	mov.w	r3, #3204448256	; 0xbf000000
    461e:	f503 0370 	add.w	r3, r3, #15728640	; 0xf00000
    4622:	f7fc fd91 	bl	1148 <makeLine>
		sendMessage(servoRetract, 1, 0x373A);
    4626:	f240 0008 	movw	r0, #8
    462a:	f2c2 0000 	movt	r0, #8192	; 0x2000
    462e:	f04f 0101 	mov.w	r1, #1
    4632:	f243 723a 	movw	r2, #14138	; 0x373a
    4636:	f7fc f963 	bl	900 <sendMessage>
		makeLine(1.0, 2.0);
    463a:	f04f 0000 	mov.w	r0, #0
    463e:	f04f 517e 	mov.w	r1, #1065353216	; 0x3f800000
    4642:	f501 01e0 	add.w	r1, r1, #7340032	; 0x700000
    4646:	f04f 0200 	mov.w	r2, #0
    464a:	f04f 4380 	mov.w	r3, #1073741824	; 0x40000000
    464e:	f7fc fd7b 	bl	1148 <makeLine>
    4652:	f001 b8b0 	b.w	57b6 <MAIN_STACK_SIZE+0x37b6>
	}
	else if(character == 'r') {
    4656:	79fb      	ldrb	r3, [r7, #7]
    4658:	2b72      	cmp	r3, #114	; 0x72
    465a:	d179      	bne.n	4750 <MAIN_STACK_SIZE+0x2750>
		makeLine(1.5, -1.0);
    465c:	f04f 0000 	mov.w	r0, #0
    4660:	f04f 517e 	mov.w	r1, #1065353216	; 0x3f800000
    4664:	f501 01f0 	add.w	r1, r1, #7864320	; 0x780000
    4668:	f04f 0200 	mov.w	r2, #0
    466c:	f04f 433f 	mov.w	r3, #3204448256	; 0xbf000000
    4670:	f503 0370 	add.w	r3, r3, #15728640	; 0xf00000
    4674:	f7fc fd68 	bl	1148 <makeLine>
		sendMessage(servoExtend, 1, 0x373A);
    4678:	f240 000c 	movw	r0, #12
    467c:	f2c2 0000 	movt	r0, #8192	; 0x2000
    4680:	f04f 0101 	mov.w	r1, #1
    4684:	f243 723a 	movw	r2, #14138	; 0x373a
    4688:	f7fc f93a 	bl	900 <sendMessage>
		makeLine(0.0, -3.0);
    468c:	f04f 0000 	mov.w	r0, #0
    4690:	f04f 0100 	mov.w	r1, #0
    4694:	f04f 0200 	mov.w	r2, #0
    4698:	f04f 4340 	mov.w	r3, #3221225472	; 0xc0000000
    469c:	f503 2300 	add.w	r3, r3, #524288	; 0x80000
    46a0:	f7fc fd52 	bl	1148 <makeLine>
		sendMessage(servoRetract, 1, 0x373A);
    46a4:	f240 0008 	movw	r0, #8
    46a8:	f2c2 0000 	movt	r0, #8192	; 0x2000
    46ac:	f04f 0101 	mov.w	r1, #1
    46b0:	f243 723a 	movw	r2, #14138	; 0x373a
    46b4:	f7fc f924 	bl	900 <sendMessage>
		makeLine(0.0, 1.0);
    46b8:	f04f 0000 	mov.w	r0, #0
    46bc:	f04f 0100 	mov.w	r1, #0
    46c0:	f04f 0200 	mov.w	r2, #0
    46c4:	f04f 537e 	mov.w	r3, #1065353216	; 0x3f800000
    46c8:	f503 03e0 	add.w	r3, r3, #7340032	; 0x700000
    46cc:	f7fc fd3c 	bl	1148 <makeLine>
		sendMessage(servoExtend, 1, 0x373A);
    46d0:	f240 000c 	movw	r0, #12
    46d4:	f2c2 0000 	movt	r0, #8192	; 0x2000
    46d8:	f04f 0101 	mov.w	r1, #1
    46dc:	f243 723a 	movw	r2, #14138	; 0x373a
    46e0:	f7fc f90e 	bl	900 <sendMessage>
		makeLine(1.5, -1.5);
    46e4:	f04f 0000 	mov.w	r0, #0
    46e8:	f04f 517e 	mov.w	r1, #1065353216	; 0x3f800000
    46ec:	f501 01f0 	add.w	r1, r1, #7864320	; 0x780000
    46f0:	f04f 0200 	mov.w	r2, #0
    46f4:	f04f 433f 	mov.w	r3, #3204448256	; 0xbf000000
    46f8:	f503 0378 	add.w	r3, r3, #16252928	; 0xf80000
    46fc:	f7fc fd24 	bl	1148 <makeLine>
		makeLine(1.5, 1.5);
    4700:	f04f 0000 	mov.w	r0, #0
    4704:	f04f 517e 	mov.w	r1, #1065353216	; 0x3f800000
    4708:	f501 01f0 	add.w	r1, r1, #7864320	; 0x780000
    470c:	f04f 0200 	mov.w	r2, #0
    4710:	f04f 537e 	mov.w	r3, #1065353216	; 0x3f800000
    4714:	f503 03f0 	add.w	r3, r3, #7864320	; 0x780000
    4718:	f7fc fd16 	bl	1148 <makeLine>
		sendMessage(servoRetract, 1, 0x373A);
    471c:	f240 0008 	movw	r0, #8
    4720:	f2c2 0000 	movt	r0, #8192	; 0x2000
    4724:	f04f 0101 	mov.w	r1, #1
    4728:	f243 723a 	movw	r2, #14138	; 0x373a
    472c:	f7fc f8e8 	bl	900 <sendMessage>
		makeLine(0.5, 3.0);
    4730:	f04f 0000 	mov.w	r0, #0
    4734:	f04f 517e 	mov.w	r1, #1065353216	; 0x3f800000
    4738:	f501 01c0 	add.w	r1, r1, #6291456	; 0x600000
    473c:	f04f 0200 	mov.w	r2, #0
    4740:	f04f 4380 	mov.w	r3, #1073741824	; 0x40000000
    4744:	f503 2300 	add.w	r3, r3, #524288	; 0x80000
    4748:	f7fc fcfe 	bl	1148 <makeLine>
    474c:	f001 b833 	b.w	57b6 <MAIN_STACK_SIZE+0x37b6>
	}
	else if(character == 's') {
    4750:	79fb      	ldrb	r3, [r7, #7]
    4752:	2b73      	cmp	r3, #115	; 0x73
    4754:	d177      	bne.n	4846 <MAIN_STACK_SIZE+0x2846>
		makeLine(1.0, -1.5);
    4756:	f04f 0000 	mov.w	r0, #0
    475a:	f04f 517e 	mov.w	r1, #1065353216	; 0x3f800000
    475e:	f501 01e0 	add.w	r1, r1, #7340032	; 0x700000
    4762:	f04f 0200 	mov.w	r2, #0
    4766:	f04f 433f 	mov.w	r3, #3204448256	; 0xbf000000
    476a:	f503 0378 	add.w	r3, r3, #16252928	; 0xf80000
    476e:	f7fc fceb 	bl	1148 <makeLine>
		sendMessage(servoExtend, 1, 0x373A);
    4772:	f240 000c 	movw	r0, #12
    4776:	f2c2 0000 	movt	r0, #8192	; 0x2000
    477a:	f04f 0101 	mov.w	r1, #1
    477e:	f243 723a 	movw	r2, #14138	; 0x373a
    4782:	f7fc f8bd 	bl	900 <sendMessage>
		makeLine(1.5, 1.0);
    4786:	f04f 0000 	mov.w	r0, #0
    478a:	f04f 517e 	mov.w	r1, #1065353216	; 0x3f800000
    478e:	f501 01f0 	add.w	r1, r1, #7864320	; 0x780000
    4792:	f04f 0200 	mov.w	r2, #0
    4796:	f04f 537e 	mov.w	r3, #1065353216	; 0x3f800000
    479a:	f503 03e0 	add.w	r3, r3, #7340032	; 0x700000
    479e:	f7fc fcd3 	bl	1148 <makeLine>
		makeLine(1.5, -1.0);
    47a2:	f04f 0000 	mov.w	r0, #0
    47a6:	f04f 517e 	mov.w	r1, #1065353216	; 0x3f800000
    47aa:	f501 01f0 	add.w	r1, r1, #7864320	; 0x780000
    47ae:	f04f 0200 	mov.w	r2, #0
    47b2:	f04f 433f 	mov.w	r3, #3204448256	; 0xbf000000
    47b6:	f503 0370 	add.w	r3, r3, #15728640	; 0xf00000
    47ba:	f7fc fcc5 	bl	1148 <makeLine>
		makeLine(-3.0, -1.5);
    47be:	f04f 0000 	mov.w	r0, #0
    47c2:	f04f 4140 	mov.w	r1, #3221225472	; 0xc0000000
    47c6:	f501 2100 	add.w	r1, r1, #524288	; 0x80000
    47ca:	f04f 0200 	mov.w	r2, #0
    47ce:	f04f 433f 	mov.w	r3, #3204448256	; 0xbf000000
    47d2:	f503 0378 	add.w	r3, r3, #16252928	; 0xf80000
    47d6:	f7fc fcb7 	bl	1148 <makeLine>
		makeLine(1.5, -1.0);
    47da:	f04f 0000 	mov.w	r0, #0
    47de:	f04f 517e 	mov.w	r1, #1065353216	; 0x3f800000
    47e2:	f501 01f0 	add.w	r1, r1, #7864320	; 0x780000
    47e6:	f04f 0200 	mov.w	r2, #0
    47ea:	f04f 433f 	mov.w	r3, #3204448256	; 0xbf000000
    47ee:	f503 0370 	add.w	r3, r3, #15728640	; 0xf00000
    47f2:	f7fc fca9 	bl	1148 <makeLine>
		makeLine(1.5, 1.0);
    47f6:	f04f 0000 	mov.w	r0, #0
    47fa:	f04f 517e 	mov.w	r1, #1065353216	; 0x3f800000
    47fe:	f501 01f0 	add.w	r1, r1, #7864320	; 0x780000
    4802:	f04f 0200 	mov.w	r2, #0
    4806:	f04f 537e 	mov.w	r3, #1065353216	; 0x3f800000
    480a:	f503 03e0 	add.w	r3, r3, #7340032	; 0x700000
    480e:	f7fc fc9b 	bl	1148 <makeLine>
		sendMessage(servoRetract, 1, 0x373A);
    4812:	f240 0008 	movw	r0, #8
    4816:	f2c2 0000 	movt	r0, #8192	; 0x2000
    481a:	f04f 0101 	mov.w	r1, #1
    481e:	f243 723a 	movw	r2, #14138	; 0x373a
    4822:	f7fc f86d 	bl	900 <sendMessage>
		makeLine(1.0, 3.0);
    4826:	f04f 0000 	mov.w	r0, #0
    482a:	f04f 517e 	mov.w	r1, #1065353216	; 0x3f800000
    482e:	f501 01e0 	add.w	r1, r1, #7340032	; 0x700000
    4832:	f04f 0200 	mov.w	r2, #0
    4836:	f04f 4380 	mov.w	r3, #1073741824	; 0x40000000
    483a:	f503 2300 	add.w	r3, r3, #524288	; 0x80000
    483e:	f7fc fc83 	bl	1148 <makeLine>
    4842:	f000 bfb8 	b.w	57b6 <MAIN_STACK_SIZE+0x37b6>
	}
	else if(character == 't') {
    4846:	79fb      	ldrb	r3, [r7, #7]
    4848:	2b74      	cmp	r3, #116	; 0x74
    484a:	d16b      	bne.n	4924 <MAIN_STACK_SIZE+0x2924>
		makeLine(1.0, -4.0);
    484c:	f04f 0000 	mov.w	r0, #0
    4850:	f04f 517e 	mov.w	r1, #1065353216	; 0x3f800000
    4854:	f501 01e0 	add.w	r1, r1, #7340032	; 0x700000
    4858:	f04f 0200 	mov.w	r2, #0
    485c:	f04f 4340 	mov.w	r3, #3221225472	; 0xc0000000
    4860:	f503 1380 	add.w	r3, r3, #1048576	; 0x100000
    4864:	f7fc fc70 	bl	1148 <makeLine>
		sendMessage(servoExtend, 1, 0x373A);
    4868:	f240 000c 	movw	r0, #12
    486c:	f2c2 0000 	movt	r0, #8192	; 0x2000
    4870:	f04f 0101 	mov.w	r1, #1
    4874:	f243 723a 	movw	r2, #14138	; 0x373a
    4878:	f7fc f842 	bl	900 <sendMessage>
		makeLine(3.0, 0.0);
    487c:	f04f 0000 	mov.w	r0, #0
    4880:	f04f 4180 	mov.w	r1, #1073741824	; 0x40000000
    4884:	f501 2100 	add.w	r1, r1, #524288	; 0x80000
    4888:	f04f 0200 	mov.w	r2, #0
    488c:	f04f 0300 	mov.w	r3, #0
    4890:	f7fc fc5a 	bl	1148 <makeLine>
		sendMessage(servoRetract, 1, 0x373A);
    4894:	f240 0008 	movw	r0, #8
    4898:	f2c2 0000 	movt	r0, #8192	; 0x2000
    489c:	f04f 0101 	mov.w	r1, #1
    48a0:	f243 723a 	movw	r2, #14138	; 0x373a
    48a4:	f7fc f82c 	bl	900 <sendMessage>
		makeLine(-1.5, -1.0);
    48a8:	f04f 0000 	mov.w	r0, #0
    48ac:	f04f 413f 	mov.w	r1, #3204448256	; 0xbf000000
    48b0:	f501 0178 	add.w	r1, r1, #16252928	; 0xf80000
    48b4:	f04f 0200 	mov.w	r2, #0
    48b8:	f04f 433f 	mov.w	r3, #3204448256	; 0xbf000000
    48bc:	f503 0370 	add.w	r3, r3, #15728640	; 0xf00000
    48c0:	f7fc fc42 	bl	1148 <makeLine>
		sendMessage(servoExtend, 1, 0x373A);
    48c4:	f240 000c 	movw	r0, #12
    48c8:	f2c2 0000 	movt	r0, #8192	; 0x2000
    48cc:	f04f 0101 	mov.w	r1, #1
    48d0:	f243 723a 	movw	r2, #14138	; 0x373a
    48d4:	f7fc f814 	bl	900 <sendMessage>
		makeLine(0.0, 4.0);
    48d8:	f04f 0000 	mov.w	r0, #0
    48dc:	f04f 0100 	mov.w	r1, #0
    48e0:	f04f 0200 	mov.w	r2, #0
    48e4:	f04f 4380 	mov.w	r3, #1073741824	; 0x40000000
    48e8:	f503 1380 	add.w	r3, r3, #1048576	; 0x100000
    48ec:	f7fc fc2c 	bl	1148 <makeLine>
		sendMessage(servoRetract, 1, 0x373A);
    48f0:	f240 0008 	movw	r0, #8
    48f4:	f2c2 0000 	movt	r0, #8192	; 0x2000
    48f8:	f04f 0101 	mov.w	r1, #1
    48fc:	f243 723a 	movw	r2, #14138	; 0x373a
    4900:	f7fb fffe 	bl	900 <sendMessage>
		makeLine(2.5, 1.0);
    4904:	f04f 0000 	mov.w	r0, #0
    4908:	f04f 4180 	mov.w	r1, #1073741824	; 0x40000000
    490c:	f501 2180 	add.w	r1, r1, #262144	; 0x40000
    4910:	f04f 0200 	mov.w	r2, #0
    4914:	f04f 537e 	mov.w	r3, #1065353216	; 0x3f800000
    4918:	f503 03e0 	add.w	r3, r3, #7340032	; 0x700000
    491c:	f7fc fc14 	bl	1148 <makeLine>
    4920:	f000 bf49 	b.w	57b6 <MAIN_STACK_SIZE+0x37b6>
	}
	else if(character == 'u') {
    4924:	79fb      	ldrb	r3, [r7, #7]
    4926:	2b75      	cmp	r3, #117	; 0x75
    4928:	f040 808e 	bne.w	4a48 <MAIN_STACK_SIZE+0x2a48>
		makeLine(1.0, -4.0);
    492c:	f04f 0000 	mov.w	r0, #0
    4930:	f04f 517e 	mov.w	r1, #1065353216	; 0x3f800000
    4934:	f501 01e0 	add.w	r1, r1, #7340032	; 0x700000
    4938:	f04f 0200 	mov.w	r2, #0
    493c:	f04f 4340 	mov.w	r3, #3221225472	; 0xc0000000
    4940:	f503 1380 	add.w	r3, r3, #1048576	; 0x100000
    4944:	f7fc fc00 	bl	1148 <makeLine>
		sendMessage(servoExtend, 1, 0x373A);
    4948:	f240 000c 	movw	r0, #12
    494c:	f2c2 0000 	movt	r0, #8192	; 0x2000
    4950:	f04f 0101 	mov.w	r1, #1
    4954:	f243 723a 	movw	r2, #14138	; 0x373a
    4958:	f7fb ffd2 	bl	900 <sendMessage>
		makeLine(0.0, 2.0);
    495c:	f04f 0000 	mov.w	r0, #0
    4960:	f04f 0100 	mov.w	r1, #0
    4964:	f04f 0200 	mov.w	r2, #0
    4968:	f04f 4380 	mov.w	r3, #1073741824	; 0x40000000
    496c:	f7fc fbec 	bl	1148 <makeLine>
		makeLine(1.0, 1.0);
    4970:	f04f 0000 	mov.w	r0, #0
    4974:	f04f 517e 	mov.w	r1, #1065353216	; 0x3f800000
    4978:	f501 01e0 	add.w	r1, r1, #7340032	; 0x700000
    497c:	f04f 0200 	mov.w	r2, #0
    4980:	f04f 537e 	mov.w	r3, #1065353216	; 0x3f800000
    4984:	f503 03e0 	add.w	r3, r3, #7340032	; 0x700000
    4988:	f7fc fbde 	bl	1148 <makeLine>
		makeLine(1.0, 0.0);
    498c:	f04f 0000 	mov.w	r0, #0
    4990:	f04f 517e 	mov.w	r1, #1065353216	; 0x3f800000
    4994:	f501 01e0 	add.w	r1, r1, #7340032	; 0x700000
    4998:	f04f 0200 	mov.w	r2, #0
    499c:	f04f 0300 	mov.w	r3, #0
    49a0:	f7fc fbd2 	bl	1148 <makeLine>
		makeLine(1.0, -1.0);
    49a4:	f04f 0000 	mov.w	r0, #0
    49a8:	f04f 517e 	mov.w	r1, #1065353216	; 0x3f800000
    49ac:	f501 01e0 	add.w	r1, r1, #7340032	; 0x700000
    49b0:	f04f 0200 	mov.w	r2, #0
    49b4:	f04f 433f 	mov.w	r3, #3204448256	; 0xbf000000
    49b8:	f503 0370 	add.w	r3, r3, #15728640	; 0xf00000
    49bc:	f7fc fbc4 	bl	1148 <makeLine>
		sendMessage(servoRetract, 1, 0x373A);
    49c0:	f240 0008 	movw	r0, #8
    49c4:	f2c2 0000 	movt	r0, #8192	; 0x2000
    49c8:	f04f 0101 	mov.w	r1, #1
    49cc:	f243 723a 	movw	r2, #14138	; 0x373a
    49d0:	f7fb ff96 	bl	900 <sendMessage>
		makeLine(0.0, -2.0);
    49d4:	f04f 0000 	mov.w	r0, #0
    49d8:	f04f 0100 	mov.w	r1, #0
    49dc:	f04f 0200 	mov.w	r2, #0
    49e0:	f04f 4340 	mov.w	r3, #3221225472	; 0xc0000000
    49e4:	f7fc fbb0 	bl	1148 <makeLine>
		sendMessage(servoExtend, 1, 0x373A);
    49e8:	f240 000c 	movw	r0, #12
    49ec:	f2c2 0000 	movt	r0, #8192	; 0x2000
    49f0:	f04f 0101 	mov.w	r1, #1
    49f4:	f243 723a 	movw	r2, #14138	; 0x373a
    49f8:	f7fb ff82 	bl	900 <sendMessage>
		makeLine(0.0, 3.0);
    49fc:	f04f 0000 	mov.w	r0, #0
    4a00:	f04f 0100 	mov.w	r1, #0
    4a04:	f04f 0200 	mov.w	r2, #0
    4a08:	f04f 4380 	mov.w	r3, #1073741824	; 0x40000000
    4a0c:	f503 2300 	add.w	r3, r3, #524288	; 0x80000
    4a10:	f7fc fb9a 	bl	1148 <makeLine>
		sendMessage(servoRetract, 1, 0x373A);
    4a14:	f240 0008 	movw	r0, #8
    4a18:	f2c2 0000 	movt	r0, #8192	; 0x2000
    4a1c:	f04f 0101 	mov.w	r1, #1
    4a20:	f243 723a 	movw	r2, #14138	; 0x373a
    4a24:	f7fb ff6c 	bl	900 <sendMessage>
		makeLine(1.0, 1.0);
    4a28:	f04f 0000 	mov.w	r0, #0
    4a2c:	f04f 517e 	mov.w	r1, #1065353216	; 0x3f800000
    4a30:	f501 01e0 	add.w	r1, r1, #7340032	; 0x700000
    4a34:	f04f 0200 	mov.w	r2, #0
    4a38:	f04f 537e 	mov.w	r3, #1065353216	; 0x3f800000
    4a3c:	f503 03e0 	add.w	r3, r3, #7340032	; 0x700000
    4a40:	f7fc fb82 	bl	1148 <makeLine>
    4a44:	f000 beb7 	b.w	57b6 <MAIN_STACK_SIZE+0x37b6>
	}
	else if(character == 'v') {
    4a48:	79fb      	ldrb	r3, [r7, #7]
    4a4a:	2b76      	cmp	r3, #118	; 0x76
    4a4c:	d14d      	bne.n	4aea <MAIN_STACK_SIZE+0x2aea>
		makeLine(1.0, -4.0);
    4a4e:	f04f 0000 	mov.w	r0, #0
    4a52:	f04f 517e 	mov.w	r1, #1065353216	; 0x3f800000
    4a56:	f501 01e0 	add.w	r1, r1, #7340032	; 0x700000
    4a5a:	f04f 0200 	mov.w	r2, #0
    4a5e:	f04f 4340 	mov.w	r3, #3221225472	; 0xc0000000
    4a62:	f503 1380 	add.w	r3, r3, #1048576	; 0x100000
    4a66:	f7fc fb6f 	bl	1148 <makeLine>
		sendMessage(servoExtend, 1, 0x373A);
    4a6a:	f240 000c 	movw	r0, #12
    4a6e:	f2c2 0000 	movt	r0, #8192	; 0x2000
    4a72:	f04f 0101 	mov.w	r1, #1
    4a76:	f243 723a 	movw	r2, #14138	; 0x373a
    4a7a:	f7fb ff41 	bl	900 <sendMessage>
		makeLine(1.5, 3.0);
    4a7e:	f04f 0000 	mov.w	r0, #0
    4a82:	f04f 517e 	mov.w	r1, #1065353216	; 0x3f800000
    4a86:	f501 01f0 	add.w	r1, r1, #7864320	; 0x780000
    4a8a:	f04f 0200 	mov.w	r2, #0
    4a8e:	f04f 4380 	mov.w	r3, #1073741824	; 0x40000000
    4a92:	f503 2300 	add.w	r3, r3, #524288	; 0x80000
    4a96:	f7fc fb57 	bl	1148 <makeLine>
		makeLine(1.5, -3.0);
    4a9a:	f04f 0000 	mov.w	r0, #0
    4a9e:	f04f 517e 	mov.w	r1, #1065353216	; 0x3f800000
    4aa2:	f501 01f0 	add.w	r1, r1, #7864320	; 0x780000
    4aa6:	f04f 0200 	mov.w	r2, #0
    4aaa:	f04f 4340 	mov.w	r3, #3221225472	; 0xc0000000
    4aae:	f503 2300 	add.w	r3, r3, #524288	; 0x80000
    4ab2:	f7fc fb49 	bl	1148 <makeLine>
		sendMessage(servoRetract, 1, 0x373A);
    4ab6:	f240 0008 	movw	r0, #8
    4aba:	f2c2 0000 	movt	r0, #8192	; 0x2000
    4abe:	f04f 0101 	mov.w	r1, #1
    4ac2:	f243 723a 	movw	r2, #14138	; 0x373a
    4ac6:	f7fb ff1b 	bl	900 <sendMessage>
		makeLine(1.0, 4.0);
    4aca:	f04f 0000 	mov.w	r0, #0
    4ace:	f04f 517e 	mov.w	r1, #1065353216	; 0x3f800000
    4ad2:	f501 01e0 	add.w	r1, r1, #7340032	; 0x700000
    4ad6:	f04f 0200 	mov.w	r2, #0
    4ada:	f04f 4380 	mov.w	r3, #1073741824	; 0x40000000
    4ade:	f503 1380 	add.w	r3, r3, #1048576	; 0x100000
    4ae2:	f7fc fb31 	bl	1148 <makeLine>
    4ae6:	f000 be66 	b.w	57b6 <MAIN_STACK_SIZE+0x37b6>
	}
	else if(character == 'w') {
    4aea:	79fb      	ldrb	r3, [r7, #7]
    4aec:	2b77      	cmp	r3, #119	; 0x77
    4aee:	d169      	bne.n	4bc4 <MAIN_STACK_SIZE+0x2bc4>
		makeLine(0.5, -4.0);
    4af0:	f04f 0000 	mov.w	r0, #0
    4af4:	f04f 517e 	mov.w	r1, #1065353216	; 0x3f800000
    4af8:	f501 01c0 	add.w	r1, r1, #6291456	; 0x600000
    4afc:	f04f 0200 	mov.w	r2, #0
    4b00:	f04f 4340 	mov.w	r3, #3221225472	; 0xc0000000
    4b04:	f503 1380 	add.w	r3, r3, #1048576	; 0x100000
    4b08:	f7fc fb1e 	bl	1148 <makeLine>
		sendMessage(servoExtend, 1, 0x373A);
    4b0c:	f240 000c 	movw	r0, #12
    4b10:	f2c2 0000 	movt	r0, #8192	; 0x2000
    4b14:	f04f 0101 	mov.w	r1, #1
    4b18:	f243 723a 	movw	r2, #14138	; 0x373a
    4b1c:	f7fb fef0 	bl	900 <sendMessage>
		makeLine(1.0, 3.0);
    4b20:	f04f 0000 	mov.w	r0, #0
    4b24:	f04f 517e 	mov.w	r1, #1065353216	; 0x3f800000
    4b28:	f501 01e0 	add.w	r1, r1, #7340032	; 0x700000
    4b2c:	f04f 0200 	mov.w	r2, #0
    4b30:	f04f 4380 	mov.w	r3, #1073741824	; 0x40000000
    4b34:	f503 2300 	add.w	r3, r3, #524288	; 0x80000
    4b38:	f7fc fb06 	bl	1148 <makeLine>
		makeLine(1.0, -3.0);
    4b3c:	f04f 0000 	mov.w	r0, #0
    4b40:	f04f 517e 	mov.w	r1, #1065353216	; 0x3f800000
    4b44:	f501 01e0 	add.w	r1, r1, #7340032	; 0x700000
    4b48:	f04f 0200 	mov.w	r2, #0
    4b4c:	f04f 4340 	mov.w	r3, #3221225472	; 0xc0000000
    4b50:	f503 2300 	add.w	r3, r3, #524288	; 0x80000
    4b54:	f7fc faf8 	bl	1148 <makeLine>
		makeLine(1.0, 3.0);
    4b58:	f04f 0000 	mov.w	r0, #0
    4b5c:	f04f 517e 	mov.w	r1, #1065353216	; 0x3f800000
    4b60:	f501 01e0 	add.w	r1, r1, #7340032	; 0x700000
    4b64:	f04f 0200 	mov.w	r2, #0
    4b68:	f04f 4380 	mov.w	r3, #1073741824	; 0x40000000
    4b6c:	f503 2300 	add.w	r3, r3, #524288	; 0x80000
    4b70:	f7fc faea 	bl	1148 <makeLine>
		makeLine(1.0, -3.0);
    4b74:	f04f 0000 	mov.w	r0, #0
    4b78:	f04f 517e 	mov.w	r1, #1065353216	; 0x3f800000
    4b7c:	f501 01e0 	add.w	r1, r1, #7340032	; 0x700000
    4b80:	f04f 0200 	mov.w	r2, #0
    4b84:	f04f 4340 	mov.w	r3, #3221225472	; 0xc0000000
    4b88:	f503 2300 	add.w	r3, r3, #524288	; 0x80000
    4b8c:	f7fc fadc 	bl	1148 <makeLine>
		sendMessage(servoRetract, 1, 0x373A);
    4b90:	f240 0008 	movw	r0, #8
    4b94:	f2c2 0000 	movt	r0, #8192	; 0x2000
    4b98:	f04f 0101 	mov.w	r1, #1
    4b9c:	f243 723a 	movw	r2, #14138	; 0x373a
    4ba0:	f7fb feae 	bl	900 <sendMessage>
		makeLine(0.5, 4.0);
    4ba4:	f04f 0000 	mov.w	r0, #0
    4ba8:	f04f 517e 	mov.w	r1, #1065353216	; 0x3f800000
    4bac:	f501 01c0 	add.w	r1, r1, #6291456	; 0x600000
    4bb0:	f04f 0200 	mov.w	r2, #0
    4bb4:	f04f 4380 	mov.w	r3, #1073741824	; 0x40000000
    4bb8:	f503 1380 	add.w	r3, r3, #1048576	; 0x100000
    4bbc:	f7fc fac4 	bl	1148 <makeLine>
    4bc0:	f000 bdf9 	b.w	57b6 <MAIN_STACK_SIZE+0x37b6>
	}
	else if(character == 'x') {
    4bc4:	79fb      	ldrb	r3, [r7, #7]
    4bc6:	2b78      	cmp	r3, #120	; 0x78
    4bc8:	d16d      	bne.n	4ca6 <MAIN_STACK_SIZE+0x2ca6>
		makeLine(1.0, -4.0);
    4bca:	f04f 0000 	mov.w	r0, #0
    4bce:	f04f 517e 	mov.w	r1, #1065353216	; 0x3f800000
    4bd2:	f501 01e0 	add.w	r1, r1, #7340032	; 0x700000
    4bd6:	f04f 0200 	mov.w	r2, #0
    4bda:	f04f 4340 	mov.w	r3, #3221225472	; 0xc0000000
    4bde:	f503 1380 	add.w	r3, r3, #1048576	; 0x100000
    4be2:	f7fc fab1 	bl	1148 <makeLine>
		sendMessage(servoExtend, 1, 0x373A);
    4be6:	f240 000c 	movw	r0, #12
    4bea:	f2c2 0000 	movt	r0, #8192	; 0x2000
    4bee:	f04f 0101 	mov.w	r1, #1
    4bf2:	f243 723a 	movw	r2, #14138	; 0x373a
    4bf6:	f7fb fe83 	bl	900 <sendMessage>
		makeLine(3.0, 3.0);
    4bfa:	f04f 0000 	mov.w	r0, #0
    4bfe:	f04f 4180 	mov.w	r1, #1073741824	; 0x40000000
    4c02:	f501 2100 	add.w	r1, r1, #524288	; 0x80000
    4c06:	f04f 0200 	mov.w	r2, #0
    4c0a:	f04f 4380 	mov.w	r3, #1073741824	; 0x40000000
    4c0e:	f503 2300 	add.w	r3, r3, #524288	; 0x80000
    4c12:	f7fc fa99 	bl	1148 <makeLine>
		sendMessage(servoRetract, 1, 0x373A);
    4c16:	f240 0008 	movw	r0, #8
    4c1a:	f2c2 0000 	movt	r0, #8192	; 0x2000
    4c1e:	f04f 0101 	mov.w	r1, #1
    4c22:	f243 723a 	movw	r2, #14138	; 0x373a
    4c26:	f7fb fe6b 	bl	900 <sendMessage>
		makeLine(0.0, -3.0);
    4c2a:	f04f 0000 	mov.w	r0, #0
    4c2e:	f04f 0100 	mov.w	r1, #0
    4c32:	f04f 0200 	mov.w	r2, #0
    4c36:	f04f 4340 	mov.w	r3, #3221225472	; 0xc0000000
    4c3a:	f503 2300 	add.w	r3, r3, #524288	; 0x80000
    4c3e:	f7fc fa83 	bl	1148 <makeLine>
		sendMessage(servoExtend, 1, 0x373A);
    4c42:	f240 000c 	movw	r0, #12
    4c46:	f2c2 0000 	movt	r0, #8192	; 0x2000
    4c4a:	f04f 0101 	mov.w	r1, #1
    4c4e:	f243 723a 	movw	r2, #14138	; 0x373a
    4c52:	f7fb fe55 	bl	900 <sendMessage>
		makeLine(-3.0, 3.0);
    4c56:	f04f 0000 	mov.w	r0, #0
    4c5a:	f04f 4140 	mov.w	r1, #3221225472	; 0xc0000000
    4c5e:	f501 2100 	add.w	r1, r1, #524288	; 0x80000
    4c62:	f04f 0200 	mov.w	r2, #0
    4c66:	f04f 4380 	mov.w	r3, #1073741824	; 0x40000000
    4c6a:	f503 2300 	add.w	r3, r3, #524288	; 0x80000
    4c6e:	f7fc fa6b 	bl	1148 <makeLine>
		sendMessage(servoRetract, 1, 0x373A);
    4c72:	f240 0008 	movw	r0, #8
    4c76:	f2c2 0000 	movt	r0, #8192	; 0x2000
    4c7a:	f04f 0101 	mov.w	r1, #1
    4c7e:	f243 723a 	movw	r2, #14138	; 0x373a
    4c82:	f7fb fe3d 	bl	900 <sendMessage>
		makeLine(4.0, 1.0);
    4c86:	f04f 0000 	mov.w	r0, #0
    4c8a:	f04f 4180 	mov.w	r1, #1073741824	; 0x40000000
    4c8e:	f501 1180 	add.w	r1, r1, #1048576	; 0x100000
    4c92:	f04f 0200 	mov.w	r2, #0
    4c96:	f04f 537e 	mov.w	r3, #1065353216	; 0x3f800000
    4c9a:	f503 03e0 	add.w	r3, r3, #7340032	; 0x700000
    4c9e:	f7fc fa53 	bl	1148 <makeLine>
    4ca2:	f000 bd88 	b.w	57b6 <MAIN_STACK_SIZE+0x37b6>
	}
	else if(character == 'y') {
    4ca6:	79fb      	ldrb	r3, [r7, #7]
    4ca8:	2b79      	cmp	r3, #121	; 0x79
    4caa:	d16f      	bne.n	4d8c <MAIN_STACK_SIZE+0x2d8c>
		makeLine(1.0, -4.0);
    4cac:	f04f 0000 	mov.w	r0, #0
    4cb0:	f04f 517e 	mov.w	r1, #1065353216	; 0x3f800000
    4cb4:	f501 01e0 	add.w	r1, r1, #7340032	; 0x700000
    4cb8:	f04f 0200 	mov.w	r2, #0
    4cbc:	f04f 4340 	mov.w	r3, #3221225472	; 0xc0000000
    4cc0:	f503 1380 	add.w	r3, r3, #1048576	; 0x100000
    4cc4:	f7fc fa40 	bl	1148 <makeLine>
		sendMessage(servoExtend, 1, 0x373A);
    4cc8:	f240 000c 	movw	r0, #12
    4ccc:	f2c2 0000 	movt	r0, #8192	; 0x2000
    4cd0:	f04f 0101 	mov.w	r1, #1
    4cd4:	f243 723a 	movw	r2, #14138	; 0x373a
    4cd8:	f7fb fe12 	bl	900 <sendMessage>
		makeLine(1.5, 1.5);
    4cdc:	f04f 0000 	mov.w	r0, #0
    4ce0:	f04f 517e 	mov.w	r1, #1065353216	; 0x3f800000
    4ce4:	f501 01f0 	add.w	r1, r1, #7864320	; 0x780000
    4ce8:	f04f 0200 	mov.w	r2, #0
    4cec:	f04f 537e 	mov.w	r3, #1065353216	; 0x3f800000
    4cf0:	f503 03f0 	add.w	r3, r3, #7864320	; 0x780000
    4cf4:	f7fc fa28 	bl	1148 <makeLine>
		sendMessage(servoRetract, 1, 0x373A);
    4cf8:	f240 0008 	movw	r0, #8
    4cfc:	f2c2 0000 	movt	r0, #8192	; 0x2000
    4d00:	f04f 0101 	mov.w	r1, #1
    4d04:	f243 723a 	movw	r2, #14138	; 0x373a
    4d08:	f7fb fdfa 	bl	900 <sendMessage>
		makeLine(1.5, -1.5);
    4d0c:	f04f 0000 	mov.w	r0, #0
    4d10:	f04f 517e 	mov.w	r1, #1065353216	; 0x3f800000
    4d14:	f501 01f0 	add.w	r1, r1, #7864320	; 0x780000
    4d18:	f04f 0200 	mov.w	r2, #0
    4d1c:	f04f 433f 	mov.w	r3, #3204448256	; 0xbf000000
    4d20:	f503 0378 	add.w	r3, r3, #16252928	; 0xf80000
    4d24:	f7fc fa10 	bl	1148 <makeLine>
		sendMessage(servoExtend, 1, 0x373A);
    4d28:	f240 000c 	movw	r0, #12
    4d2c:	f2c2 0000 	movt	r0, #8192	; 0x2000
    4d30:	f04f 0101 	mov.w	r1, #1
    4d34:	f243 723a 	movw	r2, #14138	; 0x373a
    4d38:	f7fb fde2 	bl	900 <sendMessage>
		makeLine(-3.0, 3.0);
    4d3c:	f04f 0000 	mov.w	r0, #0
    4d40:	f04f 4140 	mov.w	r1, #3221225472	; 0xc0000000
    4d44:	f501 2100 	add.w	r1, r1, #524288	; 0x80000
    4d48:	f04f 0200 	mov.w	r2, #0
    4d4c:	f04f 4380 	mov.w	r3, #1073741824	; 0x40000000
    4d50:	f503 2300 	add.w	r3, r3, #524288	; 0x80000
    4d54:	f7fc f9f8 	bl	1148 <makeLine>
		sendMessage(servoRetract, 1, 0x373A);
    4d58:	f240 0008 	movw	r0, #8
    4d5c:	f2c2 0000 	movt	r0, #8192	; 0x2000
    4d60:	f04f 0101 	mov.w	r1, #1
    4d64:	f243 723a 	movw	r2, #14138	; 0x373a
    4d68:	f7fb fdca 	bl	900 <sendMessage>
		makeLine(4.0, 1.0);
    4d6c:	f04f 0000 	mov.w	r0, #0
    4d70:	f04f 4180 	mov.w	r1, #1073741824	; 0x40000000
    4d74:	f501 1180 	add.w	r1, r1, #1048576	; 0x100000
    4d78:	f04f 0200 	mov.w	r2, #0
    4d7c:	f04f 537e 	mov.w	r3, #1065353216	; 0x3f800000
    4d80:	f503 03e0 	add.w	r3, r3, #7340032	; 0x700000
    4d84:	f7fc f9e0 	bl	1148 <makeLine>
    4d88:	f000 bd15 	b.w	57b6 <MAIN_STACK_SIZE+0x37b6>
	}
	else if(character == 'z') {
    4d8c:	79fb      	ldrb	r3, [r7, #7]
    4d8e:	2b7a      	cmp	r3, #122	; 0x7a
    4d90:	d157      	bne.n	4e42 <MAIN_STACK_SIZE+0x2e42>
		makeLine(1.0, -4.0);
    4d92:	f04f 0000 	mov.w	r0, #0
    4d96:	f04f 517e 	mov.w	r1, #1065353216	; 0x3f800000
    4d9a:	f501 01e0 	add.w	r1, r1, #7340032	; 0x700000
    4d9e:	f04f 0200 	mov.w	r2, #0
    4da2:	f04f 4340 	mov.w	r3, #3221225472	; 0xc0000000
    4da6:	f503 1380 	add.w	r3, r3, #1048576	; 0x100000
    4daa:	f7fc f9cd 	bl	1148 <makeLine>
		sendMessage(servoExtend, 1, 0x373A);
    4dae:	f240 000c 	movw	r0, #12
    4db2:	f2c2 0000 	movt	r0, #8192	; 0x2000
    4db6:	f04f 0101 	mov.w	r1, #1
    4dba:	f243 723a 	movw	r2, #14138	; 0x373a
    4dbe:	f7fb fd9f 	bl	900 <sendMessage>
		makeLine(3.0, 0.0);
    4dc2:	f04f 0000 	mov.w	r0, #0
    4dc6:	f04f 4180 	mov.w	r1, #1073741824	; 0x40000000
    4dca:	f501 2100 	add.w	r1, r1, #524288	; 0x80000
    4dce:	f04f 0200 	mov.w	r2, #0
    4dd2:	f04f 0300 	mov.w	r3, #0
    4dd6:	f7fc f9b7 	bl	1148 <makeLine>
		makeLine(-3.0, 3.0);
    4dda:	f04f 0000 	mov.w	r0, #0
    4dde:	f04f 4140 	mov.w	r1, #3221225472	; 0xc0000000
    4de2:	f501 2100 	add.w	r1, r1, #524288	; 0x80000
    4de6:	f04f 0200 	mov.w	r2, #0
    4dea:	f04f 4380 	mov.w	r3, #1073741824	; 0x40000000
    4dee:	f503 2300 	add.w	r3, r3, #524288	; 0x80000
    4df2:	f7fc f9a9 	bl	1148 <makeLine>
		makeLine(3.0, 0.0);
    4df6:	f04f 0000 	mov.w	r0, #0
    4dfa:	f04f 4180 	mov.w	r1, #1073741824	; 0x40000000
    4dfe:	f501 2100 	add.w	r1, r1, #524288	; 0x80000
    4e02:	f04f 0200 	mov.w	r2, #0
    4e06:	f04f 0300 	mov.w	r3, #0
    4e0a:	f7fc f99d 	bl	1148 <makeLine>
		sendMessage(servoRetract, 1, 0x373A);
    4e0e:	f240 0008 	movw	r0, #8
    4e12:	f2c2 0000 	movt	r0, #8192	; 0x2000
    4e16:	f04f 0101 	mov.w	r1, #1
    4e1a:	f243 723a 	movw	r2, #14138	; 0x373a
    4e1e:	f7fb fd6f 	bl	900 <sendMessage>
		makeLine(1.0, 1.0);
    4e22:	f04f 0000 	mov.w	r0, #0
    4e26:	f04f 517e 	mov.w	r1, #1065353216	; 0x3f800000
    4e2a:	f501 01e0 	add.w	r1, r1, #7340032	; 0x700000
    4e2e:	f04f 0200 	mov.w	r2, #0
    4e32:	f04f 537e 	mov.w	r3, #1065353216	; 0x3f800000
    4e36:	f503 03e0 	add.w	r3, r3, #7340032	; 0x700000
    4e3a:	f7fc f985 	bl	1148 <makeLine>
    4e3e:	f000 bcba 	b.w	57b6 <MAIN_STACK_SIZE+0x37b6>
	}
	else if(character == ' '){
    4e42:	79fb      	ldrb	r3, [r7, #7]
    4e44:	2b20      	cmp	r3, #32
    4e46:	d10d      	bne.n	4e64 <MAIN_STACK_SIZE+0x2e64>
		makeLine(5, 0);
    4e48:	f04f 0000 	mov.w	r0, #0
    4e4c:	f04f 4180 	mov.w	r1, #1073741824	; 0x40000000
    4e50:	f501 11a0 	add.w	r1, r1, #1310720	; 0x140000
    4e54:	f04f 0200 	mov.w	r2, #0
    4e58:	f04f 0300 	mov.w	r3, #0
    4e5c:	f7fc f974 	bl	1148 <makeLine>
    4e60:	f000 bca9 	b.w	57b6 <MAIN_STACK_SIZE+0x37b6>
	}
	else if(character == '['){
    4e64:	79fb      	ldrb	r3, [r7, #7]
    4e66:	2b5b      	cmp	r3, #91	; 0x5b
    4e68:	d166      	bne.n	4f38 <MAIN_STACK_SIZE+0x2f38>
		makeLine(2, -1);
    4e6a:	f04f 0000 	mov.w	r0, #0
    4e6e:	f04f 4180 	mov.w	r1, #1073741824	; 0x40000000
    4e72:	f04f 0200 	mov.w	r2, #0
    4e76:	f04f 433f 	mov.w	r3, #3204448256	; 0xbf000000
    4e7a:	f503 0370 	add.w	r3, r3, #15728640	; 0xf00000
    4e7e:	f7fc f963 	bl	1148 <makeLine>
		sendMessage(servoExtend, 1, 0x373A);
    4e82:	f240 000c 	movw	r0, #12
    4e86:	f2c2 0000 	movt	r0, #8192	; 0x2000
    4e8a:	f04f 0101 	mov.w	r1, #1
    4e8e:	f243 723a 	movw	r2, #14138	; 0x373a
    4e92:	f7fb fd35 	bl	900 <sendMessage>
		makeLine(0, -6);
    4e96:	f04f 0000 	mov.w	r0, #0
    4e9a:	f04f 0100 	mov.w	r1, #0
    4e9e:	f04f 0200 	mov.w	r2, #0
    4ea2:	f04f 4340 	mov.w	r3, #3221225472	; 0xc0000000
    4ea6:	f503 13c0 	add.w	r3, r3, #1572864	; 0x180000
    4eaa:	f7fc f94d 	bl	1148 <makeLine>
		makeLine(6, 0);
    4eae:	f04f 0000 	mov.w	r0, #0
    4eb2:	f04f 4180 	mov.w	r1, #1073741824	; 0x40000000
    4eb6:	f501 11c0 	add.w	r1, r1, #1572864	; 0x180000
    4eba:	f04f 0200 	mov.w	r2, #0
    4ebe:	f04f 0300 	mov.w	r3, #0
    4ec2:	f7fc f941 	bl	1148 <makeLine>
		makeLine(0, 6);
    4ec6:	f04f 0000 	mov.w	r0, #0
    4eca:	f04f 0100 	mov.w	r1, #0
    4ece:	f04f 0200 	mov.w	r2, #0
    4ed2:	f04f 4380 	mov.w	r3, #1073741824	; 0x40000000
    4ed6:	f503 13c0 	add.w	r3, r3, #1572864	; 0x180000
    4eda:	f7fc f935 	bl	1148 <makeLine>
		makeLine(-6, 0);
    4ede:	f04f 0000 	mov.w	r0, #0
    4ee2:	f04f 4140 	mov.w	r1, #3221225472	; 0xc0000000
    4ee6:	f501 11c0 	add.w	r1, r1, #1572864	; 0x180000
    4eea:	f04f 0200 	mov.w	r2, #0
    4eee:	f04f 0300 	mov.w	r3, #0
    4ef2:	f7fc f929 	bl	1148 <makeLine>
		sendMessage(servoRetract, 1, 0x373A);
    4ef6:	f240 0008 	movw	r0, #8
    4efa:	f2c2 0000 	movt	r0, #8192	; 0x2000
    4efe:	f04f 0101 	mov.w	r1, #1
    4f02:	f243 723a 	movw	r2, #14138	; 0x373a
    4f06:	f7fb fcfb 	bl	900 <sendMessage>
		makeLine(8, 1);
    4f0a:	f04f 0000 	mov.w	r0, #0
    4f0e:	f04f 4180 	mov.w	r1, #1073741824	; 0x40000000
    4f12:	f501 1100 	add.w	r1, r1, #2097152	; 0x200000
    4f16:	f04f 0200 	mov.w	r2, #0
    4f1a:	f04f 537e 	mov.w	r3, #1065353216	; 0x3f800000
    4f1e:	f503 03e0 	add.w	r3, r3, #7340032	; 0x700000
    4f22:	f7fc f911 	bl	1148 <makeLine>
    4f26:	f000 bc46 	b.w	57b6 <MAIN_STACK_SIZE+0x37b6>
    4f2a:	bf00      	nop
    4f2c:	f3af 8000 	nop.w
    4f30:	cccccccd 	.word	0xcccccccd
    4f34:	4004cccc 	.word	0x4004cccc
	}
	else if(character == '<'){
    4f38:	79fb      	ldrb	r3, [r7, #7]
    4f3a:	2b3c      	cmp	r3, #60	; 0x3c
    4f3c:	f040 8309 	bne.w	5552 <MAIN_STACK_SIZE+0x3552>
		makeLine(-20.0, 0.0);
    4f40:	f04f 0000 	mov.w	r0, #0
    4f44:	f04f 4140 	mov.w	r1, #3221225472	; 0xc0000000
    4f48:	f501 1150 	add.w	r1, r1, #3407872	; 0x340000
    4f4c:	f04f 0200 	mov.w	r2, #0
    4f50:	f04f 0300 	mov.w	r3, #0
    4f54:	f7fc f8f8 	bl	1148 <makeLine>
		//E
		makeLine(4, -7);
    4f58:	f04f 0000 	mov.w	r0, #0
    4f5c:	f04f 4180 	mov.w	r1, #1073741824	; 0x40000000
    4f60:	f501 1180 	add.w	r1, r1, #1048576	; 0x100000
    4f64:	f04f 0200 	mov.w	r2, #0
    4f68:	f04f 4340 	mov.w	r3, #3221225472	; 0xc0000000
    4f6c:	f503 13e0 	add.w	r3, r3, #1835008	; 0x1c0000
    4f70:	f7fc f8ea 	bl	1148 <makeLine>
		sendMessage(servoExtend, 1, 0x373A);
    4f74:	f240 000c 	movw	r0, #12
    4f78:	f2c2 0000 	movt	r0, #8192	; 0x2000
    4f7c:	f04f 0101 	mov.w	r1, #1
    4f80:	f243 723a 	movw	r2, #14138	; 0x373a
    4f84:	f7fb fcbc 	bl	900 <sendMessage>
		makeLine(-3, 0);
    4f88:	f04f 0000 	mov.w	r0, #0
    4f8c:	f04f 4140 	mov.w	r1, #3221225472	; 0xc0000000
    4f90:	f501 2100 	add.w	r1, r1, #524288	; 0x80000
    4f94:	f04f 0200 	mov.w	r2, #0
    4f98:	f04f 0300 	mov.w	r3, #0
    4f9c:	f7fc f8d4 	bl	1148 <makeLine>
		makeLine(0, 3);
    4fa0:	f04f 0000 	mov.w	r0, #0
    4fa4:	f04f 0100 	mov.w	r1, #0
    4fa8:	f04f 0200 	mov.w	r2, #0
    4fac:	f04f 4380 	mov.w	r3, #1073741824	; 0x40000000
    4fb0:	f503 2300 	add.w	r3, r3, #524288	; 0x80000
    4fb4:	f7fc f8c8 	bl	1148 <makeLine>
		makeLine(3, 0);
    4fb8:	f04f 0000 	mov.w	r0, #0
    4fbc:	f04f 4180 	mov.w	r1, #1073741824	; 0x40000000
    4fc0:	f501 2100 	add.w	r1, r1, #524288	; 0x80000
    4fc4:	f04f 0200 	mov.w	r2, #0
    4fc8:	f04f 0300 	mov.w	r3, #0
    4fcc:	f7fc f8bc 	bl	1148 <makeLine>
		makeLine(-3, 0);
    4fd0:	f04f 0000 	mov.w	r0, #0
    4fd4:	f04f 4140 	mov.w	r1, #3221225472	; 0xc0000000
    4fd8:	f501 2100 	add.w	r1, r1, #524288	; 0x80000
    4fdc:	f04f 0200 	mov.w	r2, #0
    4fe0:	f04f 0300 	mov.w	r3, #0
    4fe4:	f7fc f8b0 	bl	1148 <makeLine>
		makeLine(0, 3);
    4fe8:	f04f 0000 	mov.w	r0, #0
    4fec:	f04f 0100 	mov.w	r1, #0
    4ff0:	f04f 0200 	mov.w	r2, #0
    4ff4:	f04f 4380 	mov.w	r3, #1073741824	; 0x40000000
    4ff8:	f503 2300 	add.w	r3, r3, #524288	; 0x80000
    4ffc:	f7fc f8a4 	bl	1148 <makeLine>
		makeLine(3, 0);
    5000:	f04f 0000 	mov.w	r0, #0
    5004:	f04f 4180 	mov.w	r1, #1073741824	; 0x40000000
    5008:	f501 2100 	add.w	r1, r1, #524288	; 0x80000
    500c:	f04f 0200 	mov.w	r2, #0
    5010:	f04f 0300 	mov.w	r3, #0
    5014:	f7fc f898 	bl	1148 <makeLine>
		sendMessage(servoRetract, 1, 0x373A);
    5018:	f240 0008 	movw	r0, #8
    501c:	f2c2 0000 	movt	r0, #8192	; 0x2000
    5020:	f04f 0101 	mov.w	r1, #1
    5024:	f243 723a 	movw	r2, #14138	; 0x373a
    5028:	f7fb fc6a 	bl	900 <sendMessage>
		makeLine(1, 1);
    502c:	f04f 0000 	mov.w	r0, #0
    5030:	f04f 517e 	mov.w	r1, #1065353216	; 0x3f800000
    5034:	f501 01e0 	add.w	r1, r1, #7340032	; 0x700000
    5038:	f04f 0200 	mov.w	r2, #0
    503c:	f04f 537e 	mov.w	r3, #1065353216	; 0x3f800000
    5040:	f503 03e0 	add.w	r3, r3, #7340032	; 0x700000
    5044:	f7fc f880 	bl	1148 <makeLine>
		//E
		makeLine(4, -7);
    5048:	f04f 0000 	mov.w	r0, #0
    504c:	f04f 4180 	mov.w	r1, #1073741824	; 0x40000000
    5050:	f501 1180 	add.w	r1, r1, #1048576	; 0x100000
    5054:	f04f 0200 	mov.w	r2, #0
    5058:	f04f 4340 	mov.w	r3, #3221225472	; 0xc0000000
    505c:	f503 13e0 	add.w	r3, r3, #1835008	; 0x1c0000
    5060:	f7fc f872 	bl	1148 <makeLine>
		sendMessage(servoExtend, 1, 0x373A);
    5064:	f240 000c 	movw	r0, #12
    5068:	f2c2 0000 	movt	r0, #8192	; 0x2000
    506c:	f04f 0101 	mov.w	r1, #1
    5070:	f243 723a 	movw	r2, #14138	; 0x373a
    5074:	f7fb fc44 	bl	900 <sendMessage>
		makeLine(-3, 0);
    5078:	f04f 0000 	mov.w	r0, #0
    507c:	f04f 4140 	mov.w	r1, #3221225472	; 0xc0000000
    5080:	f501 2100 	add.w	r1, r1, #524288	; 0x80000
    5084:	f04f 0200 	mov.w	r2, #0
    5088:	f04f 0300 	mov.w	r3, #0
    508c:	f7fc f85c 	bl	1148 <makeLine>
		makeLine(0, 3);
    5090:	f04f 0000 	mov.w	r0, #0
    5094:	f04f 0100 	mov.w	r1, #0
    5098:	f04f 0200 	mov.w	r2, #0
    509c:	f04f 4380 	mov.w	r3, #1073741824	; 0x40000000
    50a0:	f503 2300 	add.w	r3, r3, #524288	; 0x80000
    50a4:	f7fc f850 	bl	1148 <makeLine>
		makeLine(3, 0);
    50a8:	f04f 0000 	mov.w	r0, #0
    50ac:	f04f 4180 	mov.w	r1, #1073741824	; 0x40000000
    50b0:	f501 2100 	add.w	r1, r1, #524288	; 0x80000
    50b4:	f04f 0200 	mov.w	r2, #0
    50b8:	f04f 0300 	mov.w	r3, #0
    50bc:	f7fc f844 	bl	1148 <makeLine>
		makeLine(-3, 0);
    50c0:	f04f 0000 	mov.w	r0, #0
    50c4:	f04f 4140 	mov.w	r1, #3221225472	; 0xc0000000
    50c8:	f501 2100 	add.w	r1, r1, #524288	; 0x80000
    50cc:	f04f 0200 	mov.w	r2, #0
    50d0:	f04f 0300 	mov.w	r3, #0
    50d4:	f7fc f838 	bl	1148 <makeLine>
		makeLine(0, 3);
    50d8:	f04f 0000 	mov.w	r0, #0
    50dc:	f04f 0100 	mov.w	r1, #0
    50e0:	f04f 0200 	mov.w	r2, #0
    50e4:	f04f 4380 	mov.w	r3, #1073741824	; 0x40000000
    50e8:	f503 2300 	add.w	r3, r3, #524288	; 0x80000
    50ec:	f7fc f82c 	bl	1148 <makeLine>
		makeLine(3, 0);
    50f0:	f04f 0000 	mov.w	r0, #0
    50f4:	f04f 4180 	mov.w	r1, #1073741824	; 0x40000000
    50f8:	f501 2100 	add.w	r1, r1, #524288	; 0x80000
    50fc:	f04f 0200 	mov.w	r2, #0
    5100:	f04f 0300 	mov.w	r3, #0
    5104:	f7fc f820 	bl	1148 <makeLine>
		sendMessage(servoRetract, 1, 0x373A);
    5108:	f240 0008 	movw	r0, #8
    510c:	f2c2 0000 	movt	r0, #8192	; 0x2000
    5110:	f04f 0101 	mov.w	r1, #1
    5114:	f243 723a 	movw	r2, #14138	; 0x373a
    5118:	f7fb fbf2 	bl	900 <sendMessage>
		makeLine(1, 1);
    511c:	f04f 0000 	mov.w	r0, #0
    5120:	f04f 517e 	mov.w	r1, #1065353216	; 0x3f800000
    5124:	f501 01e0 	add.w	r1, r1, #7340032	; 0x700000
    5128:	f04f 0200 	mov.w	r2, #0
    512c:	f04f 537e 	mov.w	r3, #1065353216	; 0x3f800000
    5130:	f503 03e0 	add.w	r3, r3, #7340032	; 0x700000
    5134:	f7fc f808 	bl	1148 <makeLine>
		//C
		makeLine(4, -1.0);
    5138:	f04f 0000 	mov.w	r0, #0
    513c:	f04f 4180 	mov.w	r1, #1073741824	; 0x40000000
    5140:	f501 1180 	add.w	r1, r1, #1048576	; 0x100000
    5144:	f04f 0200 	mov.w	r2, #0
    5148:	f04f 433f 	mov.w	r3, #3204448256	; 0xbf000000
    514c:	f503 0370 	add.w	r3, r3, #15728640	; 0xf00000
    5150:	f7fb fffa 	bl	1148 <makeLine>
		sendMessage(servoExtend, 1, 0x373A);
    5154:	f240 000c 	movw	r0, #12
    5158:	f2c2 0000 	movt	r0, #8192	; 0x2000
    515c:	f04f 0101 	mov.w	r1, #1
    5160:	f243 723a 	movw	r2, #14138	; 0x373a
    5164:	f7fb fbcc 	bl	900 <sendMessage>
		makeLine(-3, 0);
    5168:	f04f 0000 	mov.w	r0, #0
    516c:	f04f 4140 	mov.w	r1, #3221225472	; 0xc0000000
    5170:	f501 2100 	add.w	r1, r1, #524288	; 0x80000
    5174:	f04f 0200 	mov.w	r2, #0
    5178:	f04f 0300 	mov.w	r3, #0
    517c:	f7fb ffe4 	bl	1148 <makeLine>
		makeLine(0, -6);
    5180:	f04f 0000 	mov.w	r0, #0
    5184:	f04f 0100 	mov.w	r1, #0
    5188:	f04f 0200 	mov.w	r2, #0
    518c:	f04f 4340 	mov.w	r3, #3221225472	; 0xc0000000
    5190:	f503 13c0 	add.w	r3, r3, #1572864	; 0x180000
    5194:	f7fb ffd8 	bl	1148 <makeLine>
		makeLine(3, 0);
    5198:	f04f 0000 	mov.w	r0, #0
    519c:	f04f 4180 	mov.w	r1, #1073741824	; 0x40000000
    51a0:	f501 2100 	add.w	r1, r1, #524288	; 0x80000
    51a4:	f04f 0200 	mov.w	r2, #0
    51a8:	f04f 0300 	mov.w	r3, #0
    51ac:	f7fb ffcc 	bl	1148 <makeLine>
		sendMessage(servoRetract, 1, 0x373A);
    51b0:	f240 0008 	movw	r0, #8
    51b4:	f2c2 0000 	movt	r0, #8192	; 0x2000
    51b8:	f04f 0101 	mov.w	r1, #1
    51bc:	f243 723a 	movw	r2, #14138	; 0x373a
    51c0:	f7fb fb9e 	bl	900 <sendMessage>
		makeLine(1, 7);
    51c4:	f04f 0000 	mov.w	r0, #0
    51c8:	f04f 517e 	mov.w	r1, #1065353216	; 0x3f800000
    51cc:	f501 01e0 	add.w	r1, r1, #7340032	; 0x700000
    51d0:	f04f 0200 	mov.w	r2, #0
    51d4:	f04f 4380 	mov.w	r3, #1073741824	; 0x40000000
    51d8:	f503 13e0 	add.w	r3, r3, #1835008	; 0x1c0000
    51dc:	f7fb ffb4 	bl	1148 <makeLine>
		//S
		makeLine(1, -1.0);
    51e0:	f04f 0000 	mov.w	r0, #0
    51e4:	f04f 517e 	mov.w	r1, #1065353216	; 0x3f800000
    51e8:	f501 01e0 	add.w	r1, r1, #7340032	; 0x700000
    51ec:	f04f 0200 	mov.w	r2, #0
    51f0:	f04f 433f 	mov.w	r3, #3204448256	; 0xbf000000
    51f4:	f503 0370 	add.w	r3, r3, #15728640	; 0xf00000
    51f8:	f7fb ffa6 	bl	1148 <makeLine>
		sendMessage(servoExtend, 1, 0x373A);
    51fc:	f240 000c 	movw	r0, #12
    5200:	f2c2 0000 	movt	r0, #8192	; 0x2000
    5204:	f04f 0101 	mov.w	r1, #1
    5208:	f243 723a 	movw	r2, #14138	; 0x373a
    520c:	f7fb fb78 	bl	900 <sendMessage>
		makeLine(3, 0);
    5210:	f04f 0000 	mov.w	r0, #0
    5214:	f04f 4180 	mov.w	r1, #1073741824	; 0x40000000
    5218:	f501 2100 	add.w	r1, r1, #524288	; 0x80000
    521c:	f04f 0200 	mov.w	r2, #0
    5220:	f04f 0300 	mov.w	r3, #0
    5224:	f7fb ff90 	bl	1148 <makeLine>
		makeLine(0, -3);
    5228:	f04f 0000 	mov.w	r0, #0
    522c:	f04f 0100 	mov.w	r1, #0
    5230:	f04f 0200 	mov.w	r2, #0
    5234:	f04f 4340 	mov.w	r3, #3221225472	; 0xc0000000
    5238:	f503 2300 	add.w	r3, r3, #524288	; 0x80000
    523c:	f7fb ff84 	bl	1148 <makeLine>
		makeLine(-3, 0);
    5240:	f04f 0000 	mov.w	r0, #0
    5244:	f04f 4140 	mov.w	r1, #3221225472	; 0xc0000000
    5248:	f501 2100 	add.w	r1, r1, #524288	; 0x80000
    524c:	f04f 0200 	mov.w	r2, #0
    5250:	f04f 0300 	mov.w	r3, #0
    5254:	f7fb ff78 	bl	1148 <makeLine>
		makeLine(0, -3);
    5258:	f04f 0000 	mov.w	r0, #0
    525c:	f04f 0100 	mov.w	r1, #0
    5260:	f04f 0200 	mov.w	r2, #0
    5264:	f04f 4340 	mov.w	r3, #3221225472	; 0xc0000000
    5268:	f503 2300 	add.w	r3, r3, #524288	; 0x80000
    526c:	f7fb ff6c 	bl	1148 <makeLine>
		makeLine(3, 0);
    5270:	f04f 0000 	mov.w	r0, #0
    5274:	f04f 4180 	mov.w	r1, #1073741824	; 0x40000000
    5278:	f501 2100 	add.w	r1, r1, #524288	; 0x80000
    527c:	f04f 0200 	mov.w	r2, #0
    5280:	f04f 0300 	mov.w	r3, #0
    5284:	f7fb ff60 	bl	1148 <makeLine>
		sendMessage(servoRetract, 1, 0x373A);
    5288:	f240 0008 	movw	r0, #8
    528c:	f2c2 0000 	movt	r0, #8192	; 0x2000
    5290:	f04f 0101 	mov.w	r1, #1
    5294:	f243 723a 	movw	r2, #14138	; 0x373a
    5298:	f7fb fb32 	bl	900 <sendMessage>
		makeLine(1, 7);
    529c:	f04f 0000 	mov.w	r0, #0
    52a0:	f04f 517e 	mov.w	r1, #1065353216	; 0x3f800000
    52a4:	f501 01e0 	add.w	r1, r1, #7340032	; 0x700000
    52a8:	f04f 0200 	mov.w	r2, #0
    52ac:	f04f 4380 	mov.w	r3, #1073741824	; 0x40000000
    52b0:	f503 13e0 	add.w	r3, r3, #1835008	; 0x1c0000
    52b4:	f7fb ff48 	bl	1148 <makeLine>
		//3
		makeLine(1.0, -2.0);
    52b8:	f04f 0000 	mov.w	r0, #0
    52bc:	f04f 517e 	mov.w	r1, #1065353216	; 0x3f800000
    52c0:	f501 01e0 	add.w	r1, r1, #7340032	; 0x700000
    52c4:	f04f 0200 	mov.w	r2, #0
    52c8:	f04f 4340 	mov.w	r3, #3221225472	; 0xc0000000
    52cc:	f7fb ff3c 	bl	1148 <makeLine>
		sendMessage(servoExtend, 1, 0x373A);
    52d0:	f240 000c 	movw	r0, #12
    52d4:	f2c2 0000 	movt	r0, #8192	; 0x2000
    52d8:	f04f 0101 	mov.w	r1, #1
    52dc:	f243 723a 	movw	r2, #14138	; 0x373a
    52e0:	f7fb fb0e 	bl	900 <sendMessage>
		makeLine(1.5, 1.0);
    52e4:	f04f 0000 	mov.w	r0, #0
    52e8:	f04f 517e 	mov.w	r1, #1065353216	; 0x3f800000
    52ec:	f501 01f0 	add.w	r1, r1, #7864320	; 0x780000
    52f0:	f04f 0200 	mov.w	r2, #0
    52f4:	f04f 537e 	mov.w	r3, #1065353216	; 0x3f800000
    52f8:	f503 03e0 	add.w	r3, r3, #7340032	; 0x700000
    52fc:	f7fb ff24 	bl	1148 <makeLine>
		makeLine(1.5, -1.0);
    5300:	f04f 0000 	mov.w	r0, #0
    5304:	f04f 517e 	mov.w	r1, #1065353216	; 0x3f800000
    5308:	f501 01f0 	add.w	r1, r1, #7864320	; 0x780000
    530c:	f04f 0200 	mov.w	r2, #0
    5310:	f04f 433f 	mov.w	r3, #3204448256	; 0xbf000000
    5314:	f503 0370 	add.w	r3, r3, #15728640	; 0xf00000
    5318:	f7fb ff16 	bl	1148 <makeLine>
		makeLine(-1.5, -1.5);
    531c:	f04f 0000 	mov.w	r0, #0
    5320:	f04f 413f 	mov.w	r1, #3204448256	; 0xbf000000
    5324:	f501 0178 	add.w	r1, r1, #16252928	; 0xf80000
    5328:	f04f 0200 	mov.w	r2, #0
    532c:	f04f 433f 	mov.w	r3, #3204448256	; 0xbf000000
    5330:	f503 0378 	add.w	r3, r3, #16252928	; 0xf80000
    5334:	f7fb ff08 	bl	1148 <makeLine>
		makeLine(1.5, -1.5);
    5338:	f04f 0000 	mov.w	r0, #0
    533c:	f04f 517e 	mov.w	r1, #1065353216	; 0x3f800000
    5340:	f501 01f0 	add.w	r1, r1, #7864320	; 0x780000
    5344:	f04f 0200 	mov.w	r2, #0
    5348:	f04f 433f 	mov.w	r3, #3204448256	; 0xbf000000
    534c:	f503 0378 	add.w	r3, r3, #16252928	; 0xf80000
    5350:	f7fb fefa 	bl	1148 <makeLine>
		makeLine(-1.5, -1.0);
    5354:	f04f 0000 	mov.w	r0, #0
    5358:	f04f 413f 	mov.w	r1, #3204448256	; 0xbf000000
    535c:	f501 0178 	add.w	r1, r1, #16252928	; 0xf80000
    5360:	f04f 0200 	mov.w	r2, #0
    5364:	f04f 433f 	mov.w	r3, #3204448256	; 0xbf000000
    5368:	f503 0370 	add.w	r3, r3, #15728640	; 0xf00000
    536c:	f7fb feec 	bl	1148 <makeLine>
		makeLine(-1.5, 1.0);
    5370:	f04f 0000 	mov.w	r0, #0
    5374:	f04f 413f 	mov.w	r1, #3204448256	; 0xbf000000
    5378:	f501 0178 	add.w	r1, r1, #16252928	; 0xf80000
    537c:	f04f 0200 	mov.w	r2, #0
    5380:	f04f 537e 	mov.w	r3, #1065353216	; 0x3f800000
    5384:	f503 03e0 	add.w	r3, r3, #7340032	; 0x700000
    5388:	f7fb fede 	bl	1148 <makeLine>
		//Get ready for next character
		sendMessage(servoRetract, 1, 0x373A);
    538c:	f240 0008 	movw	r0, #8
    5390:	f2c2 0000 	movt	r0, #8192	; 0x2000
    5394:	f04f 0101 	mov.w	r1, #1
    5398:	f243 723a 	movw	r2, #14138	; 0x373a
    539c:	f7fb fab0 	bl	900 <sendMessage>
		makeLine(4.0, 5.0);
    53a0:	f04f 0000 	mov.w	r0, #0
    53a4:	f04f 4180 	mov.w	r1, #1073741824	; 0x40000000
    53a8:	f501 1180 	add.w	r1, r1, #1048576	; 0x100000
    53ac:	f04f 0200 	mov.w	r2, #0
    53b0:	f04f 4380 	mov.w	r3, #1073741824	; 0x40000000
    53b4:	f503 13a0 	add.w	r3, r3, #1310720	; 0x140000
    53b8:	f7fb fec6 	bl	1148 <makeLine>
		//7
		makeLine(1.0, -5.0);
    53bc:	f04f 0000 	mov.w	r0, #0
    53c0:	f04f 517e 	mov.w	r1, #1065353216	; 0x3f800000
    53c4:	f501 01e0 	add.w	r1, r1, #7340032	; 0x700000
    53c8:	f04f 0200 	mov.w	r2, #0
    53cc:	f04f 4340 	mov.w	r3, #3221225472	; 0xc0000000
    53d0:	f503 13a0 	add.w	r3, r3, #1310720	; 0x140000
    53d4:	f7fb feb8 	bl	1148 <makeLine>
		sendMessage(servoExtend, 1, 0x373A);
    53d8:	f240 000c 	movw	r0, #12
    53dc:	f2c2 0000 	movt	r0, #8192	; 0x2000
    53e0:	f04f 0101 	mov.w	r1, #1
    53e4:	f243 723a 	movw	r2, #14138	; 0x373a
    53e8:	f7fb fa8a 	bl	900 <sendMessage>
		makeLine(3.0, 0.0);
    53ec:	f04f 0000 	mov.w	r0, #0
    53f0:	f04f 4180 	mov.w	r1, #1073741824	; 0x40000000
    53f4:	f501 2100 	add.w	r1, r1, #524288	; 0x80000
    53f8:	f04f 0200 	mov.w	r2, #0
    53fc:	f04f 0300 	mov.w	r3, #0
    5400:	f7fb fea2 	bl	1148 <makeLine>
		makeLine(-2.0, 4.0);
    5404:	f04f 0000 	mov.w	r0, #0
    5408:	f04f 4140 	mov.w	r1, #3221225472	; 0xc0000000
    540c:	f04f 0200 	mov.w	r2, #0
    5410:	f04f 4380 	mov.w	r3, #1073741824	; 0x40000000
    5414:	f503 1380 	add.w	r3, r3, #1048576	; 0x100000
    5418:	f7fb fe96 	bl	1148 <makeLine>
		//Get ready for next character
		sendMessage(servoRetract, 1, 0x373A);
    541c:	f240 0008 	movw	r0, #8
    5420:	f2c2 0000 	movt	r0, #8192	; 0x2000
    5424:	f04f 0101 	mov.w	r1, #1
    5428:	f243 723a 	movw	r2, #14138	; 0x373a
    542c:	f7fb fa68 	bl	900 <sendMessage>
		makeLine(1.0, 1.0);
    5430:	f04f 0000 	mov.w	r0, #0
    5434:	f04f 517e 	mov.w	r1, #1065353216	; 0x3f800000
    5438:	f501 01e0 	add.w	r1, r1, #7340032	; 0x700000
    543c:	f04f 0200 	mov.w	r2, #0
    5440:	f04f 537e 	mov.w	r3, #1065353216	; 0x3f800000
    5444:	f503 03e0 	add.w	r3, r3, #7340032	; 0x700000
    5448:	f7fb fe7e 	bl	1148 <makeLine>
		//3
		makeLine(1.0, -2.0);
    544c:	f04f 0000 	mov.w	r0, #0
    5450:	f04f 517e 	mov.w	r1, #1065353216	; 0x3f800000
    5454:	f501 01e0 	add.w	r1, r1, #7340032	; 0x700000
    5458:	f04f 0200 	mov.w	r2, #0
    545c:	f04f 4340 	mov.w	r3, #3221225472	; 0xc0000000
    5460:	f7fb fe72 	bl	1148 <makeLine>
		sendMessage(servoExtend, 1, 0x373A);
    5464:	f240 000c 	movw	r0, #12
    5468:	f2c2 0000 	movt	r0, #8192	; 0x2000
    546c:	f04f 0101 	mov.w	r1, #1
    5470:	f243 723a 	movw	r2, #14138	; 0x373a
    5474:	f7fb fa44 	bl	900 <sendMessage>
		makeLine(1.5, 1.0);
    5478:	f04f 0000 	mov.w	r0, #0
    547c:	f04f 517e 	mov.w	r1, #1065353216	; 0x3f800000
    5480:	f501 01f0 	add.w	r1, r1, #7864320	; 0x780000
    5484:	f04f 0200 	mov.w	r2, #0
    5488:	f04f 537e 	mov.w	r3, #1065353216	; 0x3f800000
    548c:	f503 03e0 	add.w	r3, r3, #7340032	; 0x700000
    5490:	f7fb fe5a 	bl	1148 <makeLine>
		makeLine(1.5, -1.0);
    5494:	f04f 0000 	mov.w	r0, #0
    5498:	f04f 517e 	mov.w	r1, #1065353216	; 0x3f800000
    549c:	f501 01f0 	add.w	r1, r1, #7864320	; 0x780000
    54a0:	f04f 0200 	mov.w	r2, #0
    54a4:	f04f 433f 	mov.w	r3, #3204448256	; 0xbf000000
    54a8:	f503 0370 	add.w	r3, r3, #15728640	; 0xf00000
    54ac:	f7fb fe4c 	bl	1148 <makeLine>
		makeLine(-1.5, -1.5);
    54b0:	f04f 0000 	mov.w	r0, #0
    54b4:	f04f 413f 	mov.w	r1, #3204448256	; 0xbf000000
    54b8:	f501 0178 	add.w	r1, r1, #16252928	; 0xf80000
    54bc:	f04f 0200 	mov.w	r2, #0
    54c0:	f04f 433f 	mov.w	r3, #3204448256	; 0xbf000000
    54c4:	f503 0378 	add.w	r3, r3, #16252928	; 0xf80000
    54c8:	f7fb fe3e 	bl	1148 <makeLine>
		makeLine(1.5, -1.5);
    54cc:	f04f 0000 	mov.w	r0, #0
    54d0:	f04f 517e 	mov.w	r1, #1065353216	; 0x3f800000
    54d4:	f501 01f0 	add.w	r1, r1, #7864320	; 0x780000
    54d8:	f04f 0200 	mov.w	r2, #0
    54dc:	f04f 433f 	mov.w	r3, #3204448256	; 0xbf000000
    54e0:	f503 0378 	add.w	r3, r3, #16252928	; 0xf80000
    54e4:	f7fb fe30 	bl	1148 <makeLine>
		makeLine(-1.5, -1.0);
    54e8:	f04f 0000 	mov.w	r0, #0
    54ec:	f04f 413f 	mov.w	r1, #3204448256	; 0xbf000000
    54f0:	f501 0178 	add.w	r1, r1, #16252928	; 0xf80000
    54f4:	f04f 0200 	mov.w	r2, #0
    54f8:	f04f 433f 	mov.w	r3, #3204448256	; 0xbf000000
    54fc:	f503 0370 	add.w	r3, r3, #15728640	; 0xf00000
    5500:	f7fb fe22 	bl	1148 <makeLine>
		makeLine(-1.5, 1.0);
    5504:	f04f 0000 	mov.w	r0, #0
    5508:	f04f 413f 	mov.w	r1, #3204448256	; 0xbf000000
    550c:	f501 0178 	add.w	r1, r1, #16252928	; 0xf80000
    5510:	f04f 0200 	mov.w	r2, #0
    5514:	f04f 537e 	mov.w	r3, #1065353216	; 0x3f800000
    5518:	f503 03e0 	add.w	r3, r3, #7340032	; 0x700000
    551c:	f7fb fe14 	bl	1148 <makeLine>
		//Get ready for next character
		sendMessage(servoRetract, 1, 0x373A);
    5520:	f240 0008 	movw	r0, #8
    5524:	f2c2 0000 	movt	r0, #8192	; 0x2000
    5528:	f04f 0101 	mov.w	r1, #1
    552c:	f243 723a 	movw	r2, #14138	; 0x373a
    5530:	f7fb f9e6 	bl	900 <sendMessage>
		makeLine(4.0, 5.0);
    5534:	f04f 0000 	mov.w	r0, #0
    5538:	f04f 4180 	mov.w	r1, #1073741824	; 0x40000000
    553c:	f501 1180 	add.w	r1, r1, #1048576	; 0x100000
    5540:	f04f 0200 	mov.w	r2, #0
    5544:	f04f 4380 	mov.w	r3, #1073741824	; 0x40000000
    5548:	f503 13a0 	add.w	r3, r3, #1310720	; 0x140000
    554c:	f7fb fdfc 	bl	1148 <makeLine>
    5550:	e131      	b.n	57b6 <MAIN_STACK_SIZE+0x37b6>
		makeLine(-6, 0);
		sendMessage(servoRetract, 1, 0x373A);
		makeLine(8, 1);
		*/
	}
	else if(character == '('){
    5552:	79fb      	ldrb	r3, [r7, #7]
    5554:	2b28      	cmp	r3, #40	; 0x28
    5556:	f040 812e 	bne.w	57b6 <MAIN_STACK_SIZE+0x37b6>
		makeLine(8, -4);
    555a:	f04f 0000 	mov.w	r0, #0
    555e:	f04f 4180 	mov.w	r1, #1073741824	; 0x40000000
    5562:	f501 1100 	add.w	r1, r1, #2097152	; 0x200000
    5566:	f04f 0200 	mov.w	r2, #0
    556a:	f04f 4340 	mov.w	r3, #3221225472	; 0xc0000000
    556e:	f503 1380 	add.w	r3, r3, #1048576	; 0x100000
    5572:	f7fb fde9 	bl	1148 <makeLine>
		sendMessage(servoExtend, 1, 0x373A);
    5576:	f240 000c 	movw	r0, #12
    557a:	f2c2 0000 	movt	r0, #8192	; 0x2000
    557e:	f04f 0101 	mov.w	r1, #1
    5582:	f243 723a 	movw	r2, #14138	; 0x373a
    5586:	f7fb f9bb 	bl	900 <sendMessage>
		makeLine(-0.0576400000000007,-0.58527);
    558a:	a18d      	add	r1, pc, #564	; (adr r1, 57c0 <MAIN_STACK_SIZE+0x37c0>)
    558c:	e9d1 0100 	ldrd	r0, r1, [r1]
    5590:	a38d      	add	r3, pc, #564	; (adr r3, 57c8 <MAIN_STACK_SIZE+0x37c8>)
    5592:	e9d3 2300 	ldrd	r2, r3, [r3]
    5596:	f7fb fdd7 	bl	1148 <makeLine>
		makeLine(-0.17072,-0.56278);
    559a:	a18d      	add	r1, pc, #564	; (adr r1, 57d0 <MAIN_STACK_SIZE+0x37d0>)
    559c:	e9d1 0100 	ldrd	r0, r1, [r1]
    55a0:	a38d      	add	r3, pc, #564	; (adr r3, 57d8 <MAIN_STACK_SIZE+0x37d8>)
    55a2:	e9d3 2300 	ldrd	r2, r3, [r3]
    55a6:	f7fb fdcf 	bl	1148 <makeLine>
		makeLine(-0.277229999999999,-0.51866);
    55aa:	a18d      	add	r1, pc, #564	; (adr r1, 57e0 <MAIN_STACK_SIZE+0x37e0>)
    55ac:	e9d1 0100 	ldrd	r0, r1, [r1]
    55b0:	a38d      	add	r3, pc, #564	; (adr r3, 57e8 <MAIN_STACK_SIZE+0x37e8>)
    55b2:	e9d3 2300 	ldrd	r2, r3, [r3]
    55b6:	f7fb fdc7 	bl	1148 <makeLine>
		makeLine(-0.373090000000001,-0.45461);
    55ba:	a18d      	add	r1, pc, #564	; (adr r1, 57f0 <MAIN_STACK_SIZE+0x37f0>)
    55bc:	e9d1 0100 	ldrd	r0, r1, [r1]
    55c0:	a38d      	add	r3, pc, #564	; (adr r3, 57f8 <MAIN_STACK_SIZE+0x37f8>)
    55c2:	e9d3 2300 	ldrd	r2, r3, [r3]
    55c6:	f7fb fdbf 	bl	1148 <makeLine>
		makeLine(-0.45461,-0.373090000000001);
    55ca:	a18b      	add	r1, pc, #556	; (adr r1, 57f8 <MAIN_STACK_SIZE+0x37f8>)
    55cc:	e9d1 0100 	ldrd	r0, r1, [r1]
    55d0:	a387      	add	r3, pc, #540	; (adr r3, 57f0 <MAIN_STACK_SIZE+0x37f0>)
    55d2:	e9d3 2300 	ldrd	r2, r3, [r3]
    55d6:	f7fb fdb7 	bl	1148 <makeLine>
		makeLine(-0.518660000000001,-0.277229999999999);
    55da:	a189      	add	r1, pc, #548	; (adr r1, 5800 <MAIN_STACK_SIZE+0x3800>)
    55dc:	e9d1 0100 	ldrd	r0, r1, [r1]
    55e0:	a37f      	add	r3, pc, #508	; (adr r3, 57e0 <MAIN_STACK_SIZE+0x37e0>)
    55e2:	e9d3 2300 	ldrd	r2, r3, [r3]
    55e6:	f7fb fdaf 	bl	1148 <makeLine>
		makeLine(-0.56278,-0.17072);
    55ea:	a17b      	add	r1, pc, #492	; (adr r1, 57d8 <MAIN_STACK_SIZE+0x37d8>)
    55ec:	e9d1 0100 	ldrd	r0, r1, [r1]
    55f0:	a377      	add	r3, pc, #476	; (adr r3, 57d0 <MAIN_STACK_SIZE+0x37d0>)
    55f2:	e9d3 2300 	ldrd	r2, r3, [r3]
    55f6:	f7fb fda7 	bl	1148 <makeLine>
		makeLine(-0.58527,-0.0576400000000007);
    55fa:	a173      	add	r1, pc, #460	; (adr r1, 57c8 <MAIN_STACK_SIZE+0x37c8>)
    55fc:	e9d1 0100 	ldrd	r0, r1, [r1]
    5600:	a36f      	add	r3, pc, #444	; (adr r3, 57c0 <MAIN_STACK_SIZE+0x37c0>)
    5602:	e9d3 2300 	ldrd	r2, r3, [r3]
    5606:	f7fb fd9f 	bl	1148 <makeLine>
		makeLine(-0.58527,0.0576400000000007);
    560a:	a16f      	add	r1, pc, #444	; (adr r1, 57c8 <MAIN_STACK_SIZE+0x37c8>)
    560c:	e9d1 0100 	ldrd	r0, r1, [r1]
    5610:	a37d      	add	r3, pc, #500	; (adr r3, 5808 <MAIN_STACK_SIZE+0x3808>)
    5612:	e9d3 2300 	ldrd	r2, r3, [r3]
    5616:	f7fb fd97 	bl	1148 <makeLine>
		makeLine(-0.56278,0.17072);
    561a:	a16f      	add	r1, pc, #444	; (adr r1, 57d8 <MAIN_STACK_SIZE+0x37d8>)
    561c:	e9d1 0100 	ldrd	r0, r1, [r1]
    5620:	a37b      	add	r3, pc, #492	; (adr r3, 5810 <MAIN_STACK_SIZE+0x3810>)
    5622:	e9d3 2300 	ldrd	r2, r3, [r3]
    5626:	f7fb fd8f 	bl	1148 <makeLine>
		makeLine(-0.51866,0.277229999999999);
    562a:	a16f      	add	r1, pc, #444	; (adr r1, 57e8 <MAIN_STACK_SIZE+0x37e8>)
    562c:	e9d1 0100 	ldrd	r0, r1, [r1]
    5630:	a379      	add	r3, pc, #484	; (adr r3, 5818 <MAIN_STACK_SIZE+0x3818>)
    5632:	e9d3 2300 	ldrd	r2, r3, [r3]
    5636:	f7fb fd87 	bl	1148 <makeLine>
		makeLine(-0.45461,0.373090000000001);
    563a:	a16f      	add	r1, pc, #444	; (adr r1, 57f8 <MAIN_STACK_SIZE+0x37f8>)
    563c:	e9d1 0100 	ldrd	r0, r1, [r1]
    5640:	a377      	add	r3, pc, #476	; (adr r3, 5820 <MAIN_STACK_SIZE+0x3820>)
    5642:	e9d3 2300 	ldrd	r2, r3, [r3]
    5646:	f7fb fd7f 	bl	1148 <makeLine>
		makeLine(-0.37309,0.45461);
    564a:	a177      	add	r1, pc, #476	; (adr r1, 5828 <MAIN_STACK_SIZE+0x3828>)
    564c:	e9d1 0100 	ldrd	r0, r1, [r1]
    5650:	a377      	add	r3, pc, #476	; (adr r3, 5830 <MAIN_STACK_SIZE+0x3830>)
    5652:	e9d3 2300 	ldrd	r2, r3, [r3]
    5656:	f7fb fd77 	bl	1148 <makeLine>
		makeLine(-0.27723,0.51866);
    565a:	a177      	add	r1, pc, #476	; (adr r1, 5838 <MAIN_STACK_SIZE+0x3838>)
    565c:	e9d1 0100 	ldrd	r0, r1, [r1]
    5660:	a377      	add	r3, pc, #476	; (adr r3, 5840 <MAIN_STACK_SIZE+0x3840>)
    5662:	e9d3 2300 	ldrd	r2, r3, [r3]
    5666:	f7fb fd6f 	bl	1148 <makeLine>
		makeLine(-0.17072,0.56278);
    566a:	a159      	add	r1, pc, #356	; (adr r1, 57d0 <MAIN_STACK_SIZE+0x37d0>)
    566c:	e9d1 0100 	ldrd	r0, r1, [r1]
    5670:	a375      	add	r3, pc, #468	; (adr r3, 5848 <MAIN_STACK_SIZE+0x3848>)
    5672:	e9d3 2300 	ldrd	r2, r3, [r3]
    5676:	f7fb fd67 	bl	1148 <makeLine>
		makeLine(-0.05764,0.58527);
    567a:	a175      	add	r1, pc, #468	; (adr r1, 5850 <MAIN_STACK_SIZE+0x3850>)
    567c:	e9d1 0100 	ldrd	r0, r1, [r1]
    5680:	a375      	add	r3, pc, #468	; (adr r3, 5858 <MAIN_STACK_SIZE+0x3858>)
    5682:	e9d3 2300 	ldrd	r2, r3, [r3]
    5686:	f7fb fd5f 	bl	1148 <makeLine>
		makeLine(0.05764,0.58527);
    568a:	a175      	add	r1, pc, #468	; (adr r1, 5860 <MAIN_STACK_SIZE+0x3860>)
    568c:	e9d1 0100 	ldrd	r0, r1, [r1]
    5690:	a371      	add	r3, pc, #452	; (adr r3, 5858 <MAIN_STACK_SIZE+0x3858>)
    5692:	e9d3 2300 	ldrd	r2, r3, [r3]
    5696:	f7fb fd57 	bl	1148 <makeLine>
		makeLine(0.17072,0.56278);
    569a:	a15d      	add	r1, pc, #372	; (adr r1, 5810 <MAIN_STACK_SIZE+0x3810>)
    569c:	e9d1 0100 	ldrd	r0, r1, [r1]
    56a0:	a369      	add	r3, pc, #420	; (adr r3, 5848 <MAIN_STACK_SIZE+0x3848>)
    56a2:	e9d3 2300 	ldrd	r2, r3, [r3]
    56a6:	f7fb fd4f 	bl	1148 <makeLine>
		makeLine(0.27723,0.51866);
    56aa:	a16f      	add	r1, pc, #444	; (adr r1, 5868 <MAIN_STACK_SIZE+0x3868>)
    56ac:	e9d1 0100 	ldrd	r0, r1, [r1]
    56b0:	a363      	add	r3, pc, #396	; (adr r3, 5840 <MAIN_STACK_SIZE+0x3840>)
    56b2:	e9d3 2300 	ldrd	r2, r3, [r3]
    56b6:	f7fb fd47 	bl	1148 <makeLine>
		makeLine(0.37309,0.45461);
    56ba:	a16d      	add	r1, pc, #436	; (adr r1, 5870 <MAIN_STACK_SIZE+0x3870>)
    56bc:	e9d1 0100 	ldrd	r0, r1, [r1]
    56c0:	a35b      	add	r3, pc, #364	; (adr r3, 5830 <MAIN_STACK_SIZE+0x3830>)
    56c2:	e9d3 2300 	ldrd	r2, r3, [r3]
    56c6:	f7fb fd3f 	bl	1148 <makeLine>
		makeLine(0.45461,0.37309);
    56ca:	a159      	add	r1, pc, #356	; (adr r1, 5830 <MAIN_STACK_SIZE+0x3830>)
    56cc:	e9d1 0100 	ldrd	r0, r1, [r1]
    56d0:	a367      	add	r3, pc, #412	; (adr r3, 5870 <MAIN_STACK_SIZE+0x3870>)
    56d2:	e9d3 2300 	ldrd	r2, r3, [r3]
    56d6:	f7fb fd37 	bl	1148 <makeLine>
		makeLine(0.51866,0.27723);
    56da:	a159      	add	r1, pc, #356	; (adr r1, 5840 <MAIN_STACK_SIZE+0x3840>)
    56dc:	e9d1 0100 	ldrd	r0, r1, [r1]
    56e0:	a361      	add	r3, pc, #388	; (adr r3, 5868 <MAIN_STACK_SIZE+0x3868>)
    56e2:	e9d3 2300 	ldrd	r2, r3, [r3]
    56e6:	f7fb fd2f 	bl	1148 <makeLine>
		makeLine(0.56278,0.17072);
    56ea:	a157      	add	r1, pc, #348	; (adr r1, 5848 <MAIN_STACK_SIZE+0x3848>)
    56ec:	e9d1 0100 	ldrd	r0, r1, [r1]
    56f0:	a347      	add	r3, pc, #284	; (adr r3, 5810 <MAIN_STACK_SIZE+0x3810>)
    56f2:	e9d3 2300 	ldrd	r2, r3, [r3]
    56f6:	f7fb fd27 	bl	1148 <makeLine>
		makeLine(0.58527,0.05764);
    56fa:	a157      	add	r1, pc, #348	; (adr r1, 5858 <MAIN_STACK_SIZE+0x3858>)
    56fc:	e9d1 0100 	ldrd	r0, r1, [r1]
    5700:	a357      	add	r3, pc, #348	; (adr r3, 5860 <MAIN_STACK_SIZE+0x3860>)
    5702:	e9d3 2300 	ldrd	r2, r3, [r3]
    5706:	f7fb fd1f 	bl	1148 <makeLine>
		makeLine(0.58527,-0.05764);
    570a:	a153      	add	r1, pc, #332	; (adr r1, 5858 <MAIN_STACK_SIZE+0x3858>)
    570c:	e9d1 0100 	ldrd	r0, r1, [r1]
    5710:	a34f      	add	r3, pc, #316	; (adr r3, 5850 <MAIN_STACK_SIZE+0x3850>)
    5712:	e9d3 2300 	ldrd	r2, r3, [r3]
    5716:	f7fb fd17 	bl	1148 <makeLine>
		makeLine(0.56278,-0.17072);
    571a:	a14b      	add	r1, pc, #300	; (adr r1, 5848 <MAIN_STACK_SIZE+0x3848>)
    571c:	e9d1 0100 	ldrd	r0, r1, [r1]
    5720:	a32b      	add	r3, pc, #172	; (adr r3, 57d0 <MAIN_STACK_SIZE+0x37d0>)
    5722:	e9d3 2300 	ldrd	r2, r3, [r3]
    5726:	f7fb fd0f 	bl	1148 <makeLine>
		makeLine(0.518660000000001,-0.27723);
    572a:	a153      	add	r1, pc, #332	; (adr r1, 5878 <MAIN_STACK_SIZE+0x3878>)
    572c:	e9d1 0100 	ldrd	r0, r1, [r1]
    5730:	a341      	add	r3, pc, #260	; (adr r3, 5838 <MAIN_STACK_SIZE+0x3838>)
    5732:	e9d3 2300 	ldrd	r2, r3, [r3]
    5736:	f7fb fd07 	bl	1148 <makeLine>
		makeLine(0.45461,-0.37309);
    573a:	a13d      	add	r1, pc, #244	; (adr r1, 5830 <MAIN_STACK_SIZE+0x3830>)
    573c:	e9d1 0100 	ldrd	r0, r1, [r1]
    5740:	a339      	add	r3, pc, #228	; (adr r3, 5828 <MAIN_STACK_SIZE+0x3828>)
    5742:	e9d3 2300 	ldrd	r2, r3, [r3]
    5746:	f7fb fcff 	bl	1148 <makeLine>
		makeLine(0.373090000000001,-0.45461);
    574a:	a135      	add	r1, pc, #212	; (adr r1, 5820 <MAIN_STACK_SIZE+0x3820>)
    574c:	e9d1 0100 	ldrd	r0, r1, [r1]
    5750:	a329      	add	r3, pc, #164	; (adr r3, 57f8 <MAIN_STACK_SIZE+0x37f8>)
    5752:	e9d3 2300 	ldrd	r2, r3, [r3]
    5756:	f7fb fcf7 	bl	1148 <makeLine>
		makeLine(0.277229999999999,-0.51866);
    575a:	a12f      	add	r1, pc, #188	; (adr r1, 5818 <MAIN_STACK_SIZE+0x3818>)
    575c:	e9d1 0100 	ldrd	r0, r1, [r1]
    5760:	a321      	add	r3, pc, #132	; (adr r3, 57e8 <MAIN_STACK_SIZE+0x37e8>)
    5762:	e9d3 2300 	ldrd	r2, r3, [r3]
    5766:	f7fb fcef 	bl	1148 <makeLine>
		makeLine(0.17072,-0.56278);
    576a:	a129      	add	r1, pc, #164	; (adr r1, 5810 <MAIN_STACK_SIZE+0x3810>)
    576c:	e9d1 0100 	ldrd	r0, r1, [r1]
    5770:	a319      	add	r3, pc, #100	; (adr r3, 57d8 <MAIN_STACK_SIZE+0x37d8>)
    5772:	e9d3 2300 	ldrd	r2, r3, [r3]
    5776:	f7fb fce7 	bl	1148 <makeLine>
		makeLine(0.0576400000000007,-0.58527);
    577a:	a123      	add	r1, pc, #140	; (adr r1, 5808 <MAIN_STACK_SIZE+0x3808>)
    577c:	e9d1 0100 	ldrd	r0, r1, [r1]
    5780:	a311      	add	r3, pc, #68	; (adr r3, 57c8 <MAIN_STACK_SIZE+0x37c8>)
    5782:	e9d3 2300 	ldrd	r2, r3, [r3]
    5786:	f7fb fcdf 	bl	1148 <makeLine>
		sendMessage(servoRetract, 1, 0x373A);
    578a:	f240 0008 	movw	r0, #8
    578e:	f2c2 0000 	movt	r0, #8192	; 0x2000
    5792:	f04f 0101 	mov.w	r1, #1
    5796:	f243 723a 	movw	r2, #14138	; 0x373a
    579a:	f7fb f8b1 	bl	900 <sendMessage>
		makeLine(2, 4);
    579e:	f04f 0000 	mov.w	r0, #0
    57a2:	f04f 4180 	mov.w	r1, #1073741824	; 0x40000000
    57a6:	f04f 0200 	mov.w	r2, #0
    57aa:	f04f 4380 	mov.w	r3, #1073741824	; 0x40000000
    57ae:	f503 1380 	add.w	r3, r3, #1048576	; 0x100000
    57b2:	f7fb fcc9 	bl	1148 <makeLine>
	}
}
    57b6:	f107 0708 	add.w	r7, r7, #8
    57ba:	46bd      	mov	sp, r7
    57bc:	bd80      	pop	{r7, pc}
    57be:	bf00      	nop
    57c0:	75e204d1 	.word	0x75e204d1
    57c4:	bfad82fd 	.word	0xbfad82fd
    57c8:	26aa8eb4 	.word	0x26aa8eb4
    57cc:	bfe2ba88 	.word	0xbfe2ba88
    57d0:	2862f599 	.word	0x2862f599
    57d4:	bfc5da27 	.word	0xbfc5da27
    57d8:	33daf8df 	.word	0x33daf8df
    57dc:	bfe2024b 	.word	0xbfe2024b
    57e0:	e5de15b8 	.word	0xe5de15b8
    57e4:	bfd1be22 	.word	0xbfd1be22
    57e8:	db37c99b 	.word	0xdb37c99b
    57ec:	bfe098dc 	.word	0xbfe098dc
    57f0:	e11dbcbb 	.word	0xe11dbcbb
    57f4:	bfd7e0b4 	.word	0xbfd7e0b4
    57f8:	8a9bcfd5 	.word	0x8a9bcfd5
    57fc:	bfdd1854 	.word	0xbfdd1854
    5800:	db37c9a4 	.word	0xdb37c9a4
    5804:	bfe098dc 	.word	0xbfe098dc
    5808:	75e204d1 	.word	0x75e204d1
    580c:	3fad82fd 	.word	0x3fad82fd
    5810:	2862f599 	.word	0x2862f599
    5814:	3fc5da27 	.word	0x3fc5da27
    5818:	e5de15b8 	.word	0xe5de15b8
    581c:	3fd1be22 	.word	0x3fd1be22
    5820:	e11dbcbb 	.word	0xe11dbcbb
    5824:	3fd7e0b4 	.word	0x3fd7e0b4
    5828:	e11dbca9 	.word	0xe11dbca9
    582c:	bfd7e0b4 	.word	0xbfd7e0b4
    5830:	8a9bcfd5 	.word	0x8a9bcfd5
    5834:	3fdd1854 	.word	0x3fdd1854
    5838:	e5de15ca 	.word	0xe5de15ca
    583c:	bfd1be22 	.word	0xbfd1be22
    5840:	db37c99b 	.word	0xdb37c99b
    5844:	3fe098dc 	.word	0x3fe098dc
    5848:	33daf8df 	.word	0x33daf8df
    584c:	3fe2024b 	.word	0x3fe2024b
    5850:	75e2046c 	.word	0x75e2046c
    5854:	bfad82fd 	.word	0xbfad82fd
    5858:	26aa8eb4 	.word	0x26aa8eb4
    585c:	3fe2ba88 	.word	0x3fe2ba88
    5860:	75e2046c 	.word	0x75e2046c
    5864:	3fad82fd 	.word	0x3fad82fd
    5868:	e5de15ca 	.word	0xe5de15ca
    586c:	3fd1be22 	.word	0x3fd1be22
    5870:	e11dbca9 	.word	0xe11dbca9
    5874:	3fd7e0b4 	.word	0x3fd7e0b4
    5878:	db37c9a4 	.word	0xdb37c9a4
    587c:	3fe098dc 	.word	0x3fe098dc

00005880 <uart0_rx_handler>:
uint8_t textInput[RX_BUFF_SIZE];	//Stores text input only, use other arrays to store freeform drawing data points
int textInputCounter = 0;		//Indexes into textInput array so input does not overwrite each other in the 0th index
int textInputDrawnCounter = 0;	//Remembers where in the array we have drawn until

void uart0_rx_handler( mss_uart_instance_t * this_uart )
{
    5880:	b580      	push	{r7, lr}
    5882:	b084      	sub	sp, #16
    5884:	af00      	add	r7, sp, #0
    5886:	6078      	str	r0, [r7, #4]
	//Read buffer into textInput array at [textInputCounter]
	int rx_size = MSS_UART_get_rx( this_uart, textInput + textInputCounter * sizeof(uint8_t), sizeof(textInput) );
    5888:	f240 1348 	movw	r3, #328	; 0x148
    588c:	f2c2 0300 	movt	r3, #8192	; 0x2000
    5890:	681b      	ldr	r3, [r3, #0]
    5892:	461a      	mov	r2, r3
    5894:	f641 63b8 	movw	r3, #7864	; 0x1eb8
    5898:	f2c2 0300 	movt	r3, #8192	; 0x2000
    589c:	4413      	add	r3, r2
    589e:	6878      	ldr	r0, [r7, #4]
    58a0:	4619      	mov	r1, r3
    58a2:	f641 524c 	movw	r2, #7500	; 0x1d4c
    58a6:	f000 fcb3 	bl	6210 <MSS_UART_get_rx>
    58aa:	4603      	mov	r3, r0
    58ac:	60fb      	str	r3, [r7, #12]
	textInputCounter += rx_size;
    58ae:	f240 1348 	movw	r3, #328	; 0x148
    58b2:	f2c2 0300 	movt	r3, #8192	; 0x2000
    58b6:	681a      	ldr	r2, [r3, #0]
    58b8:	68fb      	ldr	r3, [r7, #12]
    58ba:	441a      	add	r2, r3
    58bc:	f240 1348 	movw	r3, #328	; 0x148
    58c0:	f2c2 0300 	movt	r3, #8192	; 0x2000
    58c4:	601a      	str	r2, [r3, #0]
	//Make sure counter does not index into out of bounds memory. hard fault bois
	if(textInputCounter >= RX_BUFF_SIZE) {
    58c6:	f240 1348 	movw	r3, #328	; 0x148
    58ca:	f2c2 0300 	movt	r3, #8192	; 0x2000
    58ce:	681a      	ldr	r2, [r3, #0]
    58d0:	f641 534b 	movw	r3, #7499	; 0x1d4b
    58d4:	429a      	cmp	r2, r3
    58d6:	dd06      	ble.n	58e6 <uart0_rx_handler+0x66>
		textInputCounter = 0;
    58d8:	f240 1348 	movw	r3, #328	; 0x148
    58dc:	f2c2 0300 	movt	r3, #8192	; 0x2000
    58e0:	f04f 0200 	mov.w	r2, #0
    58e4:	601a      	str	r2, [r3, #0]
	}
	newInput = 1;	//Sets the new input flag to true
    58e6:	f240 1344 	movw	r3, #324	; 0x144
    58ea:	f2c2 0300 	movt	r3, #8192	; 0x2000
    58ee:	f04f 0201 	mov.w	r2, #1
    58f2:	701a      	strb	r2, [r3, #0]
}
    58f4:	f107 0710 	add.w	r7, r7, #16
    58f8:	46bd      	mov	sp, r7
    58fa:	bd80      	pop	{r7, pc}

000058fc <drawHardCoded>:

void drawHardCoded() {
    58fc:	b580      	push	{r7, lr}
    58fe:	b082      	sub	sp, #8
    5900:	af00      	add	r7, sp, #0
	MSS_TIM2_start();
    5902:	f7fa fef3 	bl	6ec <MSS_TIM2_start>
	MSS_TIM1_start();
    5906:	f7fa fe65 	bl	5d4 <MSS_TIM1_start>
	makeLine(-20.0, 0.0);
    590a:	f04f 0000 	mov.w	r0, #0
    590e:	f04f 4140 	mov.w	r1, #3221225472	; 0xc0000000
    5912:	f501 1150 	add.w	r1, r1, #3407872	; 0x340000
    5916:	f04f 0200 	mov.w	r2, #0
    591a:	f04f 0300 	mov.w	r3, #0
    591e:	f7fb fc13 	bl	1148 <makeLine>
	int i = 0;
    5922:	f04f 0300 	mov.w	r3, #0
    5926:	607b      	str	r3, [r7, #4]
	//Draw from last drawn character to the next carriage return (when user presses enter, \r is placed into buffer
	for(i = textInputDrawnCounter; textInput[i] != '\r'; ++i) {
    5928:	f240 134c 	movw	r3, #332	; 0x14c
    592c:	f2c2 0300 	movt	r3, #8192	; 0x2000
    5930:	681b      	ldr	r3, [r3, #0]
    5932:	607b      	str	r3, [r7, #4]
    5934:	e014      	b.n	5960 <drawHardCoded+0x64>
		//Draw character
		drawCharacter(textInput[i]);
    5936:	687a      	ldr	r2, [r7, #4]
    5938:	f641 63b8 	movw	r3, #7864	; 0x1eb8
    593c:	f2c2 0300 	movt	r3, #8192	; 0x2000
    5940:	5c9b      	ldrb	r3, [r3, r2]
    5942:	4618      	mov	r0, r3
    5944:	f7fb ff38 	bl	17b8 <drawCharacter>
		//Erase as it goes along and replace with arbitrary character for easier debugging
		textInput[i] = 'D';
    5948:	687a      	ldr	r2, [r7, #4]
    594a:	f641 63b8 	movw	r3, #7864	; 0x1eb8
    594e:	f2c2 0300 	movt	r3, #8192	; 0x2000
    5952:	f04f 0144 	mov.w	r1, #68	; 0x44
    5956:	5499      	strb	r1, [r3, r2]
	MSS_TIM2_start();
	MSS_TIM1_start();
	makeLine(-20.0, 0.0);
	int i = 0;
	//Draw from last drawn character to the next carriage return (when user presses enter, \r is placed into buffer
	for(i = textInputDrawnCounter; textInput[i] != '\r'; ++i) {
    5958:	687b      	ldr	r3, [r7, #4]
    595a:	f103 0301 	add.w	r3, r3, #1
    595e:	607b      	str	r3, [r7, #4]
    5960:	687a      	ldr	r2, [r7, #4]
    5962:	f641 63b8 	movw	r3, #7864	; 0x1eb8
    5966:	f2c2 0300 	movt	r3, #8192	; 0x2000
    596a:	5c9b      	ldrb	r3, [r3, r2]
    596c:	2b0d      	cmp	r3, #13
    596e:	d1e2      	bne.n	5936 <drawHardCoded+0x3a>
		drawCharacter(textInput[i]);
		//Erase as it goes along and replace with arbitrary character for easier debugging
		textInput[i] = 'D';
	}
	//Once done drawing
	MSS_TIM1_stop();
    5970:	f7fa fe3e 	bl	5f0 <MSS_TIM1_stop>
	MSS_TIM2_stop();
    5974:	f7fa fec8 	bl	708 <MSS_TIM2_stop>
	newInput = 0;	//Once done drawing, reset the flag to false
    5978:	f240 1344 	movw	r3, #324	; 0x144
    597c:	f2c2 0300 	movt	r3, #8192	; 0x2000
    5980:	f04f 0200 	mov.w	r2, #0
    5984:	701a      	strb	r2, [r3, #0]
	//Character in ith index is '\r'. Set textInputDrawnCounter to one after \r
	textInputDrawnCounter = i + 1;
    5986:	687b      	ldr	r3, [r7, #4]
    5988:	f103 0201 	add.w	r2, r3, #1
    598c:	f240 134c 	movw	r3, #332	; 0x14c
    5990:	f2c2 0300 	movt	r3, #8192	; 0x2000
    5994:	601a      	str	r2, [r3, #0]
	if(textInputDrawnCounter >= RX_BUFF_SIZE) {
    5996:	f240 134c 	movw	r3, #332	; 0x14c
    599a:	f2c2 0300 	movt	r3, #8192	; 0x2000
    599e:	681a      	ldr	r2, [r3, #0]
    59a0:	f641 534b 	movw	r3, #7499	; 0x1d4b
    59a4:	429a      	cmp	r2, r3
    59a6:	dd06      	ble.n	59b6 <drawHardCoded+0xba>
		textInputDrawnCounter = 0;
    59a8:	f240 134c 	movw	r3, #332	; 0x14c
    59ac:	f2c2 0300 	movt	r3, #8192	; 0x2000
    59b0:	f04f 0200 	mov.w	r2, #0
    59b4:	601a      	str	r2, [r3, #0]
	}
}
    59b6:	f107 0708 	add.w	r7, r7, #8
    59ba:	46bd      	mov	sp, r7
    59bc:	bd80      	pop	{r7, pc}
    59be:	bf00      	nop

000059c0 <drawFreeform>:

void drawFreeform() {
    59c0:	b5b0      	push	{r4, r5, r7, lr}
    59c2:	b082      	sub	sp, #8
    59c4:	af00      	add	r7, sp, #0
	int i;
	uint8_t currentX;	//Stores current position of freeform drawing for use in calculation of relative distances
	uint8_t currentY;
	//Only start if a pair of values are available
	if(parsedCounter > 1) {
    59c6:	f240 1340 	movw	r3, #320	; 0x140
    59ca:	f2c2 0300 	movt	r3, #8192	; 0x2000
    59ce:	681b      	ldr	r3, [r3, #0]
    59d0:	2b01      	cmp	r3, #1
    59d2:	f340 8150 	ble.w	5c76 <drawFreeform+0x2b6>
		//Set current position to first received position
		currentX = receivedParsed[0];
    59d6:	f643 4320 	movw	r3, #15392	; 0x3c20
    59da:	f2c2 0300 	movt	r3, #8192	; 0x2000
    59de:	781b      	ldrb	r3, [r3, #0]
    59e0:	717b      	strb	r3, [r7, #5]
		currentY = receivedParsed[1];
    59e2:	f643 4320 	movw	r3, #15392	; 0x3c20
    59e6:	f2c2 0300 	movt	r3, #8192	; 0x2000
    59ea:	785b      	ldrb	r3, [r3, #1]
    59ec:	71bb      	strb	r3, [r7, #6]
		//Move to starting position
		sendMessage(&servoRetract, 1, 0x373A);
    59ee:	f240 0008 	movw	r0, #8
    59f2:	f2c2 0000 	movt	r0, #8192	; 0x2000
    59f6:	f04f 0101 	mov.w	r1, #1
    59fa:	f243 723a 	movw	r2, #14138	; 0x373a
    59fe:	f7fa ff7f 	bl	900 <sendMessage>
		//makeLine(currentX / 10.0 + 29.75 - 42.5, currentY / 10.0 + 20.5 - 28.5);
		makeLine((currentX) / horizontalScale - 25.0, (currentY) / verticalScale - 10.5);
    5a02:	797b      	ldrb	r3, [r7, #5]
    5a04:	4618      	mov	r0, r3
    5a06:	f001 f8f9 	bl	6bfc <__aeabi_i2d>
    5a0a:	4602      	mov	r2, r0
    5a0c:	460b      	mov	r3, r1
    5a0e:	4610      	mov	r0, r2
    5a10:	4619      	mov	r1, r3
    5a12:	f04f 0200 	mov.w	r2, #0
    5a16:	f04f 4380 	mov.w	r3, #1073741824	; 0x40000000
    5a1a:	f503 13a0 	add.w	r3, r3, #1310720	; 0x140000
    5a1e:	f001 fa7d 	bl	6f1c <__aeabi_ddiv>
    5a22:	4602      	mov	r2, r0
    5a24:	460b      	mov	r3, r1
    5a26:	4610      	mov	r0, r2
    5a28:	4619      	mov	r1, r3
    5a2a:	f04f 0200 	mov.w	r2, #0
    5a2e:	f04f 4380 	mov.w	r3, #1073741824	; 0x40000000
    5a32:	f503 1364 	add.w	r3, r3, #3735552	; 0x390000
    5a36:	f000 ff93 	bl	6960 <__aeabi_dsub>
    5a3a:	4602      	mov	r2, r0
    5a3c:	460b      	mov	r3, r1
    5a3e:	4614      	mov	r4, r2
    5a40:	461d      	mov	r5, r3
    5a42:	79bb      	ldrb	r3, [r7, #6]
    5a44:	4618      	mov	r0, r3
    5a46:	f001 f8d9 	bl	6bfc <__aeabi_i2d>
    5a4a:	4602      	mov	r2, r0
    5a4c:	460b      	mov	r3, r1
    5a4e:	4610      	mov	r0, r2
    5a50:	4619      	mov	r1, r3
    5a52:	f04f 0200 	mov.w	r2, #0
    5a56:	f04f 4380 	mov.w	r3, #1073741824	; 0x40000000
    5a5a:	f503 1310 	add.w	r3, r3, #2359296	; 0x240000
    5a5e:	f001 fa5d 	bl	6f1c <__aeabi_ddiv>
    5a62:	4602      	mov	r2, r0
    5a64:	460b      	mov	r3, r1
    5a66:	4610      	mov	r0, r2
    5a68:	4619      	mov	r1, r3
    5a6a:	f04f 0200 	mov.w	r2, #0
    5a6e:	f04f 4380 	mov.w	r3, #1073741824	; 0x40000000
    5a72:	f503 1314 	add.w	r3, r3, #2424832	; 0x250000
    5a76:	f000 ff73 	bl	6960 <__aeabi_dsub>
    5a7a:	4602      	mov	r2, r0
    5a7c:	460b      	mov	r3, r1
    5a7e:	4620      	mov	r0, r4
    5a80:	4629      	mov	r1, r5
    5a82:	f7fb fb61 	bl	1148 <makeLine>
		sendMessage(&servoExtend, 1, 0x373A);
    5a86:	f240 000c 	movw	r0, #12
    5a8a:	f2c2 0000 	movt	r0, #8192	; 0x2000
    5a8e:	f04f 0101 	mov.w	r1, #1
    5a92:	f243 723a 	movw	r2, #14138	; 0x373a
    5a96:	f7fa ff33 	bl	900 <sendMessage>
		//Loop through each pair of received values
		for(i = 2; i < parsedCounter; i += 2) {
    5a9a:	f04f 0302 	mov.w	r3, #2
    5a9e:	603b      	str	r3, [r7, #0]
    5aa0:	e0b2      	b.n	5c08 <drawFreeform+0x248>
			//Scale the difference between next position and current position. Move that relative distance
			//makeLine((receivedParsed[i] - currentX) / 10.0 + 29.75, (receivedParsed[i+1] - currentY) / 10.0 + 20.5);
			//If distance between the current point and the next point is more than a threshold, then lift up marker
			uint8_t farEnough = (pow(receivedParsed[i] - currentX, 2) + pow(receivedParsed[i+1] - currentY, 2)) > farEnoughThresh;
    5aa2:	683a      	ldr	r2, [r7, #0]
    5aa4:	f643 4320 	movw	r3, #15392	; 0x3c20
    5aa8:	f2c2 0300 	movt	r3, #8192	; 0x2000
    5aac:	5c9b      	ldrb	r3, [r3, r2]
    5aae:	461a      	mov	r2, r3
    5ab0:	797b      	ldrb	r3, [r7, #5]
    5ab2:	ebc3 0302 	rsb	r3, r3, r2
    5ab6:	4618      	mov	r0, r3
    5ab8:	f001 f8a0 	bl	6bfc <__aeabi_i2d>
    5abc:	4602      	mov	r2, r0
    5abe:	460b      	mov	r3, r1
    5ac0:	4610      	mov	r0, r2
    5ac2:	4619      	mov	r1, r3
    5ac4:	f001 f900 	bl	6cc8 <__aeabi_dmul>
    5ac8:	4602      	mov	r2, r0
    5aca:	460b      	mov	r3, r1
    5acc:	4614      	mov	r4, r2
    5ace:	461d      	mov	r5, r3
    5ad0:	683b      	ldr	r3, [r7, #0]
    5ad2:	f103 0201 	add.w	r2, r3, #1
    5ad6:	f643 4320 	movw	r3, #15392	; 0x3c20
    5ada:	f2c2 0300 	movt	r3, #8192	; 0x2000
    5ade:	5c9b      	ldrb	r3, [r3, r2]
    5ae0:	461a      	mov	r2, r3
    5ae2:	79bb      	ldrb	r3, [r7, #6]
    5ae4:	ebc3 0302 	rsb	r3, r3, r2
    5ae8:	4618      	mov	r0, r3
    5aea:	f001 f887 	bl	6bfc <__aeabi_i2d>
    5aee:	4602      	mov	r2, r0
    5af0:	460b      	mov	r3, r1
    5af2:	4610      	mov	r0, r2
    5af4:	4619      	mov	r1, r3
    5af6:	f001 f8e7 	bl	6cc8 <__aeabi_dmul>
    5afa:	4602      	mov	r2, r0
    5afc:	460b      	mov	r3, r1
    5afe:	4620      	mov	r0, r4
    5b00:	4629      	mov	r1, r5
    5b02:	f000 ff2f 	bl	6964 <__adddf3>
    5b06:	4602      	mov	r2, r0
    5b08:	460b      	mov	r3, r1
    5b0a:	f04f 0100 	mov.w	r1, #0
    5b0e:	71f9      	strb	r1, [r7, #7]
    5b10:	4610      	mov	r0, r2
    5b12:	4619      	mov	r1, r3
    5b14:	f04f 0200 	mov.w	r2, #0
    5b18:	f04f 4380 	mov.w	r3, #1073741824	; 0x40000000
    5b1c:	f503 03b2 	add.w	r3, r3, #5832704	; 0x590000
    5b20:	f001 fb62 	bl	71e8 <__aeabi_dcmpgt>
    5b24:	4603      	mov	r3, r0
    5b26:	2b00      	cmp	r3, #0
    5b28:	d002      	beq.n	5b30 <drawFreeform+0x170>
    5b2a:	f04f 0301 	mov.w	r3, #1
    5b2e:	71fb      	strb	r3, [r7, #7]
			if(farEnough) {
    5b30:	79fb      	ldrb	r3, [r7, #7]
    5b32:	2b00      	cmp	r3, #0
    5b34:	d009      	beq.n	5b4a <drawFreeform+0x18a>
				sendMessage(&servoRetract, 1, 0x373A);
    5b36:	f240 0008 	movw	r0, #8
    5b3a:	f2c2 0000 	movt	r0, #8192	; 0x2000
    5b3e:	f04f 0101 	mov.w	r1, #1
    5b42:	f243 723a 	movw	r2, #14138	; 0x373a
    5b46:	f7fa fedb 	bl	900 <sendMessage>
			}
			makeLine((receivedParsed[i] - currentX) / horizontalScale, (receivedParsed[i+1] - currentY) / verticalScale);
    5b4a:	683a      	ldr	r2, [r7, #0]
    5b4c:	f643 4320 	movw	r3, #15392	; 0x3c20
    5b50:	f2c2 0300 	movt	r3, #8192	; 0x2000
    5b54:	5c9b      	ldrb	r3, [r3, r2]
    5b56:	461a      	mov	r2, r3
    5b58:	797b      	ldrb	r3, [r7, #5]
    5b5a:	ebc3 0302 	rsb	r3, r3, r2
    5b5e:	4618      	mov	r0, r3
    5b60:	f001 f84c 	bl	6bfc <__aeabi_i2d>
    5b64:	4602      	mov	r2, r0
    5b66:	460b      	mov	r3, r1
    5b68:	4610      	mov	r0, r2
    5b6a:	4619      	mov	r1, r3
    5b6c:	f04f 0200 	mov.w	r2, #0
    5b70:	f04f 4380 	mov.w	r3, #1073741824	; 0x40000000
    5b74:	f503 13a0 	add.w	r3, r3, #1310720	; 0x140000
    5b78:	f001 f9d0 	bl	6f1c <__aeabi_ddiv>
    5b7c:	4602      	mov	r2, r0
    5b7e:	460b      	mov	r3, r1
    5b80:	4614      	mov	r4, r2
    5b82:	461d      	mov	r5, r3
    5b84:	683b      	ldr	r3, [r7, #0]
    5b86:	f103 0201 	add.w	r2, r3, #1
    5b8a:	f643 4320 	movw	r3, #15392	; 0x3c20
    5b8e:	f2c2 0300 	movt	r3, #8192	; 0x2000
    5b92:	5c9b      	ldrb	r3, [r3, r2]
    5b94:	461a      	mov	r2, r3
    5b96:	79bb      	ldrb	r3, [r7, #6]
    5b98:	ebc3 0302 	rsb	r3, r3, r2
    5b9c:	4618      	mov	r0, r3
    5b9e:	f001 f82d 	bl	6bfc <__aeabi_i2d>
    5ba2:	4602      	mov	r2, r0
    5ba4:	460b      	mov	r3, r1
    5ba6:	4610      	mov	r0, r2
    5ba8:	4619      	mov	r1, r3
    5baa:	f04f 0200 	mov.w	r2, #0
    5bae:	f04f 4380 	mov.w	r3, #1073741824	; 0x40000000
    5bb2:	f503 1310 	add.w	r3, r3, #2359296	; 0x240000
    5bb6:	f001 f9b1 	bl	6f1c <__aeabi_ddiv>
    5bba:	4602      	mov	r2, r0
    5bbc:	460b      	mov	r3, r1
    5bbe:	4620      	mov	r0, r4
    5bc0:	4629      	mov	r1, r5
    5bc2:	f7fb fac1 	bl	1148 <makeLine>
			if(farEnough) {
    5bc6:	79fb      	ldrb	r3, [r7, #7]
    5bc8:	2b00      	cmp	r3, #0
    5bca:	d009      	beq.n	5be0 <drawFreeform+0x220>
				sendMessage(&servoExtend, 1, 0x373A);
    5bcc:	f240 000c 	movw	r0, #12
    5bd0:	f2c2 0000 	movt	r0, #8192	; 0x2000
    5bd4:	f04f 0101 	mov.w	r1, #1
    5bd8:	f243 723a 	movw	r2, #14138	; 0x373a
    5bdc:	f7fa fe90 	bl	900 <sendMessage>
			}
			//Update current position to new position
			currentX = receivedParsed[i];
    5be0:	683a      	ldr	r2, [r7, #0]
    5be2:	f643 4320 	movw	r3, #15392	; 0x3c20
    5be6:	f2c2 0300 	movt	r3, #8192	; 0x2000
    5bea:	5c9b      	ldrb	r3, [r3, r2]
    5bec:	717b      	strb	r3, [r7, #5]
			currentY = receivedParsed[i+1];
    5bee:	683b      	ldr	r3, [r7, #0]
    5bf0:	f103 0201 	add.w	r2, r3, #1
    5bf4:	f643 4320 	movw	r3, #15392	; 0x3c20
    5bf8:	f2c2 0300 	movt	r3, #8192	; 0x2000
    5bfc:	5c9b      	ldrb	r3, [r3, r2]
    5bfe:	71bb      	strb	r3, [r7, #6]
		sendMessage(&servoRetract, 1, 0x373A);
		//makeLine(currentX / 10.0 + 29.75 - 42.5, currentY / 10.0 + 20.5 - 28.5);
		makeLine((currentX) / horizontalScale - 25.0, (currentY) / verticalScale - 10.5);
		sendMessage(&servoExtend, 1, 0x373A);
		//Loop through each pair of received values
		for(i = 2; i < parsedCounter; i += 2) {
    5c00:	683b      	ldr	r3, [r7, #0]
    5c02:	f103 0302 	add.w	r3, r3, #2
    5c06:	603b      	str	r3, [r7, #0]
    5c08:	f240 1340 	movw	r3, #320	; 0x140
    5c0c:	f2c2 0300 	movt	r3, #8192	; 0x2000
    5c10:	681b      	ldr	r3, [r3, #0]
    5c12:	683a      	ldr	r2, [r7, #0]
    5c14:	429a      	cmp	r2, r3
    5c16:	f6ff af44 	blt.w	5aa2 <drawFreeform+0xe2>
			//Update current position to new position
			currentX = receivedParsed[i];
			currentY = receivedParsed[i+1];
		}
		//Once done drawing
		MSS_TIM1_stop();
    5c1a:	f7fa fce9 	bl	5f0 <MSS_TIM1_stop>
		MSS_TIM2_stop();
    5c1e:	f7fa fd73 	bl	708 <MSS_TIM2_stop>
		newInput = 0;
    5c22:	f240 1344 	movw	r3, #324	; 0x144
    5c26:	f2c2 0300 	movt	r3, #8192	; 0x2000
    5c2a:	f04f 0200 	mov.w	r2, #0
    5c2e:	701a      	strb	r2, [r3, #0]
		//makeLine(0,0);
		sendMessage(&servoRetract, 1, 0x373A);
    5c30:	f240 0008 	movw	r0, #8
    5c34:	f2c2 0000 	movt	r0, #8192	; 0x2000
    5c38:	f04f 0101 	mov.w	r1, #1
    5c3c:	f243 723a 	movw	r2, #14138	; 0x373a
    5c40:	f7fa fe5e 	bl	900 <sendMessage>



		makeLine(0, 0);
    5c44:	f04f 0000 	mov.w	r0, #0
    5c48:	f04f 0100 	mov.w	r1, #0
    5c4c:	f04f 0200 	mov.w	r2, #0
    5c50:	f04f 0300 	mov.w	r3, #0
    5c54:	f7fb fa78 	bl	1148 <makeLine>
		MSS_UART_enable_irq( &g_mss_uart1,( MSS_UART_RBF_IRQ ) );
    5c58:	f643 608c 	movw	r0, #16012	; 0x3e8c
    5c5c:	f2c2 0000 	movt	r0, #8192	; 0x2000
    5c60:	f04f 0101 	mov.w	r1, #1
    5c64:	f000 fb42 	bl	62ec <MSS_UART_enable_irq>
		parsedCounter = 0;
    5c68:	f240 1340 	movw	r3, #320	; 0x140
    5c6c:	f2c2 0300 	movt	r3, #8192	; 0x2000
    5c70:	f04f 0200 	mov.w	r2, #0
    5c74:	601a      	str	r2, [r3, #0]
				//currentX = receivedParsed[i] / 10.0 + 29.75;
				//currentY = receivedParsed[i+1] / 10.0 + 15.75;
			}
	}
	*/
}
    5c76:	f107 0708 	add.w	r7, r7, #8
    5c7a:	46bd      	mov	sp, r7
    5c7c:	bdb0      	pop	{r4, r5, r7, pc}
    5c7e:	bf00      	nop

00005c80 <main>:

//Current Dimensions: 57, 85
//center: 42.5, 28.5
int main(){
    5c80:	b580      	push	{r7, lr}
    5c82:	b082      	sub	sp, #8
    5c84:	af00      	add	r7, sp, #0
	uint8_t servoExtend[1] = "e";
    5c86:	f247 5350 	movw	r3, #30032	; 0x7550
    5c8a:	f2c0 0300 	movt	r3, #0
    5c8e:	781b      	ldrb	r3, [r3, #0]
    5c90:	713b      	strb	r3, [r7, #4]
	uint8_t servoRetract[1] = "r";
    5c92:	f247 5354 	movw	r3, #30036	; 0x7554
    5c96:	f2c0 0300 	movt	r3, #0
    5c9a:	781b      	ldrb	r3, [r3, #0]
    5c9c:	703b      	strb	r3, [r7, #0]

	//Initializes UART0 and UART1
	MSS_UART_init( &g_mss_uart0, MSS_UART_57600_BAUD, MSS_UART_DATA_8_BITS | MSS_UART_NO_PARITY | MSS_UART_ONE_STOP_BIT );
    5c9e:	f643 60b4 	movw	r0, #16052	; 0x3eb4
    5ca2:	f2c2 0000 	movt	r0, #8192	; 0x2000
    5ca6:	f44f 4161 	mov.w	r1, #57600	; 0xe100
    5caa:	f04f 0203 	mov.w	r2, #3
    5cae:	f000 f93b 	bl	5f28 <MSS_UART_init>
	MSS_UART_init(&g_mss_uart1, MSS_UART_57600_BAUD, MSS_UART_DATA_8_BITS | MSS_UART_NO_PARITY | MSS_UART_ONE_STOP_BIT);
    5cb2:	f643 608c 	movw	r0, #16012	; 0x3e8c
    5cb6:	f2c2 0000 	movt	r0, #8192	; 0x2000
    5cba:	f44f 4161 	mov.w	r1, #57600	; 0xe100
    5cbe:	f04f 0203 	mov.w	r2, #3
    5cc2:	f000 f931 	bl	5f28 <MSS_UART_init>
	//Set UART0 rx handler to trigger after one byte comes in. NOTE!! MUST USE PROVIDED MACROS. BLOOD SWEAT AND TEARS WENT INTO FINDING THAT OUT
	MSS_UART_set_rx_handler( &g_mss_uart0, uart0_rx_handler, MSS_UART_FIFO_SINGLE_BYTE );
    5cc6:	f643 60b4 	movw	r0, #16052	; 0x3eb4
    5cca:	f2c2 0000 	movt	r0, #8192	; 0x2000
    5cce:	f645 0181 	movw	r1, #22657	; 0x5881
    5cd2:	f2c0 0100 	movt	r1, #0
    5cd6:	f04f 0200 	mov.w	r2, #0
    5cda:	f000 fc9b 	bl	6614 <MSS_UART_set_rx_handler>
	//Set UART1 rx handler to trigger after 14 bytes come in. NOTE!! MUST USE PROVIDED MACROS. BLOOD SWEAT AND TEARS WENT INTO FINDING THAT OUT
	MSS_UART_set_rx_handler( &g_mss_uart1, uart1_rx_handler, MSS_UART_FIFO_FOURTEEN_BYTES);
    5cde:	f643 608c 	movw	r0, #16012	; 0x3e8c
    5ce2:	f2c2 0000 	movt	r0, #8192	; 0x2000
    5ce6:	f640 11f5 	movw	r1, #2549	; 0x9f5
    5cea:	f2c0 0100 	movt	r1, #0
    5cee:	f04f 02c0 	mov.w	r2, #192	; 0xc0
    5cf2:	f000 fc8f 	bl	6614 <MSS_UART_set_rx_handler>
	stepper_config(SIXTEENTH, SIXTEENTH);
    5cf6:	f04f 0007 	mov.w	r0, #7
    5cfa:	f04f 0107 	mov.w	r1, #7
    5cfe:	f000 f87b 	bl	5df8 <stepper_config>
	interfaceConfig(57, 85);
    5d02:	a131      	add	r1, pc, #196	; (adr r1, 5dc8 <main+0x148>)
    5d04:	e9d1 0100 	ldrd	r0, r1, [r1]
    5d08:	a331      	add	r3, pc, #196	; (adr r3, 5dd0 <main+0x150>)
    5d0a:	e9d3 2300 	ldrd	r2, r3, [r3]
    5d0e:	f7fb f90f 	bl	f30 <interfaceConfig>
	sendMessage(servoRetract, 1, 0x373A);
    5d12:	463b      	mov	r3, r7
    5d14:	4618      	mov	r0, r3
    5d16:	f04f 0101 	mov.w	r1, #1
    5d1a:	f243 723a 	movw	r2, #14138	; 0x373a
    5d1e:	f7fa fdef 	bl	900 <sendMessage>


	while(1) {
		switch(mode) {
    5d22:	f240 0304 	movw	r3, #4
    5d26:	f2c2 0300 	movt	r3, #8192	; 0x2000
    5d2a:	681b      	ldr	r3, [r3, #0]
    5d2c:	2b5f      	cmp	r3, #95	; 0x5f
    5d2e:	d015      	beq.n	5d5c <main+0xdc>
    5d30:	2b5f      	cmp	r3, #95	; 0x5f
    5d32:	dc05      	bgt.n	5d40 <main+0xc0>
    5d34:	f1b3 3fff 	cmp.w	r3, #4294967295
    5d38:	d005      	beq.n	5d46 <main+0xc6>
    5d3a:	2b25      	cmp	r3, #37	; 0x25
    5d3c:	d004      	beq.n	5d48 <main+0xc8>
			break;

		default:
			break;
		}
	}
    5d3e:	e7f0      	b.n	5d22 <main+0xa2>
	interfaceConfig(57, 85);
	sendMessage(servoRetract, 1, 0x373A);


	while(1) {
		switch(mode) {
    5d40:	2b7e      	cmp	r3, #126	; 0x7e
    5d42:	d02a      	beq.n	5d9a <main+0x11a>
			break;

		default:
			break;
		}
	}
    5d44:	e7ed      	b.n	5d22 <main+0xa2>


	while(1) {
		switch(mode) {
		case -1:	//User has not chosen mode yet
			break;
    5d46:	e03d      	b.n	5dc4 <main+0x144>

		case 37:		//Text
			if(newInput) {
    5d48:	f240 1344 	movw	r3, #324	; 0x144
    5d4c:	f2c2 0300 	movt	r3, #8192	; 0x2000
    5d50:	781b      	ldrb	r3, [r3, #0]
    5d52:	2b00      	cmp	r3, #0
    5d54:	d001      	beq.n	5d5a <main+0xda>
				drawHardCoded();
    5d56:	f7ff fdd1 	bl	58fc <drawHardCoded>
			}
			break;
    5d5a:	e033      	b.n	5dc4 <main+0x144>

		case 95:		//Shape
			if(newInput) {
    5d5c:	f240 1344 	movw	r3, #324	; 0x144
    5d60:	f2c2 0300 	movt	r3, #8192	; 0x2000
    5d64:	781b      	ldrb	r3, [r3, #0]
    5d66:	2b00      	cmp	r3, #0
    5d68:	d016      	beq.n	5d98 <main+0x118>
				MSS_TIM2_start();
    5d6a:	f7fa fcbf 	bl	6ec <MSS_TIM2_start>
				MSS_TIM1_start();
    5d6e:	f7fa fc31 	bl	5d4 <MSS_TIM1_start>
				drawCharacter(shapeInput);
    5d72:	f240 1345 	movw	r3, #325	; 0x145
    5d76:	f2c2 0300 	movt	r3, #8192	; 0x2000
    5d7a:	781b      	ldrb	r3, [r3, #0]
    5d7c:	4618      	mov	r0, r3
    5d7e:	f7fb fd1b 	bl	17b8 <drawCharacter>
				newInput = 0;
    5d82:	f240 1344 	movw	r3, #324	; 0x144
    5d86:	f2c2 0300 	movt	r3, #8192	; 0x2000
    5d8a:	f04f 0200 	mov.w	r2, #0
    5d8e:	701a      	strb	r2, [r3, #0]
				MSS_TIM1_stop();
    5d90:	f7fa fc2e 	bl	5f0 <MSS_TIM1_stop>
				MSS_TIM2_stop();
    5d94:	f7fa fcb8 	bl	708 <MSS_TIM2_stop>
			}
			break;
    5d98:	e014      	b.n	5dc4 <main+0x144>

		case 126:		//Freeform
			if(newInput) {
    5d9a:	f240 1344 	movw	r3, #324	; 0x144
    5d9e:	f2c2 0300 	movt	r3, #8192	; 0x2000
    5da2:	781b      	ldrb	r3, [r3, #0]
    5da4:	2b00      	cmp	r3, #0
    5da6:	d002      	beq.n	5dae <main+0x12e>
				drawFreeform();
    5da8:	f7ff fe0a 	bl	59c0 <drawFreeform>
			break;

		default:
			break;
		}
	}
    5dac:	e7b9      	b.n	5d22 <main+0xa2>
		case 126:		//Freeform
			if(newInput) {
				drawFreeform();
			}
			else {
				makeLine(0,0);
    5dae:	f04f 0000 	mov.w	r0, #0
    5db2:	f04f 0100 	mov.w	r1, #0
    5db6:	f04f 0200 	mov.w	r2, #0
    5dba:	f04f 0300 	mov.w	r3, #0
    5dbe:	f7fb f9c3 	bl	1148 <makeLine>
			break;

		default:
			break;
		}
	}
    5dc2:	e7ae      	b.n	5d22 <main+0xa2>
    5dc4:	e7ad      	b.n	5d22 <main+0xa2>
    5dc6:	bf00      	nop
    5dc8:	00000000 	.word	0x00000000
    5dcc:	404c8000 	.word	0x404c8000
    5dd0:	00000000 	.word	0x00000000
    5dd4:	40554000 	.word	0x40554000

00005dd8 <MSS_GPIO_set_outputs>:
static __INLINE void
MSS_GPIO_set_outputs
(
   uint32_t value
)
{
    5dd8:	b480      	push	{r7}
    5dda:	b083      	sub	sp, #12
    5ddc:	af00      	add	r7, sp, #0
    5dde:	6078      	str	r0, [r7, #4]
    GPIO->GPIO_OUT = value;
    5de0:	f243 0300 	movw	r3, #12288	; 0x3000
    5de4:	f2c4 0301 	movt	r3, #16385	; 0x4001
    5de8:	687a      	ldr	r2, [r7, #4]
    5dea:	f8c3 2088 	str.w	r2, [r3, #136]	; 0x88
}
    5dee:	f107 070c 	add.w	r7, r7, #12
    5df2:	46bd      	mov	sp, r7
    5df4:	bc80      	pop	{r7}
    5df6:	4770      	bx	lr

00005df8 <stepper_config>:
 *      Author: rishgoel
 */
#include "stepper.h"
#include "mss_gpio.h"

void stepper_config(int mode1, int mode2){
    5df8:	b580      	push	{r7, lr}
    5dfa:	b082      	sub	sp, #8
    5dfc:	af00      	add	r7, sp, #0
    5dfe:	6078      	str	r0, [r7, #4]
    5e00:	6039      	str	r1, [r7, #0]
	MSS_GPIO_set_outputs(mode1 | (mode2<<3));
    5e02:	683b      	ldr	r3, [r7, #0]
    5e04:	ea4f 02c3 	mov.w	r2, r3, lsl #3
    5e08:	687b      	ldr	r3, [r7, #4]
    5e0a:	ea42 0303 	orr.w	r3, r2, r3
    5e0e:	4618      	mov	r0, r3
    5e10:	f7ff ffe2 	bl	5dd8 <MSS_GPIO_set_outputs>
}
    5e14:	f107 0708 	add.w	r7, r7, #8
    5e18:	46bd      	mov	sp, r7
    5e1a:	bd80      	pop	{r7, pc}

00005e1c <step>:

void step(int dir1, int dir2){
    5e1c:	b480      	push	{r7}
    5e1e:	b085      	sub	sp, #20
    5e20:	af00      	add	r7, sp, #0
    5e22:	6078      	str	r0, [r7, #4]
    5e24:	6039      	str	r1, [r7, #0]
	int data = 0;
    5e26:	f04f 0300 	mov.w	r3, #0
    5e2a:	60fb      	str	r3, [r7, #12]

	if(dir1){
    5e2c:	687b      	ldr	r3, [r7, #4]
    5e2e:	2b00      	cmp	r3, #0
    5e30:	d008      	beq.n	5e44 <step+0x28>
		data |= ((1<<2) | (dir1-1));
    5e32:	687b      	ldr	r3, [r7, #4]
    5e34:	f103 33ff 	add.w	r3, r3, #4294967295
    5e38:	f043 0304 	orr.w	r3, r3, #4
    5e3c:	68fa      	ldr	r2, [r7, #12]
    5e3e:	ea42 0303 	orr.w	r3, r2, r3
    5e42:	60fb      	str	r3, [r7, #12]
	}
	if(dir2){
    5e44:	683b      	ldr	r3, [r7, #0]
    5e46:	2b00      	cmp	r3, #0
    5e48:	d00a      	beq.n	5e60 <step+0x44>
		data |= ((1<<3)| ((dir2-1)<<1));
    5e4a:	683b      	ldr	r3, [r7, #0]
    5e4c:	f103 33ff 	add.w	r3, r3, #4294967295
    5e50:	ea4f 0343 	mov.w	r3, r3, lsl #1
    5e54:	f043 0308 	orr.w	r3, r3, #8
    5e58:	68fa      	ldr	r2, [r7, #12]
    5e5a:	ea42 0303 	orr.w	r3, r2, r3
    5e5e:	60fb      	str	r3, [r7, #12]
	}
	*PADDR = data;
    5e60:	f240 0300 	movw	r3, #0
    5e64:	f2c4 0305 	movt	r3, #16389	; 0x4005
    5e68:	68fa      	ldr	r2, [r7, #12]
    5e6a:	601a      	str	r2, [r3, #0]
}
    5e6c:	f107 0714 	add.w	r7, r7, #20
    5e70:	46bd      	mov	sp, r7
    5e72:	bc80      	pop	{r7}
    5e74:	4770      	bx	lr
    5e76:	bf00      	nop

00005e78 <NVIC_EnableIRQ>:
 *
 * Enable a device specific interupt in the NVIC interrupt controller.
 * The interrupt number cannot be a negative value.
 */
static __INLINE void NVIC_EnableIRQ(IRQn_Type IRQn)
{
    5e78:	b480      	push	{r7}
    5e7a:	b083      	sub	sp, #12
    5e7c:	af00      	add	r7, sp, #0
    5e7e:	4603      	mov	r3, r0
    5e80:	80fb      	strh	r3, [r7, #6]
  NVIC->ISER[((uint32_t)(IRQn) >> 5)] = (1 << ((uint32_t)(IRQn) & 0x1F)); /* enable interrupt */
    5e82:	f24e 1300 	movw	r3, #57600	; 0xe100
    5e86:	f2ce 0300 	movt	r3, #57344	; 0xe000
    5e8a:	f9b7 2006 	ldrsh.w	r2, [r7, #6]
    5e8e:	ea4f 1252 	mov.w	r2, r2, lsr #5
    5e92:	88f9      	ldrh	r1, [r7, #6]
    5e94:	f001 011f 	and.w	r1, r1, #31
    5e98:	f04f 0001 	mov.w	r0, #1
    5e9c:	fa00 f101 	lsl.w	r1, r0, r1
    5ea0:	f843 1022 	str.w	r1, [r3, r2, lsl #2]
}
    5ea4:	f107 070c 	add.w	r7, r7, #12
    5ea8:	46bd      	mov	sp, r7
    5eaa:	bc80      	pop	{r7}
    5eac:	4770      	bx	lr
    5eae:	bf00      	nop

00005eb0 <NVIC_DisableIRQ>:
 * 
 * Disable a device specific interupt in the NVIC interrupt controller.
 * The interrupt number cannot be a negative value.
 */
static __INLINE void NVIC_DisableIRQ(IRQn_Type IRQn)
{
    5eb0:	b480      	push	{r7}
    5eb2:	b083      	sub	sp, #12
    5eb4:	af00      	add	r7, sp, #0
    5eb6:	4603      	mov	r3, r0
    5eb8:	80fb      	strh	r3, [r7, #6]
  NVIC->ICER[((uint32_t)(IRQn) >> 5)] = (1 << ((uint32_t)(IRQn) & 0x1F)); /* disable interrupt */
    5eba:	f24e 1300 	movw	r3, #57600	; 0xe100
    5ebe:	f2ce 0300 	movt	r3, #57344	; 0xe000
    5ec2:	f9b7 2006 	ldrsh.w	r2, [r7, #6]
    5ec6:	ea4f 1252 	mov.w	r2, r2, lsr #5
    5eca:	88f9      	ldrh	r1, [r7, #6]
    5ecc:	f001 011f 	and.w	r1, r1, #31
    5ed0:	f04f 0001 	mov.w	r0, #1
    5ed4:	fa00 f101 	lsl.w	r1, r0, r1
    5ed8:	f102 0220 	add.w	r2, r2, #32
    5edc:	f843 1022 	str.w	r1, [r3, r2, lsl #2]
}
    5ee0:	f107 070c 	add.w	r7, r7, #12
    5ee4:	46bd      	mov	sp, r7
    5ee6:	bc80      	pop	{r7}
    5ee8:	4770      	bx	lr
    5eea:	bf00      	nop

00005eec <NVIC_ClearPendingIRQ>:
 *
 * Clear the pending bit for the specified interrupt. 
 * The interrupt number cannot be a negative value.
 */
static __INLINE void NVIC_ClearPendingIRQ(IRQn_Type IRQn)
{
    5eec:	b480      	push	{r7}
    5eee:	b083      	sub	sp, #12
    5ef0:	af00      	add	r7, sp, #0
    5ef2:	4603      	mov	r3, r0
    5ef4:	80fb      	strh	r3, [r7, #6]
  NVIC->ICPR[((uint32_t)(IRQn) >> 5)] = (1 << ((uint32_t)(IRQn) & 0x1F)); /* Clear pending interrupt */
    5ef6:	f24e 1300 	movw	r3, #57600	; 0xe100
    5efa:	f2ce 0300 	movt	r3, #57344	; 0xe000
    5efe:	f9b7 2006 	ldrsh.w	r2, [r7, #6]
    5f02:	ea4f 1252 	mov.w	r2, r2, lsr #5
    5f06:	88f9      	ldrh	r1, [r7, #6]
    5f08:	f001 011f 	and.w	r1, r1, #31
    5f0c:	f04f 0001 	mov.w	r0, #1
    5f10:	fa00 f101 	lsl.w	r1, r0, r1
    5f14:	f102 0260 	add.w	r2, r2, #96	; 0x60
    5f18:	f843 1022 	str.w	r1, [r3, r2, lsl #2]
}
    5f1c:	f107 070c 	add.w	r7, r7, #12
    5f20:	46bd      	mov	sp, r7
    5f22:	bc80      	pop	{r7}
    5f24:	4770      	bx	lr
    5f26:	bf00      	nop

00005f28 <MSS_UART_init>:
(
    mss_uart_instance_t* this_uart,
    uint32_t baud_rate,
    uint8_t line_config
)
{
    5f28:	b580      	push	{r7, lr}
    5f2a:	b088      	sub	sp, #32
    5f2c:	af00      	add	r7, sp, #0
    5f2e:	60f8      	str	r0, [r7, #12]
    5f30:	60b9      	str	r1, [r7, #8]
    5f32:	4613      	mov	r3, r2
    5f34:	71fb      	strb	r3, [r7, #7]
    uint16_t baud_value = 1U;
    5f36:	f04f 0301 	mov.w	r3, #1
    5f3a:	82fb      	strh	r3, [r7, #22]
    uint32_t pclk_freq = 0U;
    5f3c:	f04f 0300 	mov.w	r3, #0
    5f40:	61bb      	str	r3, [r7, #24]
    uint32_t baud_value_l;

    /* The driver expects g_mss_uart0 and g_mss_uart1 to be the only
     * mss_uart_instance_t instances used to identify UART0 and UART1. */
    ASSERT( (this_uart == &g_mss_uart0) || (this_uart == &g_mss_uart1) );
    5f42:	68fa      	ldr	r2, [r7, #12]
    5f44:	f643 63b4 	movw	r3, #16052	; 0x3eb4
    5f48:	f2c2 0300 	movt	r3, #8192	; 0x2000
    5f4c:	429a      	cmp	r2, r3
    5f4e:	d007      	beq.n	5f60 <MSS_UART_init+0x38>
    5f50:	68fa      	ldr	r2, [r7, #12]
    5f52:	f643 638c 	movw	r3, #16012	; 0x3e8c
    5f56:	f2c2 0300 	movt	r3, #8192	; 0x2000
    5f5a:	429a      	cmp	r2, r3
    5f5c:	d000      	beq.n	5f60 <MSS_UART_init+0x38>
    5f5e:	be00      	bkpt	0x0000

    /* baud_rate should be greater than 0 */
    ASSERT( 0U < baud_rate );
    5f60:	68bb      	ldr	r3, [r7, #8]
    5f62:	2b00      	cmp	r3, #0
    5f64:	d100      	bne.n	5f68 <MSS_UART_init+0x40>
    5f66:	be00      	bkpt	0x0000

    /* Force the value of the CMSIS global variables holding the various system
     * clock frequencies to be updated. */
    SystemCoreClockUpdate();
    5f68:	f000 fbda 	bl	6720 <SystemCoreClockUpdate>

    if ( this_uart == &g_mss_uart0 )
    5f6c:	68fa      	ldr	r2, [r7, #12]
    5f6e:	f643 63b4 	movw	r3, #16052	; 0x3eb4
    5f72:	f2c2 0300 	movt	r3, #8192	; 0x2000
    5f76:	429a      	cmp	r2, r3
    5f78:	d12e      	bne.n	5fd8 <MSS_UART_init+0xb0>
    {
        this_uart->hw_reg = UART0;
    5f7a:	68fb      	ldr	r3, [r7, #12]
    5f7c:	f04f 4280 	mov.w	r2, #1073741824	; 0x40000000
    5f80:	601a      	str	r2, [r3, #0]
        this_uart->hw_reg_bit = UART0_BITBAND;
    5f82:	68fb      	ldr	r3, [r7, #12]
    5f84:	f04f 4284 	mov.w	r2, #1107296256	; 0x42000000
    5f88:	605a      	str	r2, [r3, #4]
        this_uart->irqn = UART0_IRQn;
    5f8a:	68fb      	ldr	r3, [r7, #12]
    5f8c:	f04f 020a 	mov.w	r2, #10
    5f90:	811a      	strh	r2, [r3, #8]

        pclk_freq = g_FrequencyPCLK0;
    5f92:	f240 0330 	movw	r3, #48	; 0x30
    5f96:	f2c2 0300 	movt	r3, #8192	; 0x2000
    5f9a:	681b      	ldr	r3, [r3, #0]
    5f9c:	61bb      	str	r3, [r7, #24]

        /* reset UART0 */
        SYSREG->SOFT_RST_CR |= SYSREG_UART0_SOFTRESET_MASK;
    5f9e:	f242 0300 	movw	r3, #8192	; 0x2000
    5fa2:	f2ce 0304 	movt	r3, #57348	; 0xe004
    5fa6:	f242 0200 	movw	r2, #8192	; 0x2000
    5faa:	f2ce 0204 	movt	r2, #57348	; 0xe004
    5fae:	6b12      	ldr	r2, [r2, #48]	; 0x30
    5fb0:	f042 0280 	orr.w	r2, r2, #128	; 0x80
    5fb4:	631a      	str	r2, [r3, #48]	; 0x30
        /* Clear any previously pended UART0 interrupt */
        NVIC_ClearPendingIRQ( UART0_IRQn );
    5fb6:	f04f 000a 	mov.w	r0, #10
    5fba:	f7ff ff97 	bl	5eec <NVIC_ClearPendingIRQ>
        /* Take UART0 out of reset. */
        SYSREG->SOFT_RST_CR &= ~SYSREG_UART0_SOFTRESET_MASK;
    5fbe:	f242 0300 	movw	r3, #8192	; 0x2000
    5fc2:	f2ce 0304 	movt	r3, #57348	; 0xe004
    5fc6:	f242 0200 	movw	r2, #8192	; 0x2000
    5fca:	f2ce 0204 	movt	r2, #57348	; 0xe004
    5fce:	6b12      	ldr	r2, [r2, #48]	; 0x30
    5fd0:	f022 0280 	bic.w	r2, r2, #128	; 0x80
    5fd4:	631a      	str	r2, [r3, #48]	; 0x30
    5fd6:	e031      	b.n	603c <MSS_UART_init+0x114>
    }
    else
    {
        this_uart->hw_reg = UART1;
    5fd8:	68fa      	ldr	r2, [r7, #12]
    5fda:	f240 0300 	movw	r3, #0
    5fde:	f2c4 0301 	movt	r3, #16385	; 0x4001
    5fe2:	6013      	str	r3, [r2, #0]
        this_uart->hw_reg_bit = UART1_BITBAND;
    5fe4:	68fa      	ldr	r2, [r7, #12]
    5fe6:	f240 0300 	movw	r3, #0
    5fea:	f2c4 2320 	movt	r3, #16928	; 0x4220
    5fee:	6053      	str	r3, [r2, #4]
        this_uart->irqn = UART1_IRQn;
    5ff0:	68fb      	ldr	r3, [r7, #12]
    5ff2:	f04f 020b 	mov.w	r2, #11
    5ff6:	811a      	strh	r2, [r3, #8]

        pclk_freq = g_FrequencyPCLK1;
    5ff8:	f240 0334 	movw	r3, #52	; 0x34
    5ffc:	f2c2 0300 	movt	r3, #8192	; 0x2000
    6000:	681b      	ldr	r3, [r3, #0]
    6002:	61bb      	str	r3, [r7, #24]

        /* Reset UART1 */
        SYSREG->SOFT_RST_CR |= SYSREG_UART1_SOFTRESET_MASK;
    6004:	f242 0300 	movw	r3, #8192	; 0x2000
    6008:	f2ce 0304 	movt	r3, #57348	; 0xe004
    600c:	f242 0200 	movw	r2, #8192	; 0x2000
    6010:	f2ce 0204 	movt	r2, #57348	; 0xe004
    6014:	6b12      	ldr	r2, [r2, #48]	; 0x30
    6016:	f442 7280 	orr.w	r2, r2, #256	; 0x100
    601a:	631a      	str	r2, [r3, #48]	; 0x30
        /* Clear any previously pended UART1 interrupt */
        NVIC_ClearPendingIRQ( UART1_IRQn );
    601c:	f04f 000b 	mov.w	r0, #11
    6020:	f7ff ff64 	bl	5eec <NVIC_ClearPendingIRQ>
        /* Take UART1 out of reset. */
        SYSREG->SOFT_RST_CR &= ~SYSREG_UART1_SOFTRESET_MASK;
    6024:	f242 0300 	movw	r3, #8192	; 0x2000
    6028:	f2ce 0304 	movt	r3, #57348	; 0xe004
    602c:	f242 0200 	movw	r2, #8192	; 0x2000
    6030:	f2ce 0204 	movt	r2, #57348	; 0xe004
    6034:	6b12      	ldr	r2, [r2, #48]	; 0x30
    6036:	f422 7280 	bic.w	r2, r2, #256	; 0x100
    603a:	631a      	str	r2, [r3, #48]	; 0x30
    }

    /* disable interrupts */
    this_uart->hw_reg->IER = 0U;
    603c:	68fb      	ldr	r3, [r7, #12]
    603e:	681b      	ldr	r3, [r3, #0]
    6040:	f04f 0200 	mov.w	r2, #0
    6044:	711a      	strb	r2, [r3, #4]
     * The baud value is computed using the following equation:
     *      baud_value_l = PCLK_Frequency / (baud_rate * 16)
     * The baud value is rounded up or down depending on what would be the remainder
     * of the divide by 16 operation.
     */
    if( 0U < baud_rate )
    6046:	68bb      	ldr	r3, [r7, #8]
    6048:	2b00      	cmp	r3, #0
    604a:	d021      	beq.n	6090 <MSS_UART_init+0x168>
    {
        baud_value_l = (uint32_t)(pclk_freq / baud_rate);
    604c:	69ba      	ldr	r2, [r7, #24]
    604e:	68bb      	ldr	r3, [r7, #8]
    6050:	fbb2 f3f3 	udiv	r3, r2, r3
    6054:	61fb      	str	r3, [r7, #28]
        if( baud_value_l & 0x00000008U )
    6056:	69fb      	ldr	r3, [r7, #28]
    6058:	f003 0308 	and.w	r3, r3, #8
    605c:	2b00      	cmp	r3, #0
    605e:	d006      	beq.n	606e <MSS_UART_init+0x146>
        {
            /* remainder above 0.5 */
            baud_value_l = (baud_value_l >> 4U) + 1U;        
    6060:	69fb      	ldr	r3, [r7, #28]
    6062:	ea4f 1313 	mov.w	r3, r3, lsr #4
    6066:	f103 0301 	add.w	r3, r3, #1
    606a:	61fb      	str	r3, [r7, #28]
    606c:	e003      	b.n	6076 <MSS_UART_init+0x14e>
        }
        else
        {
            /* remainder below 0.5 */
            baud_value_l = (baud_value_l >> 4U);
    606e:	69fb      	ldr	r3, [r7, #28]
    6070:	ea4f 1313 	mov.w	r3, r3, lsr #4
    6074:	61fb      	str	r3, [r7, #28]
        }
    
        /* Check if the baud rate is supported by the PCLK */
        ASSERT( baud_value_l <= UINT16_MAX);
    6076:	69fa      	ldr	r2, [r7, #28]
    6078:	f64f 73ff 	movw	r3, #65535	; 0xffff
    607c:	429a      	cmp	r2, r3
    607e:	d900      	bls.n	6082 <MSS_UART_init+0x15a>
    6080:	be00      	bkpt	0x0000
        if( baud_value_l <= (uint32_t)UINT16_MAX)
    6082:	69fa      	ldr	r2, [r7, #28]
    6084:	f64f 73ff 	movw	r3, #65535	; 0xffff
    6088:	429a      	cmp	r2, r3
    608a:	d801      	bhi.n	6090 <MSS_UART_init+0x168>
        {
            baud_value = (uint16_t)baud_value_l;
    608c:	69fb      	ldr	r3, [r7, #28]
    608e:	82fb      	strh	r3, [r7, #22]
        }
    }
    
    /* set divisor latch */
    this_uart->hw_reg_bit->LCR_DLAB = (uint32_t)1;
    6090:	68fb      	ldr	r3, [r7, #12]
    6092:	685b      	ldr	r3, [r3, #4]
    6094:	f04f 0201 	mov.w	r2, #1
    6098:	f8c3 219c 	str.w	r2, [r3, #412]	; 0x19c

    /* msb of baud value */
    this_uart->hw_reg->DMR = (uint8_t)(baud_value >> 8);
    609c:	68fb      	ldr	r3, [r7, #12]
    609e:	681b      	ldr	r3, [r3, #0]
    60a0:	8afa      	ldrh	r2, [r7, #22]
    60a2:	ea4f 2212 	mov.w	r2, r2, lsr #8
    60a6:	b292      	uxth	r2, r2
    60a8:	b2d2      	uxtb	r2, r2
    60aa:	711a      	strb	r2, [r3, #4]
    /* lsb of baud value */
    this_uart->hw_reg->DLR = (uint8_t)baud_value;
    60ac:	68fb      	ldr	r3, [r7, #12]
    60ae:	681b      	ldr	r3, [r3, #0]
    60b0:	8afa      	ldrh	r2, [r7, #22]
    60b2:	b2d2      	uxtb	r2, r2
    60b4:	701a      	strb	r2, [r3, #0]

    /* reset divisor latch */
    this_uart->hw_reg_bit->LCR_DLAB = (uint32_t)0;
    60b6:	68fb      	ldr	r3, [r7, #12]
    60b8:	685b      	ldr	r3, [r3, #4]
    60ba:	f04f 0200 	mov.w	r2, #0
    60be:	f8c3 219c 	str.w	r2, [r3, #412]	; 0x19c

    /* set the line control register (bit length, stop bits, parity) */
    this_uart->hw_reg->LCR = line_config;
    60c2:	68fb      	ldr	r3, [r7, #12]
    60c4:	681b      	ldr	r3, [r3, #0]
    60c6:	79fa      	ldrb	r2, [r7, #7]
    60c8:	731a      	strb	r2, [r3, #12]

    /* FIFO configuration */
    /* RX FIFO length = 1 byte, clear receiver FIFO, 
       clear transmitter FIFO, enable RXRDYN and TXRDYN pins. */
    this_uart->hw_reg->FCR = (uint8_t)MSS_UART_FIFO_SINGLE_BYTE | 
    60ca:	68fb      	ldr	r3, [r7, #12]
    60cc:	681b      	ldr	r3, [r3, #0]
    60ce:	f04f 020e 	mov.w	r2, #14
    60d2:	721a      	strb	r2, [r3, #8]
                              FCR_CLEAR_RX_FIFO_MASK | FCR_CLEAR_TX_FIFO_MASK | 
                              FCR_ENABLE_TXRDY_RXRDY_MASK;
    /* disable loopback */
    this_uart->hw_reg_bit->MCR_LOOP = (uint32_t)0;
    60d4:	68fb      	ldr	r3, [r7, #12]
    60d6:	685b      	ldr	r3, [r3, #4]
    60d8:	f04f 0200 	mov.w	r2, #0
    60dc:	f8c3 2210 	str.w	r2, [r3, #528]	; 0x210

    /* Instance setup */
    this_uart->tx_buff_size = TX_COMPLETE;
    60e0:	68fb      	ldr	r3, [r7, #12]
    60e2:	f04f 0200 	mov.w	r2, #0
    60e6:	611a      	str	r2, [r3, #16]
    this_uart->tx_buffer = (const uint8_t *)0;
    60e8:	68fb      	ldr	r3, [r7, #12]
    60ea:	f04f 0200 	mov.w	r2, #0
    60ee:	60da      	str	r2, [r3, #12]
    this_uart->tx_idx = 0U;
    60f0:	68fb      	ldr	r3, [r7, #12]
    60f2:	f04f 0200 	mov.w	r2, #0
    60f6:	615a      	str	r2, [r3, #20]

    /* Default handlers for MSS UART interrupts */
    this_uart->rx_handler       = NULL_HANDLER;
    60f8:	68fb      	ldr	r3, [r7, #12]
    60fa:	f04f 0200 	mov.w	r2, #0
    60fe:	61da      	str	r2, [r3, #28]
    this_uart->tx_handler       = default_tx_handler;
    6100:	68fa      	ldr	r2, [r7, #12]
    6102:	f246 530d 	movw	r3, #25869	; 0x650d
    6106:	f2c0 0300 	movt	r3, #0
    610a:	6213      	str	r3, [r2, #32]
    this_uart->linests_handler  = NULL_HANDLER;
    610c:	68fb      	ldr	r3, [r7, #12]
    610e:	f04f 0200 	mov.w	r2, #0
    6112:	619a      	str	r2, [r3, #24]
    this_uart->modemsts_handler = NULL_HANDLER;
    6114:	68fb      	ldr	r3, [r7, #12]
    6116:	f04f 0200 	mov.w	r2, #0
    611a:	625a      	str	r2, [r3, #36]	; 0x24

    /* Initialize the sticky status */
    this_uart->status = 0U;
    611c:	68fb      	ldr	r3, [r7, #12]
    611e:	f04f 0200 	mov.w	r2, #0
    6122:	729a      	strb	r2, [r3, #10]
}
    6124:	f107 0720 	add.w	r7, r7, #32
    6128:	46bd      	mov	sp, r7
    612a:	bd80      	pop	{r7, pc}

0000612c <MSS_UART_polled_tx>:
(
    mss_uart_instance_t * this_uart,
    const uint8_t * pbuff,
    uint32_t tx_size
)
{
    612c:	b480      	push	{r7}
    612e:	b089      	sub	sp, #36	; 0x24
    6130:	af00      	add	r7, sp, #0
    6132:	60f8      	str	r0, [r7, #12]
    6134:	60b9      	str	r1, [r7, #8]
    6136:	607a      	str	r2, [r7, #4]
    uint32_t char_idx = 0U;
    6138:	f04f 0300 	mov.w	r3, #0
    613c:	613b      	str	r3, [r7, #16]
    uint32_t size_sent;
    uint8_t status;

    ASSERT( (this_uart == &g_mss_uart0) || (this_uart == &g_mss_uart1) );
    613e:	68fa      	ldr	r2, [r7, #12]
    6140:	f643 63b4 	movw	r3, #16052	; 0x3eb4
    6144:	f2c2 0300 	movt	r3, #8192	; 0x2000
    6148:	429a      	cmp	r2, r3
    614a:	d007      	beq.n	615c <MSS_UART_polled_tx+0x30>
    614c:	68fa      	ldr	r2, [r7, #12]
    614e:	f643 638c 	movw	r3, #16012	; 0x3e8c
    6152:	f2c2 0300 	movt	r3, #8192	; 0x2000
    6156:	429a      	cmp	r2, r3
    6158:	d000      	beq.n	615c <MSS_UART_polled_tx+0x30>
    615a:	be00      	bkpt	0x0000
    ASSERT( pbuff != ( (uint8_t *)0 ) );
    615c:	68bb      	ldr	r3, [r7, #8]
    615e:	2b00      	cmp	r3, #0
    6160:	d100      	bne.n	6164 <MSS_UART_polled_tx+0x38>
    6162:	be00      	bkpt	0x0000
    ASSERT( tx_size > 0U );
    6164:	687b      	ldr	r3, [r7, #4]
    6166:	2b00      	cmp	r3, #0
    6168:	d100      	bne.n	616c <MSS_UART_polled_tx+0x40>
    616a:	be00      	bkpt	0x0000

    if( ( (this_uart == &g_mss_uart0) || (this_uart == &g_mss_uart1) ) &&
    616c:	68fa      	ldr	r2, [r7, #12]
    616e:	f643 63b4 	movw	r3, #16052	; 0x3eb4
    6172:	f2c2 0300 	movt	r3, #8192	; 0x2000
    6176:	429a      	cmp	r2, r3
    6178:	d006      	beq.n	6188 <MSS_UART_polled_tx+0x5c>
    617a:	68fa      	ldr	r2, [r7, #12]
    617c:	f643 638c 	movw	r3, #16012	; 0x3e8c
    6180:	f2c2 0300 	movt	r3, #8192	; 0x2000
    6184:	429a      	cmp	r2, r3
    6186:	d13d      	bne.n	6204 <MSS_UART_polled_tx+0xd8>
    6188:	68bb      	ldr	r3, [r7, #8]
    618a:	2b00      	cmp	r3, #0
    618c:	d03a      	beq.n	6204 <MSS_UART_polled_tx+0xd8>
    618e:	687b      	ldr	r3, [r7, #4]
    6190:	2b00      	cmp	r3, #0
    6192:	d037      	beq.n	6204 <MSS_UART_polled_tx+0xd8>
         /* Remain in this loop until the entire input buffer
          * has been transferred to the UART.
          */
        do {
            /* Read the Line Status Register and update the sticky record */
            status = this_uart->hw_reg->LSR;
    6194:	68fb      	ldr	r3, [r7, #12]
    6196:	681b      	ldr	r3, [r3, #0]
    6198:	7d1b      	ldrb	r3, [r3, #20]
    619a:	76fb      	strb	r3, [r7, #27]
            this_uart->status |= status;
    619c:	68fb      	ldr	r3, [r7, #12]
    619e:	7a9a      	ldrb	r2, [r3, #10]
    61a0:	7efb      	ldrb	r3, [r7, #27]
    61a2:	ea42 0303 	orr.w	r3, r2, r3
    61a6:	b2da      	uxtb	r2, r3
    61a8:	68fb      	ldr	r3, [r7, #12]
    61aa:	729a      	strb	r2, [r3, #10]

            /* Check if TX FIFO is empty. */
            if( status & MSS_UART_THRE )
    61ac:	7efb      	ldrb	r3, [r7, #27]
    61ae:	f003 0320 	and.w	r3, r3, #32
    61b2:	2b00      	cmp	r3, #0
    61b4:	d023      	beq.n	61fe <MSS_UART_polled_tx+0xd2>
            {
                uint32_t fill_size = TX_FIFO_SIZE;
    61b6:	f04f 0310 	mov.w	r3, #16
    61ba:	61fb      	str	r3, [r7, #28]

                /* Calculate the number of bytes to transmit. */
                if ( tx_size < TX_FIFO_SIZE )
    61bc:	687b      	ldr	r3, [r7, #4]
    61be:	2b0f      	cmp	r3, #15
    61c0:	d801      	bhi.n	61c6 <MSS_UART_polled_tx+0x9a>
                {
                    fill_size = tx_size;
    61c2:	687b      	ldr	r3, [r7, #4]
    61c4:	61fb      	str	r3, [r7, #28]
                }

                /* Fill the TX FIFO with the calculated the number of bytes. */
                for ( size_sent = 0U; size_sent < fill_size; ++size_sent )
    61c6:	f04f 0300 	mov.w	r3, #0
    61ca:	617b      	str	r3, [r7, #20]
    61cc:	e00e      	b.n	61ec <MSS_UART_polled_tx+0xc0>
                {
                    /* Send next character in the buffer. */
                    this_uart->hw_reg->THR = pbuff[char_idx++];
    61ce:	68fb      	ldr	r3, [r7, #12]
    61d0:	681b      	ldr	r3, [r3, #0]
    61d2:	68b9      	ldr	r1, [r7, #8]
    61d4:	693a      	ldr	r2, [r7, #16]
    61d6:	440a      	add	r2, r1
    61d8:	7812      	ldrb	r2, [r2, #0]
    61da:	701a      	strb	r2, [r3, #0]
    61dc:	693b      	ldr	r3, [r7, #16]
    61de:	f103 0301 	add.w	r3, r3, #1
    61e2:	613b      	str	r3, [r7, #16]
                {
                    fill_size = tx_size;
                }

                /* Fill the TX FIFO with the calculated the number of bytes. */
                for ( size_sent = 0U; size_sent < fill_size; ++size_sent )
    61e4:	697b      	ldr	r3, [r7, #20]
    61e6:	f103 0301 	add.w	r3, r3, #1
    61ea:	617b      	str	r3, [r7, #20]
    61ec:	697a      	ldr	r2, [r7, #20]
    61ee:	69fb      	ldr	r3, [r7, #28]
    61f0:	429a      	cmp	r2, r3
    61f2:	d3ec      	bcc.n	61ce <MSS_UART_polled_tx+0xa2>
                    /* Send next character in the buffer. */
                    this_uart->hw_reg->THR = pbuff[char_idx++];
                }

                /* Calculate the number of untransmitted bytes remaining. */
                tx_size -= size_sent;
    61f4:	687a      	ldr	r2, [r7, #4]
    61f6:	697b      	ldr	r3, [r7, #20]
    61f8:	ebc3 0302 	rsb	r3, r3, r2
    61fc:	607b      	str	r3, [r7, #4]
            }
        }while( tx_size );
    61fe:	687b      	ldr	r3, [r7, #4]
    6200:	2b00      	cmp	r3, #0
    6202:	d1c7      	bne.n	6194 <MSS_UART_polled_tx+0x68>
    }
}
    6204:	f107 0724 	add.w	r7, r7, #36	; 0x24
    6208:	46bd      	mov	sp, r7
    620a:	bc80      	pop	{r7}
    620c:	4770      	bx	lr
    620e:	bf00      	nop

00006210 <MSS_UART_get_rx>:
(
    mss_uart_instance_t * this_uart,
    uint8_t * rx_buff,
    size_t buff_size
)
{
    6210:	b480      	push	{r7}
    6212:	b087      	sub	sp, #28
    6214:	af00      	add	r7, sp, #0
    6216:	60f8      	str	r0, [r7, #12]
    6218:	60b9      	str	r1, [r7, #8]
    621a:	607a      	str	r2, [r7, #4]
    size_t rx_size = 0U;
    621c:	f04f 0300 	mov.w	r3, #0
    6220:	613b      	str	r3, [r7, #16]
    uint8_t status = 0U;
    6222:	f04f 0300 	mov.w	r3, #0
    6226:	75fb      	strb	r3, [r7, #23]

    ASSERT( (this_uart == &g_mss_uart0) || (this_uart == &g_mss_uart1) );
    6228:	68fa      	ldr	r2, [r7, #12]
    622a:	f643 63b4 	movw	r3, #16052	; 0x3eb4
    622e:	f2c2 0300 	movt	r3, #8192	; 0x2000
    6232:	429a      	cmp	r2, r3
    6234:	d007      	beq.n	6246 <MSS_UART_get_rx+0x36>
    6236:	68fa      	ldr	r2, [r7, #12]
    6238:	f643 638c 	movw	r3, #16012	; 0x3e8c
    623c:	f2c2 0300 	movt	r3, #8192	; 0x2000
    6240:	429a      	cmp	r2, r3
    6242:	d000      	beq.n	6246 <MSS_UART_get_rx+0x36>
    6244:	be00      	bkpt	0x0000
    ASSERT( rx_buff != ((uint8_t *)0) );
    6246:	68bb      	ldr	r3, [r7, #8]
    6248:	2b00      	cmp	r3, #0
    624a:	d100      	bne.n	624e <MSS_UART_get_rx+0x3e>
    624c:	be00      	bkpt	0x0000
    ASSERT( buff_size > 0U );
    624e:	687b      	ldr	r3, [r7, #4]
    6250:	2b00      	cmp	r3, #0
    6252:	d100      	bne.n	6256 <MSS_UART_get_rx+0x46>
    6254:	be00      	bkpt	0x0000

    if( ( (this_uart == &g_mss_uart0) || (this_uart == &g_mss_uart1) ) &&
    6256:	68fa      	ldr	r2, [r7, #12]
    6258:	f643 63b4 	movw	r3, #16052	; 0x3eb4
    625c:	f2c2 0300 	movt	r3, #8192	; 0x2000
    6260:	429a      	cmp	r2, r3
    6262:	d006      	beq.n	6272 <MSS_UART_get_rx+0x62>
    6264:	68fa      	ldr	r2, [r7, #12]
    6266:	f643 638c 	movw	r3, #16012	; 0x3e8c
    626a:	f2c2 0300 	movt	r3, #8192	; 0x2000
    626e:	429a      	cmp	r2, r3
    6270:	d134      	bne.n	62dc <MSS_UART_get_rx+0xcc>
    6272:	68bb      	ldr	r3, [r7, #8]
    6274:	2b00      	cmp	r3, #0
    6276:	d031      	beq.n	62dc <MSS_UART_get_rx+0xcc>
    6278:	687b      	ldr	r3, [r7, #4]
    627a:	2b00      	cmp	r3, #0
    627c:	d02e      	beq.n	62dc <MSS_UART_get_rx+0xcc>
          ( rx_buff != ((uint8_t *)0) ) && ( buff_size > 0U ) )
    {
        status = this_uart->hw_reg->LSR;
    627e:	68fb      	ldr	r3, [r7, #12]
    6280:	681b      	ldr	r3, [r3, #0]
    6282:	7d1b      	ldrb	r3, [r3, #20]
    6284:	75fb      	strb	r3, [r7, #23]
        this_uart->status |= status;
    6286:	68fb      	ldr	r3, [r7, #12]
    6288:	7a9a      	ldrb	r2, [r3, #10]
    628a:	7dfb      	ldrb	r3, [r7, #23]
    628c:	ea42 0303 	orr.w	r3, r2, r3
    6290:	b2da      	uxtb	r2, r3
    6292:	68fb      	ldr	r3, [r7, #12]
    6294:	729a      	strb	r2, [r3, #10]

        while (( (status & MSS_UART_DATA_READY) != 0U) &&
    6296:	e017      	b.n	62c8 <MSS_UART_get_rx+0xb8>
               ( rx_size < buff_size ) )
        {
            rx_buff[rx_size] = this_uart->hw_reg->RBR;
    6298:	68ba      	ldr	r2, [r7, #8]
    629a:	693b      	ldr	r3, [r7, #16]
    629c:	4413      	add	r3, r2
    629e:	68fa      	ldr	r2, [r7, #12]
    62a0:	6812      	ldr	r2, [r2, #0]
    62a2:	7812      	ldrb	r2, [r2, #0]
    62a4:	b2d2      	uxtb	r2, r2
    62a6:	701a      	strb	r2, [r3, #0]
            ++rx_size;
    62a8:	693b      	ldr	r3, [r7, #16]
    62aa:	f103 0301 	add.w	r3, r3, #1
    62ae:	613b      	str	r3, [r7, #16]
            status = this_uart->hw_reg->LSR;
    62b0:	68fb      	ldr	r3, [r7, #12]
    62b2:	681b      	ldr	r3, [r3, #0]
    62b4:	7d1b      	ldrb	r3, [r3, #20]
    62b6:	75fb      	strb	r3, [r7, #23]
            this_uart->status |= status;
    62b8:	68fb      	ldr	r3, [r7, #12]
    62ba:	7a9a      	ldrb	r2, [r3, #10]
    62bc:	7dfb      	ldrb	r3, [r7, #23]
    62be:	ea42 0303 	orr.w	r3, r2, r3
    62c2:	b2da      	uxtb	r2, r3
    62c4:	68fb      	ldr	r3, [r7, #12]
    62c6:	729a      	strb	r2, [r3, #10]
          ( rx_buff != ((uint8_t *)0) ) && ( buff_size > 0U ) )
    {
        status = this_uart->hw_reg->LSR;
        this_uart->status |= status;

        while (( (status & MSS_UART_DATA_READY) != 0U) &&
    62c8:	7dfb      	ldrb	r3, [r7, #23]
    62ca:	f003 0301 	and.w	r3, r3, #1
    62ce:	b2db      	uxtb	r3, r3
    62d0:	2b00      	cmp	r3, #0
    62d2:	d003      	beq.n	62dc <MSS_UART_get_rx+0xcc>
    62d4:	693a      	ldr	r2, [r7, #16]
    62d6:	687b      	ldr	r3, [r7, #4]
    62d8:	429a      	cmp	r2, r3
    62da:	d3dd      	bcc.n	6298 <MSS_UART_get_rx+0x88>
            ++rx_size;
            status = this_uart->hw_reg->LSR;
            this_uart->status |= status;
        }
    }
    return rx_size;
    62dc:	693b      	ldr	r3, [r7, #16]
}
    62de:	4618      	mov	r0, r3
    62e0:	f107 071c 	add.w	r7, r7, #28
    62e4:	46bd      	mov	sp, r7
    62e6:	bc80      	pop	{r7}
    62e8:	4770      	bx	lr
    62ea:	bf00      	nop

000062ec <MSS_UART_enable_irq>:
MSS_UART_enable_irq
(
    mss_uart_instance_t * this_uart,
    uint8_t irq_mask
)
{
    62ec:	b580      	push	{r7, lr}
    62ee:	b082      	sub	sp, #8
    62f0:	af00      	add	r7, sp, #0
    62f2:	6078      	str	r0, [r7, #4]
    62f4:	460b      	mov	r3, r1
    62f6:	70fb      	strb	r3, [r7, #3]
    ASSERT( (this_uart == &g_mss_uart0) || (this_uart == &g_mss_uart1) );
    62f8:	687a      	ldr	r2, [r7, #4]
    62fa:	f643 63b4 	movw	r3, #16052	; 0x3eb4
    62fe:	f2c2 0300 	movt	r3, #8192	; 0x2000
    6302:	429a      	cmp	r2, r3
    6304:	d007      	beq.n	6316 <MSS_UART_enable_irq+0x2a>
    6306:	687a      	ldr	r2, [r7, #4]
    6308:	f643 638c 	movw	r3, #16012	; 0x3e8c
    630c:	f2c2 0300 	movt	r3, #8192	; 0x2000
    6310:	429a      	cmp	r2, r3
    6312:	d000      	beq.n	6316 <MSS_UART_enable_irq+0x2a>
    6314:	be00      	bkpt	0x0000

    if( (this_uart == &g_mss_uart0) || (this_uart == &g_mss_uart1) )
    6316:	687a      	ldr	r2, [r7, #4]
    6318:	f643 63b4 	movw	r3, #16052	; 0x3eb4
    631c:	f2c2 0300 	movt	r3, #8192	; 0x2000
    6320:	429a      	cmp	r2, r3
    6322:	d006      	beq.n	6332 <MSS_UART_enable_irq+0x46>
    6324:	687a      	ldr	r2, [r7, #4]
    6326:	f643 638c 	movw	r3, #16012	; 0x3e8c
    632a:	f2c2 0300 	movt	r3, #8192	; 0x2000
    632e:	429a      	cmp	r2, r3
    6330:	d116      	bne.n	6360 <MSS_UART_enable_irq+0x74>
    {
        /* Clear any previously pended interrupts */
        NVIC_ClearPendingIRQ( this_uart->irqn );
    6332:	687b      	ldr	r3, [r7, #4]
    6334:	891b      	ldrh	r3, [r3, #8]
    6336:	b21b      	sxth	r3, r3
    6338:	4618      	mov	r0, r3
    633a:	f7ff fdd7 	bl	5eec <NVIC_ClearPendingIRQ>
         * bit 0 - Receive Data Available Interrupt
         * bit 1 - Transmitter Holding  Register Empty Interrupt
         * bit 2 - Receiver Line Status Interrupt
         * bit 3 - Modem Status Interrupt
         */
        this_uart->hw_reg->IER |= irq_mask;
    633e:	687b      	ldr	r3, [r7, #4]
    6340:	681b      	ldr	r3, [r3, #0]
    6342:	687a      	ldr	r2, [r7, #4]
    6344:	6812      	ldr	r2, [r2, #0]
    6346:	7912      	ldrb	r2, [r2, #4]
    6348:	b2d1      	uxtb	r1, r2
    634a:	78fa      	ldrb	r2, [r7, #3]
    634c:	ea41 0202 	orr.w	r2, r1, r2
    6350:	b2d2      	uxtb	r2, r2
    6352:	711a      	strb	r2, [r3, #4]

        /* Enable UART instance interrupt in Cortex-M3 NVIC. */
        NVIC_EnableIRQ( this_uart->irqn );
    6354:	687b      	ldr	r3, [r7, #4]
    6356:	891b      	ldrh	r3, [r3, #8]
    6358:	b21b      	sxth	r3, r3
    635a:	4618      	mov	r0, r3
    635c:	f7ff fd8c 	bl	5e78 <NVIC_EnableIRQ>
    }
}
    6360:	f107 0708 	add.w	r7, r7, #8
    6364:	46bd      	mov	sp, r7
    6366:	bd80      	pop	{r7, pc}

00006368 <MSS_UART_disable_irq>:
MSS_UART_disable_irq
(
    mss_uart_instance_t * this_uart,
    uint8_t irq_mask
)
{
    6368:	b580      	push	{r7, lr}
    636a:	b082      	sub	sp, #8
    636c:	af00      	add	r7, sp, #0
    636e:	6078      	str	r0, [r7, #4]
    6370:	460b      	mov	r3, r1
    6372:	70fb      	strb	r3, [r7, #3]
    ASSERT( (this_uart == &g_mss_uart0) || (this_uart == &g_mss_uart1) );
    6374:	687a      	ldr	r2, [r7, #4]
    6376:	f643 63b4 	movw	r3, #16052	; 0x3eb4
    637a:	f2c2 0300 	movt	r3, #8192	; 0x2000
    637e:	429a      	cmp	r2, r3
    6380:	d007      	beq.n	6392 <MSS_UART_disable_irq+0x2a>
    6382:	687a      	ldr	r2, [r7, #4]
    6384:	f643 638c 	movw	r3, #16012	; 0x3e8c
    6388:	f2c2 0300 	movt	r3, #8192	; 0x2000
    638c:	429a      	cmp	r2, r3
    638e:	d000      	beq.n	6392 <MSS_UART_disable_irq+0x2a>
    6390:	be00      	bkpt	0x0000

    if( (this_uart == &g_mss_uart0) || (this_uart == &g_mss_uart1) )
    6392:	687a      	ldr	r2, [r7, #4]
    6394:	f643 63b4 	movw	r3, #16052	; 0x3eb4
    6398:	f2c2 0300 	movt	r3, #8192	; 0x2000
    639c:	429a      	cmp	r2, r3
    639e:	d006      	beq.n	63ae <MSS_UART_disable_irq+0x46>
    63a0:	687a      	ldr	r2, [r7, #4]
    63a2:	f643 638c 	movw	r3, #16012	; 0x3e8c
    63a6:	f2c2 0300 	movt	r3, #8192	; 0x2000
    63aa:	429a      	cmp	r2, r3
    63ac:	d11c      	bne.n	63e8 <MSS_UART_disable_irq+0x80>
         * bit 0 - Receive Data Available Interrupt
         * bit 1 - Transmitter Holding  Register Empty Interrupt
         * bit 2 - Receiver Line Status Interrupt
         * bit 3 - Modem Status Interrupt
         */
        this_uart->hw_reg->IER &= ( (uint8_t)~irq_mask );
    63ae:	687b      	ldr	r3, [r7, #4]
    63b0:	681b      	ldr	r3, [r3, #0]
    63b2:	687a      	ldr	r2, [r7, #4]
    63b4:	6812      	ldr	r2, [r2, #0]
    63b6:	7912      	ldrb	r2, [r2, #4]
    63b8:	b2d1      	uxtb	r1, r2
    63ba:	78fa      	ldrb	r2, [r7, #3]
    63bc:	ea6f 0202 	mvn.w	r2, r2
    63c0:	b2d2      	uxtb	r2, r2
    63c2:	ea01 0202 	and.w	r2, r1, r2
    63c6:	b2d2      	uxtb	r2, r2
    63c8:	711a      	strb	r2, [r3, #4]

        /* Clear any previously pended interrupts */
        NVIC_ClearPendingIRQ( this_uart->irqn );
    63ca:	687b      	ldr	r3, [r7, #4]
    63cc:	891b      	ldrh	r3, [r3, #8]
    63ce:	b21b      	sxth	r3, r3
    63d0:	4618      	mov	r0, r3
    63d2:	f7ff fd8b 	bl	5eec <NVIC_ClearPendingIRQ>

        if( irq_mask == IIRF_MASK )
    63d6:	78fb      	ldrb	r3, [r7, #3]
    63d8:	2b0f      	cmp	r3, #15
    63da:	d105      	bne.n	63e8 <MSS_UART_disable_irq+0x80>
        {
            /* Disable UART instance interrupt in Cortex-M3 NVIC. */
            NVIC_DisableIRQ( this_uart->irqn );
    63dc:	687b      	ldr	r3, [r7, #4]
    63de:	891b      	ldrh	r3, [r3, #8]
    63e0:	b21b      	sxth	r3, r3
    63e2:	4618      	mov	r0, r3
    63e4:	f7ff fd64 	bl	5eb0 <NVIC_DisableIRQ>

        }
    }
}
    63e8:	f107 0708 	add.w	r7, r7, #8
    63ec:	46bd      	mov	sp, r7
    63ee:	bd80      	pop	{r7, pc}

000063f0 <MSS_UART_isr>:
static void
MSS_UART_isr
(
    mss_uart_instance_t * this_uart
)
{
    63f0:	b580      	push	{r7, lr}
    63f2:	b084      	sub	sp, #16
    63f4:	af00      	add	r7, sp, #0
    63f6:	6078      	str	r0, [r7, #4]
    uint8_t iirf;

    ASSERT( (this_uart == &g_mss_uart0) || (this_uart == &g_mss_uart1) );
    63f8:	687a      	ldr	r2, [r7, #4]
    63fa:	f643 63b4 	movw	r3, #16052	; 0x3eb4
    63fe:	f2c2 0300 	movt	r3, #8192	; 0x2000
    6402:	429a      	cmp	r2, r3
    6404:	d007      	beq.n	6416 <MSS_UART_isr+0x26>
    6406:	687a      	ldr	r2, [r7, #4]
    6408:	f643 638c 	movw	r3, #16012	; 0x3e8c
    640c:	f2c2 0300 	movt	r3, #8192	; 0x2000
    6410:	429a      	cmp	r2, r3
    6412:	d000      	beq.n	6416 <MSS_UART_isr+0x26>
    6414:	be00      	bkpt	0x0000

    if ( (this_uart == &g_mss_uart0) || (this_uart == &g_mss_uart1) )
    6416:	687a      	ldr	r2, [r7, #4]
    6418:	f643 63b4 	movw	r3, #16052	; 0x3eb4
    641c:	f2c2 0300 	movt	r3, #8192	; 0x2000
    6420:	429a      	cmp	r2, r3
    6422:	d006      	beq.n	6432 <MSS_UART_isr+0x42>
    6424:	687a      	ldr	r2, [r7, #4]
    6426:	f643 638c 	movw	r3, #16012	; 0x3e8c
    642a:	f2c2 0300 	movt	r3, #8192	; 0x2000
    642e:	429a      	cmp	r2, r3
    6430:	d167      	bne.n	6502 <MSS_UART_isr+0x112>
    {
        iirf = this_uart->hw_reg->IIR & IIRF_MASK;
    6432:	687b      	ldr	r3, [r7, #4]
    6434:	681b      	ldr	r3, [r3, #0]
    6436:	7a1b      	ldrb	r3, [r3, #8]
    6438:	b2db      	uxtb	r3, r3
    643a:	f003 030f 	and.w	r3, r3, #15
    643e:	73fb      	strb	r3, [r7, #15]

        switch ( iirf )
    6440:	7bfb      	ldrb	r3, [r7, #15]
    6442:	2b0c      	cmp	r3, #12
    6444:	d854      	bhi.n	64f0 <MSS_UART_isr+0x100>
    6446:	a201      	add	r2, pc, #4	; (adr r2, 644c <MSS_UART_isr+0x5c>)
    6448:	f852 f023 	ldr.w	pc, [r2, r3, lsl #2]
    644c:	00006481 	.word	0x00006481
    6450:	000064f1 	.word	0x000064f1
    6454:	0000649d 	.word	0x0000649d
    6458:	000064f1 	.word	0x000064f1
    645c:	000064b9 	.word	0x000064b9
    6460:	000064f1 	.word	0x000064f1
    6464:	000064d5 	.word	0x000064d5
    6468:	000064f1 	.word	0x000064f1
    646c:	000064f1 	.word	0x000064f1
    6470:	000064f1 	.word	0x000064f1
    6474:	000064f1 	.word	0x000064f1
    6478:	000064f1 	.word	0x000064f1
    647c:	000064b9 	.word	0x000064b9
        {
            case IIRF_MODEM_STATUS:  /* Modem status interrupt */
            {
                ASSERT( NULL_HANDLER != this_uart->modemsts_handler );
    6480:	687b      	ldr	r3, [r7, #4]
    6482:	6a5b      	ldr	r3, [r3, #36]	; 0x24
    6484:	2b00      	cmp	r3, #0
    6486:	d100      	bne.n	648a <MSS_UART_isr+0x9a>
    6488:	be00      	bkpt	0x0000
                if( NULL_HANDLER != this_uart->modemsts_handler )
    648a:	687b      	ldr	r3, [r7, #4]
    648c:	6a5b      	ldr	r3, [r3, #36]	; 0x24
    648e:	2b00      	cmp	r3, #0
    6490:	d030      	beq.n	64f4 <MSS_UART_isr+0x104>
                {
                   (*(this_uart->modemsts_handler))( this_uart );
    6492:	687b      	ldr	r3, [r7, #4]
    6494:	6a5b      	ldr	r3, [r3, #36]	; 0x24
    6496:	6878      	ldr	r0, [r7, #4]
    6498:	4798      	blx	r3
                }
            }
            break;
    649a:	e032      	b.n	6502 <MSS_UART_isr+0x112>

            case IIRF_THRE: /* Transmitter Holding Register Empty */
            {
                ASSERT( NULL_HANDLER != this_uart->tx_handler );
    649c:	687b      	ldr	r3, [r7, #4]
    649e:	6a1b      	ldr	r3, [r3, #32]
    64a0:	2b00      	cmp	r3, #0
    64a2:	d100      	bne.n	64a6 <MSS_UART_isr+0xb6>
    64a4:	be00      	bkpt	0x0000
                if ( NULL_HANDLER != this_uart->tx_handler )
    64a6:	687b      	ldr	r3, [r7, #4]
    64a8:	6a1b      	ldr	r3, [r3, #32]
    64aa:	2b00      	cmp	r3, #0
    64ac:	d024      	beq.n	64f8 <MSS_UART_isr+0x108>
                {
                    (*(this_uart->tx_handler))( this_uart );
    64ae:	687b      	ldr	r3, [r7, #4]
    64b0:	6a1b      	ldr	r3, [r3, #32]
    64b2:	6878      	ldr	r0, [r7, #4]
    64b4:	4798      	blx	r3
                }
            }
            break;
    64b6:	e024      	b.n	6502 <MSS_UART_isr+0x112>

            case IIRF_RX_DATA:      /* Received Data Available */
            case IIRF_DATA_TIMEOUT: /* Received Data Timed-out */
            {
                ASSERT( NULL_HANDLER != this_uart->rx_handler );
    64b8:	687b      	ldr	r3, [r7, #4]
    64ba:	69db      	ldr	r3, [r3, #28]
    64bc:	2b00      	cmp	r3, #0
    64be:	d100      	bne.n	64c2 <MSS_UART_isr+0xd2>
    64c0:	be00      	bkpt	0x0000
                if ( NULL_HANDLER != this_uart->rx_handler )
    64c2:	687b      	ldr	r3, [r7, #4]
    64c4:	69db      	ldr	r3, [r3, #28]
    64c6:	2b00      	cmp	r3, #0
    64c8:	d018      	beq.n	64fc <MSS_UART_isr+0x10c>
                {
                    (*(this_uart->rx_handler))( this_uart );
    64ca:	687b      	ldr	r3, [r7, #4]
    64cc:	69db      	ldr	r3, [r3, #28]
    64ce:	6878      	ldr	r0, [r7, #4]
    64d0:	4798      	blx	r3
                }
            }
            break;
    64d2:	e016      	b.n	6502 <MSS_UART_isr+0x112>

            case IIRF_RX_LINE_STATUS:  /* Line Status Interrupt */
            {
                ASSERT( NULL_HANDLER != this_uart->linests_handler );
    64d4:	687b      	ldr	r3, [r7, #4]
    64d6:	699b      	ldr	r3, [r3, #24]
    64d8:	2b00      	cmp	r3, #0
    64da:	d100      	bne.n	64de <MSS_UART_isr+0xee>
    64dc:	be00      	bkpt	0x0000
                if ( NULL_HANDLER != this_uart->linests_handler )
    64de:	687b      	ldr	r3, [r7, #4]
    64e0:	699b      	ldr	r3, [r3, #24]
    64e2:	2b00      	cmp	r3, #0
    64e4:	d00c      	beq.n	6500 <MSS_UART_isr+0x110>
                {
                   (*(this_uart->linests_handler))( this_uart );
    64e6:	687b      	ldr	r3, [r7, #4]
    64e8:	699b      	ldr	r3, [r3, #24]
    64ea:	6878      	ldr	r0, [r7, #4]
    64ec:	4798      	blx	r3
                }
            }
            break;
    64ee:	e008      	b.n	6502 <MSS_UART_isr+0x112>

            default:
            {
                ASSERT( INVALID_INTERRUPT );
    64f0:	be00      	bkpt	0x0000
    64f2:	e006      	b.n	6502 <MSS_UART_isr+0x112>
                if( NULL_HANDLER != this_uart->modemsts_handler )
                {
                   (*(this_uart->modemsts_handler))( this_uart );
                }
            }
            break;
    64f4:	bf00      	nop
    64f6:	e004      	b.n	6502 <MSS_UART_isr+0x112>
                if ( NULL_HANDLER != this_uart->tx_handler )
                {
                    (*(this_uart->tx_handler))( this_uart );
                }
            }
            break;
    64f8:	bf00      	nop
    64fa:	e002      	b.n	6502 <MSS_UART_isr+0x112>
                if ( NULL_HANDLER != this_uart->rx_handler )
                {
                    (*(this_uart->rx_handler))( this_uart );
                }
            }
            break;
    64fc:	bf00      	nop
    64fe:	e000      	b.n	6502 <MSS_UART_isr+0x112>
                if ( NULL_HANDLER != this_uart->linests_handler )
                {
                   (*(this_uart->linests_handler))( this_uart );
                }
            }
            break;
    6500:	bf00      	nop
                ASSERT( INVALID_INTERRUPT );
            }
            break;
        }
    }
}
    6502:	f107 0710 	add.w	r7, r7, #16
    6506:	46bd      	mov	sp, r7
    6508:	bd80      	pop	{r7, pc}
    650a:	bf00      	nop

0000650c <default_tx_handler>:
static void
default_tx_handler
(
    mss_uart_instance_t * this_uart
)
{
    650c:	b480      	push	{r7}
    650e:	b087      	sub	sp, #28
    6510:	af00      	add	r7, sp, #0
    6512:	6078      	str	r0, [r7, #4]
    uint8_t status;

    ASSERT( (this_uart == &g_mss_uart0) || (this_uart == &g_mss_uart1) );
    6514:	687a      	ldr	r2, [r7, #4]
    6516:	f643 63b4 	movw	r3, #16052	; 0x3eb4
    651a:	f2c2 0300 	movt	r3, #8192	; 0x2000
    651e:	429a      	cmp	r2, r3
    6520:	d007      	beq.n	6532 <default_tx_handler+0x26>
    6522:	687a      	ldr	r2, [r7, #4]
    6524:	f643 638c 	movw	r3, #16012	; 0x3e8c
    6528:	f2c2 0300 	movt	r3, #8192	; 0x2000
    652c:	429a      	cmp	r2, r3
    652e:	d000      	beq.n	6532 <default_tx_handler+0x26>
    6530:	be00      	bkpt	0x0000
    ASSERT( ( (uint8_t *)0 ) != this_uart->tx_buffer );
    6532:	687b      	ldr	r3, [r7, #4]
    6534:	68db      	ldr	r3, [r3, #12]
    6536:	2b00      	cmp	r3, #0
    6538:	d100      	bne.n	653c <default_tx_handler+0x30>
    653a:	be00      	bkpt	0x0000
    ASSERT( 0U < this_uart->tx_buff_size );
    653c:	687b      	ldr	r3, [r7, #4]
    653e:	691b      	ldr	r3, [r3, #16]
    6540:	2b00      	cmp	r3, #0
    6542:	d100      	bne.n	6546 <default_tx_handler+0x3a>
    6544:	be00      	bkpt	0x0000

    if( ( (this_uart == &g_mss_uart0) || (this_uart == &g_mss_uart1) ) &&
    6546:	687a      	ldr	r2, [r7, #4]
    6548:	f643 63b4 	movw	r3, #16052	; 0x3eb4
    654c:	f2c2 0300 	movt	r3, #8192	; 0x2000
    6550:	429a      	cmp	r2, r3
    6552:	d006      	beq.n	6562 <default_tx_handler+0x56>
    6554:	687a      	ldr	r2, [r7, #4]
    6556:	f643 638c 	movw	r3, #16012	; 0x3e8c
    655a:	f2c2 0300 	movt	r3, #8192	; 0x2000
    655e:	429a      	cmp	r2, r3
    6560:	d152      	bne.n	6608 <default_tx_handler+0xfc>
        ( ( (uint8_t *)0 ) != this_uart->tx_buffer ) &&
    6562:	687b      	ldr	r3, [r7, #4]
    6564:	68db      	ldr	r3, [r3, #12]

    ASSERT( (this_uart == &g_mss_uart0) || (this_uart == &g_mss_uart1) );
    ASSERT( ( (uint8_t *)0 ) != this_uart->tx_buffer );
    ASSERT( 0U < this_uart->tx_buff_size );

    if( ( (this_uart == &g_mss_uart0) || (this_uart == &g_mss_uart1) ) &&
    6566:	2b00      	cmp	r3, #0
    6568:	d04e      	beq.n	6608 <default_tx_handler+0xfc>
        ( ( (uint8_t *)0 ) != this_uart->tx_buffer ) &&
        ( 0U < this_uart->tx_buff_size ) )
    656a:	687b      	ldr	r3, [r7, #4]
    656c:	691b      	ldr	r3, [r3, #16]

    ASSERT( (this_uart == &g_mss_uart0) || (this_uart == &g_mss_uart1) );
    ASSERT( ( (uint8_t *)0 ) != this_uart->tx_buffer );
    ASSERT( 0U < this_uart->tx_buff_size );

    if( ( (this_uart == &g_mss_uart0) || (this_uart == &g_mss_uart1) ) &&
    656e:	2b00      	cmp	r3, #0
    6570:	d04a      	beq.n	6608 <default_tx_handler+0xfc>
        ( ( (uint8_t *)0 ) != this_uart->tx_buffer ) &&
        ( 0U < this_uart->tx_buff_size ) )
    {
        /* Read the Line Status Register and update the sticky record. */
        status = this_uart->hw_reg->LSR;
    6572:	687b      	ldr	r3, [r7, #4]
    6574:	681b      	ldr	r3, [r3, #0]
    6576:	7d1b      	ldrb	r3, [r3, #20]
    6578:	72fb      	strb	r3, [r7, #11]
        this_uart->status |= status;
    657a:	687b      	ldr	r3, [r7, #4]
    657c:	7a9a      	ldrb	r2, [r3, #10]
    657e:	7afb      	ldrb	r3, [r7, #11]
    6580:	ea42 0303 	orr.w	r3, r2, r3
    6584:	b2da      	uxtb	r2, r3
    6586:	687b      	ldr	r3, [r7, #4]
    6588:	729a      	strb	r2, [r3, #10]

        /*
         * This function should only be called as a result of a THRE interrupt.
         * Verify that this is true before proceeding to transmit data.
         */
        if ( status & MSS_UART_THRE )
    658a:	7afb      	ldrb	r3, [r7, #11]
    658c:	f003 0320 	and.w	r3, r3, #32
    6590:	2b00      	cmp	r3, #0
    6592:	d029      	beq.n	65e8 <default_tx_handler+0xdc>
        {
            uint32_t i;
            uint32_t fill_size = TX_FIFO_SIZE;
    6594:	f04f 0310 	mov.w	r3, #16
    6598:	613b      	str	r3, [r7, #16]
            uint32_t tx_remain = this_uart->tx_buff_size - this_uart->tx_idx;
    659a:	687b      	ldr	r3, [r7, #4]
    659c:	691a      	ldr	r2, [r3, #16]
    659e:	687b      	ldr	r3, [r7, #4]
    65a0:	695b      	ldr	r3, [r3, #20]
    65a2:	ebc3 0302 	rsb	r3, r3, r2
    65a6:	617b      	str	r3, [r7, #20]

            /* Calculate the number of bytes to transmit. */
            if ( tx_remain < TX_FIFO_SIZE )
    65a8:	697b      	ldr	r3, [r7, #20]
    65aa:	2b0f      	cmp	r3, #15
    65ac:	d801      	bhi.n	65b2 <default_tx_handler+0xa6>
            {
                fill_size = tx_remain;
    65ae:	697b      	ldr	r3, [r7, #20]
    65b0:	613b      	str	r3, [r7, #16]
            }

            /* Fill the TX FIFO with the calculated the number of bytes. */
            for ( i = 0U; i < fill_size; ++i )
    65b2:	f04f 0300 	mov.w	r3, #0
    65b6:	60fb      	str	r3, [r7, #12]
    65b8:	e012      	b.n	65e0 <default_tx_handler+0xd4>
            {
                /* Send next character in the buffer. */
                this_uart->hw_reg->THR = this_uart->tx_buffer[this_uart->tx_idx];
    65ba:	687b      	ldr	r3, [r7, #4]
    65bc:	681b      	ldr	r3, [r3, #0]
    65be:	687a      	ldr	r2, [r7, #4]
    65c0:	68d1      	ldr	r1, [r2, #12]
    65c2:	687a      	ldr	r2, [r7, #4]
    65c4:	6952      	ldr	r2, [r2, #20]
    65c6:	440a      	add	r2, r1
    65c8:	7812      	ldrb	r2, [r2, #0]
    65ca:	701a      	strb	r2, [r3, #0]
                ++this_uart->tx_idx;
    65cc:	687b      	ldr	r3, [r7, #4]
    65ce:	695b      	ldr	r3, [r3, #20]
    65d0:	f103 0201 	add.w	r2, r3, #1
    65d4:	687b      	ldr	r3, [r7, #4]
    65d6:	615a      	str	r2, [r3, #20]
            {
                fill_size = tx_remain;
            }

            /* Fill the TX FIFO with the calculated the number of bytes. */
            for ( i = 0U; i < fill_size; ++i )
    65d8:	68fb      	ldr	r3, [r7, #12]
    65da:	f103 0301 	add.w	r3, r3, #1
    65de:	60fb      	str	r3, [r7, #12]
    65e0:	68fa      	ldr	r2, [r7, #12]
    65e2:	693b      	ldr	r3, [r7, #16]
    65e4:	429a      	cmp	r2, r3
    65e6:	d3e8      	bcc.n	65ba <default_tx_handler+0xae>
                ++this_uart->tx_idx;
            }
        }

        /* Flag Tx as complete if all data has been pushed into the Tx FIFO. */
        if ( this_uart->tx_idx == this_uart->tx_buff_size )
    65e8:	687b      	ldr	r3, [r7, #4]
    65ea:	695a      	ldr	r2, [r3, #20]
    65ec:	687b      	ldr	r3, [r7, #4]
    65ee:	691b      	ldr	r3, [r3, #16]
    65f0:	429a      	cmp	r2, r3
    65f2:	d109      	bne.n	6608 <default_tx_handler+0xfc>
        {
            this_uart->tx_buff_size = TX_COMPLETE;
    65f4:	687b      	ldr	r3, [r7, #4]
    65f6:	f04f 0200 	mov.w	r2, #0
    65fa:	611a      	str	r2, [r3, #16]
            /* disables TX interrupt */
            this_uart->hw_reg_bit->IER_ETBEI = 0U;
    65fc:	687b      	ldr	r3, [r7, #4]
    65fe:	685b      	ldr	r3, [r3, #4]
    6600:	f04f 0200 	mov.w	r2, #0
    6604:	f8c3 2084 	str.w	r2, [r3, #132]	; 0x84
        }
    }
}
    6608:	f107 071c 	add.w	r7, r7, #28
    660c:	46bd      	mov	sp, r7
    660e:	bc80      	pop	{r7}
    6610:	4770      	bx	lr
    6612:	bf00      	nop

00006614 <MSS_UART_set_rx_handler>:
(
    mss_uart_instance_t *       this_uart,
    mss_uart_irq_handler_t      handler,
    mss_uart_rx_trig_level_t    trigger_level
)
{
    6614:	b580      	push	{r7, lr}
    6616:	b084      	sub	sp, #16
    6618:	af00      	add	r7, sp, #0
    661a:	60f8      	str	r0, [r7, #12]
    661c:	60b9      	str	r1, [r7, #8]
    661e:	4613      	mov	r3, r2
    6620:	71fb      	strb	r3, [r7, #7]
    ASSERT( (this_uart == &g_mss_uart0) || (this_uart == &g_mss_uart1) );
    6622:	68fa      	ldr	r2, [r7, #12]
    6624:	f643 63b4 	movw	r3, #16052	; 0x3eb4
    6628:	f2c2 0300 	movt	r3, #8192	; 0x2000
    662c:	429a      	cmp	r2, r3
    662e:	d007      	beq.n	6640 <MSS_UART_set_rx_handler+0x2c>
    6630:	68fa      	ldr	r2, [r7, #12]
    6632:	f643 638c 	movw	r3, #16012	; 0x3e8c
    6636:	f2c2 0300 	movt	r3, #8192	; 0x2000
    663a:	429a      	cmp	r2, r3
    663c:	d000      	beq.n	6640 <MSS_UART_set_rx_handler+0x2c>
    663e:	be00      	bkpt	0x0000
    ASSERT( handler != INVALID_IRQ_HANDLER );
    6640:	68bb      	ldr	r3, [r7, #8]
    6642:	2b00      	cmp	r3, #0
    6644:	d100      	bne.n	6648 <MSS_UART_set_rx_handler+0x34>
    6646:	be00      	bkpt	0x0000
    ASSERT( trigger_level < MSS_UART_FIFO_INVALID_TRIG_LEVEL );
    6648:	79fb      	ldrb	r3, [r7, #7]
    664a:	2bc0      	cmp	r3, #192	; 0xc0
    664c:	d900      	bls.n	6650 <MSS_UART_set_rx_handler+0x3c>
    664e:	be00      	bkpt	0x0000

    if( ( (this_uart == &g_mss_uart0) || (this_uart == &g_mss_uart1) ) &&
    6650:	68fa      	ldr	r2, [r7, #12]
    6652:	f643 63b4 	movw	r3, #16052	; 0x3eb4
    6656:	f2c2 0300 	movt	r3, #8192	; 0x2000
    665a:	429a      	cmp	r2, r3
    665c:	d006      	beq.n	666c <MSS_UART_set_rx_handler+0x58>
    665e:	68fa      	ldr	r2, [r7, #12]
    6660:	f643 638c 	movw	r3, #16012	; 0x3e8c
    6664:	f2c2 0300 	movt	r3, #8192	; 0x2000
    6668:	429a      	cmp	r2, r3
    666a:	d123      	bne.n	66b4 <MSS_UART_set_rx_handler+0xa0>
    666c:	68bb      	ldr	r3, [r7, #8]
    666e:	2b00      	cmp	r3, #0
    6670:	d020      	beq.n	66b4 <MSS_UART_set_rx_handler+0xa0>
    6672:	79fb      	ldrb	r3, [r7, #7]
    6674:	2bc0      	cmp	r3, #192	; 0xc0
    6676:	d81d      	bhi.n	66b4 <MSS_UART_set_rx_handler+0xa0>
        ( handler != INVALID_IRQ_HANDLER) &&
        ( trigger_level < MSS_UART_FIFO_INVALID_TRIG_LEVEL) )
    {
        this_uart->rx_handler = handler;
    6678:	68fb      	ldr	r3, [r7, #12]
    667a:	68ba      	ldr	r2, [r7, #8]
    667c:	61da      	str	r2, [r3, #28]

        /* Set the receive interrupt trigger level. */
        /* Clear RX FIFO; Enable TXRDY and RXRDY for PDMA */
        this_uart->hw_reg->FCR = (uint8_t)(FCR_TRIG_LEVEL_MASK & (uint8_t)trigger_level) |
    667e:	68fb      	ldr	r3, [r7, #12]
    6680:	681a      	ldr	r2, [r3, #0]
    6682:	79fb      	ldrb	r3, [r7, #7]
    6684:	f003 03c0 	and.w	r3, r3, #192	; 0xc0
    6688:	f043 030a 	orr.w	r3, r3, #10
    668c:	b2db      	uxtb	r3, r3
    668e:	7213      	strb	r3, [r2, #8]
                              FCR_CLEAR_RX_FIFO_MASK | FCR_ENABLE_TXRDY_RXRDY_MASK;

        /* Clear any previously pended interrupts */
        NVIC_ClearPendingIRQ( this_uart->irqn );
    6690:	68fb      	ldr	r3, [r7, #12]
    6692:	891b      	ldrh	r3, [r3, #8]
    6694:	b21b      	sxth	r3, r3
    6696:	4618      	mov	r0, r3
    6698:	f7ff fc28 	bl	5eec <NVIC_ClearPendingIRQ>

        /* Enable receive interrupt. */
        this_uart->hw_reg_bit->IER_ERBFI = 1U;
    669c:	68fb      	ldr	r3, [r7, #12]
    669e:	685b      	ldr	r3, [r3, #4]
    66a0:	f04f 0201 	mov.w	r2, #1
    66a4:	f8c3 2080 	str.w	r2, [r3, #128]	; 0x80

        /* Enable UART instance interrupt in Cortex-M3 NVIC. */
        NVIC_EnableIRQ( this_uart->irqn );
    66a8:	68fb      	ldr	r3, [r7, #12]
    66aa:	891b      	ldrh	r3, [r3, #8]
    66ac:	b21b      	sxth	r3, r3
    66ae:	4618      	mov	r0, r3
    66b0:	f7ff fbe2 	bl	5e78 <NVIC_EnableIRQ>
    }
}
    66b4:	f107 0710 	add.w	r7, r7, #16
    66b8:	46bd      	mov	sp, r7
    66ba:	bd80      	pop	{r7, pc}

000066bc <UART0_IRQHandler>:
#if defined(__GNUC__)
__attribute__((__interrupt__)) void UART0_IRQHandler( void )
#else
void UART0_IRQHandler( void )
#endif
{
    66bc:	4668      	mov	r0, sp
    66be:	f020 0107 	bic.w	r1, r0, #7
    66c2:	468d      	mov	sp, r1
    66c4:	b589      	push	{r0, r3, r7, lr}
    66c6:	af00      	add	r7, sp, #0
    MSS_UART_isr( &g_mss_uart0 );
    66c8:	f643 60b4 	movw	r0, #16052	; 0x3eb4
    66cc:	f2c2 0000 	movt	r0, #8192	; 0x2000
    66d0:	f7ff fe8e 	bl	63f0 <MSS_UART_isr>
    NVIC_ClearPendingIRQ( UART0_IRQn );
    66d4:	f04f 000a 	mov.w	r0, #10
    66d8:	f7ff fc08 	bl	5eec <NVIC_ClearPendingIRQ>
}
    66dc:	46bd      	mov	sp, r7
    66de:	e8bd 4089 	ldmia.w	sp!, {r0, r3, r7, lr}
    66e2:	4685      	mov	sp, r0
    66e4:	4770      	bx	lr
    66e6:	bf00      	nop

000066e8 <UART1_IRQHandler>:
#if defined(__GNUC__)
__attribute__((__interrupt__)) void UART1_IRQHandler( void )
#else
void UART1_IRQHandler( void )
#endif
{
    66e8:	4668      	mov	r0, sp
    66ea:	f020 0107 	bic.w	r1, r0, #7
    66ee:	468d      	mov	sp, r1
    66f0:	b589      	push	{r0, r3, r7, lr}
    66f2:	af00      	add	r7, sp, #0
    MSS_UART_isr( &g_mss_uart1 );
    66f4:	f643 608c 	movw	r0, #16012	; 0x3e8c
    66f8:	f2c2 0000 	movt	r0, #8192	; 0x2000
    66fc:	f7ff fe78 	bl	63f0 <MSS_UART_isr>
    NVIC_ClearPendingIRQ( UART1_IRQn );
    6700:	f04f 000b 	mov.w	r0, #11
    6704:	f7ff fbf2 	bl	5eec <NVIC_ClearPendingIRQ>
}
    6708:	46bd      	mov	sp, r7
    670a:	e8bd 4089 	ldmia.w	sp!, {r0, r3, r7, lr}
    670e:	4685      	mov	sp, r0
    6710:	4770      	bx	lr
    6712:	bf00      	nop

00006714 <SystemInit>:

/***************************************************************************//**
 * See system_a2fxxxm3f.h for details.
 */
void SystemInit(void)
{
    6714:	b480      	push	{r7}
    6716:	af00      	add	r7, sp, #0
    /*
     * Do not make use of global variables or make any asumptions regarding
     * memory content if modifying this function. The memory content has not been
     * initialised by the time this function is called by the start-up code.
     */
}
    6718:	46bd      	mov	sp, r7
    671a:	bc80      	pop	{r7}
    671c:	4770      	bx	lr
    671e:	bf00      	nop

00006720 <SystemCoreClockUpdate>:

/***************************************************************************//**
 *
 */
void SystemCoreClockUpdate (void)
{
    6720:	b580      	push	{r7, lr}
    6722:	b08a      	sub	sp, #40	; 0x28
    6724:	af00      	add	r7, sp, #0
    uint32_t PclkDiv0;
    uint32_t PclkDiv1;
    uint32_t AceDiv;
    uint32_t FabDiv;

    const uint32_t pclk_div_lut[4] = { 1uL, 2uL, 4uL, 1uL };
    6726:	f247 5358 	movw	r3, #30040	; 0x7558
    672a:	f2c0 0300 	movt	r3, #0
    672e:	46bc      	mov	ip, r7
    6730:	cb0f      	ldmia	r3!, {r0, r1, r2, r3}
    6732:	e88c 000f 	stmia.w	ip, {r0, r1, r2, r3}

    /* Read PCLK dividers from system registers. Multiply the value read from
     * system register by two to get actual divider value. */
    PclkDiv0 = pclk_div_lut[((SYSREG->MSS_CLK_CR >> PCLK0_DIV_SHIFT) & PCLK_DIV_MASK)];
    6736:	f242 0300 	movw	r3, #8192	; 0x2000
    673a:	f2ce 0304 	movt	r3, #57348	; 0xe004
    673e:	6c9b      	ldr	r3, [r3, #72]	; 0x48
    6740:	ea4f 0393 	mov.w	r3, r3, lsr #2
    6744:	f003 0303 	and.w	r3, r3, #3
    6748:	ea4f 0383 	mov.w	r3, r3, lsl #2
    674c:	f107 0228 	add.w	r2, r7, #40	; 0x28
    6750:	4413      	add	r3, r2
    6752:	f853 3c28 	ldr.w	r3, [r3, #-40]
    6756:	613b      	str	r3, [r7, #16]
    PclkDiv1 = pclk_div_lut[((SYSREG->MSS_CLK_CR >> PCLK1_DIV_SHIFT) & PCLK_DIV_MASK)];
    6758:	f242 0300 	movw	r3, #8192	; 0x2000
    675c:	f2ce 0304 	movt	r3, #57348	; 0xe004
    6760:	6c9b      	ldr	r3, [r3, #72]	; 0x48
    6762:	ea4f 1313 	mov.w	r3, r3, lsr #4
    6766:	f003 0303 	and.w	r3, r3, #3
    676a:	ea4f 0383 	mov.w	r3, r3, lsl #2
    676e:	f107 0228 	add.w	r2, r7, #40	; 0x28
    6772:	4413      	add	r3, r2
    6774:	f853 3c28 	ldr.w	r3, [r3, #-40]
    6778:	617b      	str	r3, [r7, #20]
    AceDiv = pclk_div_lut[((SYSREG->MSS_CLK_CR >> ACE_DIV_SHIFT) & PCLK_DIV_MASK)];
    677a:	f242 0300 	movw	r3, #8192	; 0x2000
    677e:	f2ce 0304 	movt	r3, #57348	; 0xe004
    6782:	6c9b      	ldr	r3, [r3, #72]	; 0x48
    6784:	ea4f 1393 	mov.w	r3, r3, lsr #6
    6788:	f003 0303 	and.w	r3, r3, #3
    678c:	ea4f 0383 	mov.w	r3, r3, lsl #2
    6790:	f107 0228 	add.w	r2, r7, #40	; 0x28
    6794:	4413      	add	r3, r2
    6796:	f853 3c28 	ldr.w	r3, [r3, #-40]
    679a:	61bb      	str	r3, [r7, #24]
    {
        /* Compute the FPGA fabric frequency divider. */
        uint32_t obdiv;
        uint32_t obdivhalf;
        
        obdiv = (SYSREG->MSS_CCC_DIV_CR >> OBDIV_SHIFT) & OBDIV_MASK;
    679c:	f242 0300 	movw	r3, #8192	; 0x2000
    67a0:	f2ce 0304 	movt	r3, #57348	; 0xe004
    67a4:	6cdb      	ldr	r3, [r3, #76]	; 0x4c
    67a6:	ea4f 2313 	mov.w	r3, r3, lsr #8
    67aa:	f003 031f 	and.w	r3, r3, #31
    67ae:	623b      	str	r3, [r7, #32]
        obdivhalf = (SYSREG->MSS_CCC_DIV_CR >> OBDIVHALF_SHIFT) & OBDIVHALF_MASK;
    67b0:	f242 0300 	movw	r3, #8192	; 0x2000
    67b4:	f2ce 0304 	movt	r3, #57348	; 0xe004
    67b8:	6cdb      	ldr	r3, [r3, #76]	; 0x4c
    67ba:	ea4f 3353 	mov.w	r3, r3, lsr #13
    67be:	f003 0301 	and.w	r3, r3, #1
    67c2:	627b      	str	r3, [r7, #36]	; 0x24
        FabDiv = obdiv + 1uL;
    67c4:	6a3b      	ldr	r3, [r7, #32]
    67c6:	f103 0301 	add.w	r3, r3, #1
    67ca:	61fb      	str	r3, [r7, #28]
        if ( obdivhalf != 0uL )
    67cc:	6a7b      	ldr	r3, [r7, #36]	; 0x24
    67ce:	2b00      	cmp	r3, #0
    67d0:	d003      	beq.n	67da <SystemCoreClockUpdate+0xba>
        {
            FabDiv = FabDiv * 2uL;
    67d2:	69fb      	ldr	r3, [r7, #28]
    67d4:	ea4f 0343 	mov.w	r3, r3, lsl #1
    67d8:	61fb      	str	r3, [r7, #28]
    }
    
    /* Retrieve FCLK from eNVM spare pages if Actel system boot programmed as part of the system. */
    
    /* Read system clock from eNVM spare pages. */
    SystemCoreClock = GetSystemClock();
    67da:	f000 f849 	bl	6870 <GetSystemClock>
    67de:	4602      	mov	r2, r0
    67e0:	f240 032c 	movw	r3, #44	; 0x2c
    67e4:	f2c2 0300 	movt	r3, #8192	; 0x2000
    67e8:	601a      	str	r2, [r3, #0]
    g_FrequencyPCLK0 = SystemCoreClock / PclkDiv0;
    67ea:	f240 032c 	movw	r3, #44	; 0x2c
    67ee:	f2c2 0300 	movt	r3, #8192	; 0x2000
    67f2:	681a      	ldr	r2, [r3, #0]
    67f4:	693b      	ldr	r3, [r7, #16]
    67f6:	fbb2 f2f3 	udiv	r2, r2, r3
    67fa:	f240 0330 	movw	r3, #48	; 0x30
    67fe:	f2c2 0300 	movt	r3, #8192	; 0x2000
    6802:	601a      	str	r2, [r3, #0]
    g_FrequencyPCLK1 = SystemCoreClock / PclkDiv1;
    6804:	f240 032c 	movw	r3, #44	; 0x2c
    6808:	f2c2 0300 	movt	r3, #8192	; 0x2000
    680c:	681a      	ldr	r2, [r3, #0]
    680e:	697b      	ldr	r3, [r7, #20]
    6810:	fbb2 f2f3 	udiv	r2, r2, r3
    6814:	f240 0334 	movw	r3, #52	; 0x34
    6818:	f2c2 0300 	movt	r3, #8192	; 0x2000
    681c:	601a      	str	r2, [r3, #0]
    g_FrequencyACE = SystemCoreClock / AceDiv;
    681e:	f240 032c 	movw	r3, #44	; 0x2c
    6822:	f2c2 0300 	movt	r3, #8192	; 0x2000
    6826:	681a      	ldr	r2, [r3, #0]
    6828:	69bb      	ldr	r3, [r7, #24]
    682a:	fbb2 f2f3 	udiv	r2, r2, r3
    682e:	f240 0338 	movw	r3, #56	; 0x38
    6832:	f2c2 0300 	movt	r3, #8192	; 0x2000
    6836:	601a      	str	r2, [r3, #0]
    g_FrequencyFPGA = SystemCoreClock / FabDiv;
    6838:	f240 032c 	movw	r3, #44	; 0x2c
    683c:	f2c2 0300 	movt	r3, #8192	; 0x2000
    6840:	681a      	ldr	r2, [r3, #0]
    6842:	69fb      	ldr	r3, [r7, #28]
    6844:	fbb2 f2f3 	udiv	r2, r2, r3
    6848:	f240 033c 	movw	r3, #60	; 0x3c
    684c:	f2c2 0300 	movt	r3, #8192	; 0x2000
    6850:	601a      	str	r2, [r3, #0]
    
    /* Keep SystemFrequency as well as SystemCoreClock for legacy reasons. */
    SystemFrequency = SystemCoreClock;
    6852:	f240 032c 	movw	r3, #44	; 0x2c
    6856:	f2c2 0300 	movt	r3, #8192	; 0x2000
    685a:	681a      	ldr	r2, [r3, #0]
    685c:	f240 0328 	movw	r3, #40	; 0x28
    6860:	f2c2 0300 	movt	r3, #8192	; 0x2000
    6864:	601a      	str	r2, [r3, #0]
}
    6866:	f107 0728 	add.w	r7, r7, #40	; 0x28
    686a:	46bd      	mov	sp, r7
    686c:	bd80      	pop	{r7, pc}
    686e:	bf00      	nop

00006870 <GetSystemClock>:
 * retrieved from eNVM spare pages.
 * The FCLK frequency value selected in the MSS Configurator software tool is
 * stored in eNVM spare pages as part of the Actel system boot configuration data.
 */
uint32_t GetSystemClock( void )
{
    6870:	b480      	push	{r7}
    6872:	b08b      	sub	sp, #44	; 0x2c
    6874:	af00      	add	r7, sp, #0
    uint32_t fclk = 0uL;
    6876:	f04f 0300 	mov.w	r3, #0
    687a:	607b      	str	r3, [r7, #4]
    
    uint32_t * p_sysboot_key = SYSBOOT_KEY_ADDR;
    687c:	f640 031c 	movw	r3, #2076	; 0x81c
    6880:	f2c6 0308 	movt	r3, #24584	; 0x6008
    6884:	60bb      	str	r3, [r7, #8]
    uint32_t * p_idcode = IDCODE_LOCATION;
    6886:	f240 2330 	movw	r3, #560	; 0x230
    688a:	f2c6 0308 	movt	r3, #24584	; 0x6008
    688e:	60fb      	str	r3, [r7, #12]
    uint32_t idcode;
	
    idcode = *p_idcode & ~IDCODE_DEV_REV_MASK;
    6890:	68fb      	ldr	r3, [r7, #12]
    6892:	681b      	ldr	r3, [r3, #0]
    6894:	f023 4370 	bic.w	r3, r3, #4026531840	; 0xf0000000
    6898:	613b      	str	r3, [r7, #16]
	
    if ( A2F060IFX_ID == idcode )
    689a:	693a      	ldr	r2, [r7, #16]
    689c:	f241 13cf 	movw	r3, #4559	; 0x11cf
    68a0:	f2c0 53a1 	movt	r3, #1441	; 0x5a1
    68a4:	429a      	cmp	r2, r3
    68a6:	d108      	bne.n	68ba <GetSystemClock+0x4a>
    {
        uint32_t *p_fclk = SYSBOOT_A2F060_FCLK_ADDR;
    68a8:	f64e 732c 	movw	r3, #61228	; 0xef2c
    68ac:	f2c6 0301 	movt	r3, #24577	; 0x6001
    68b0:	617b      	str	r3, [r7, #20]
        fclk = *p_fclk;
    68b2:	697b      	ldr	r3, [r7, #20]
    68b4:	681b      	ldr	r3, [r3, #0]
    68b6:	607b      	str	r3, [r7, #4]
    68b8:	e03d      	b.n	6936 <GetSystemClock+0xc6>
    }
    else if ( SYSBOOT_KEY_VALUE == *p_sysboot_key )
    68ba:	68bb      	ldr	r3, [r7, #8]
    68bc:	681a      	ldr	r2, [r3, #0]
    68be:	f244 3341 	movw	r3, #17217	; 0x4341
    68c2:	f6c4 4354 	movt	r3, #19540	; 0x4c54
    68c6:	429a      	cmp	r2, r3
    68c8:	d135      	bne.n	6936 <GetSystemClock+0xc6>
    {
        /* Actel system boot programmed, check if it has the FCLK value stored. */
        uint32_t *p_sysboot_version = SYSBOOT_VERSION_ADDR;
    68ca:	f640 0340 	movw	r3, #2112	; 0x840
    68ce:	f2c6 0308 	movt	r3, #24584	; 0x6008
    68d2:	61bb      	str	r3, [r7, #24]
        uint32_t sysboot_version = *p_sysboot_version;
    68d4:	69bb      	ldr	r3, [r7, #24]
    68d6:	681b      	ldr	r3, [r3, #0]
    68d8:	61fb      	str	r3, [r7, #28]
        
        sysboot_version &= SYSBOOT_VERSION_MASK;
    68da:	69fb      	ldr	r3, [r7, #28]
    68dc:	f023 437f 	bic.w	r3, r3, #4278190080	; 0xff000000
    68e0:	61fb      	str	r3, [r7, #28]
        
        if ( sysboot_version >= MIN_SYSBOOT_VERSION )
    68e2:	69fa      	ldr	r2, [r7, #28]
    68e4:	f240 3300 	movw	r3, #768	; 0x300
    68e8:	f2c0 0301 	movt	r3, #1
    68ec:	429a      	cmp	r2, r3
    68ee:	d922      	bls.n	6936 <GetSystemClock+0xc6>
        {
            /* Handle change of eNVM location of FCLK between 1.3.x and 2.x.x versions of the system boot. */
            if ( sysboot_version < SYSBOOT_VERSION_2_X )
    68f0:	69fa      	ldr	r2, [r7, #28]
    68f2:	f64f 73ff 	movw	r3, #65535	; 0xffff
    68f6:	f2c0 0301 	movt	r3, #1
    68fa:	429a      	cmp	r2, r3
    68fc:	d808      	bhi.n	6910 <GetSystemClock+0xa0>
            {
                /* Read FCLK value from MSS configurator generated configuration
                 * data stored in eNVM spare pages as part of system boot version 1.3.x
                 * configuration tables. */
                uint32_t *p_fclk = SYSBOOT_1_3_FCLK_ADDR;
    68fe:	f241 632c 	movw	r3, #5676	; 0x162c
    6902:	f2c6 0308 	movt	r3, #24584	; 0x6008
    6906:	623b      	str	r3, [r7, #32]
                fclk = *p_fclk;
    6908:	6a3b      	ldr	r3, [r7, #32]
    690a:	681b      	ldr	r3, [r3, #0]
    690c:	607b      	str	r3, [r7, #4]
    690e:	e012      	b.n	6936 <GetSystemClock+0xc6>
            }
            else if ( sysboot_version < MAX_SYSBOOT_VERSION )
    6910:	69fa      	ldr	r2, [r7, #28]
    6912:	f64f 73ff 	movw	r3, #65535	; 0xffff
    6916:	f2c0 0302 	movt	r3, #2
    691a:	429a      	cmp	r2, r3
    691c:	d808      	bhi.n	6930 <GetSystemClock+0xc0>
            {
                /* Read FCLK value from MSS configurator generated configuration
                 * data stored in eNVM spare pages as part of system boot version 2.x.x
                 * configuration tables. */
                uint32_t *p_fclk = SYSBOOT_2_x_FCLK_ADDR;
    691e:	f641 63ac 	movw	r3, #7852	; 0x1eac
    6922:	f2c6 0308 	movt	r3, #24584	; 0x6008
    6926:	627b      	str	r3, [r7, #36]	; 0x24
                fclk = *p_fclk;
    6928:	6a7b      	ldr	r3, [r7, #36]	; 0x24
    692a:	681b      	ldr	r3, [r3, #0]
    692c:	607b      	str	r3, [r7, #4]
    692e:	e002      	b.n	6936 <GetSystemClock+0xc6>
            }
            else
            {
                fclk = 0uL;
    6930:	f04f 0300 	mov.w	r3, #0
    6934:	607b      	str	r3, [r7, #4]
            }
        }
    }
    
    if ( 0uL == fclk )
    6936:	687b      	ldr	r3, [r7, #4]
    6938:	2b00      	cmp	r3, #0
    693a:	d105      	bne.n	6948 <GetSystemClock+0xd8>
        /* 
         * Could not retrieve FCLK from system boot configuration data. Fall back
         * to using SMARTFUSION_FCLK_FREQ which must then be defined as part of
         * project settings.
         */
        ASSERT( SMARTFUSION_FCLK_FREQ_DEFINED );
    693c:	be00      	bkpt	0x0000
        fclk = SMARTFUSION_FCLK_FREQ;
    693e:	f647 0340 	movw	r3, #30784	; 0x7840
    6942:	f2c0 137d 	movt	r3, #381	; 0x17d
    6946:	607b      	str	r3, [r7, #4]
    }
    
    return fclk;
    6948:	687b      	ldr	r3, [r7, #4]
}
    694a:	4618      	mov	r0, r3
    694c:	f107 072c 	add.w	r7, r7, #44	; 0x2c
    6950:	46bd      	mov	sp, r7
    6952:	bc80      	pop	{r7}
    6954:	4770      	bx	lr
    6956:	bf00      	nop

00006958 <__aeabi_drsub>:
    6958:	f081 4100 	eor.w	r1, r1, #2147483648	; 0x80000000
    695c:	e002      	b.n	6964 <__adddf3>
    695e:	bf00      	nop

00006960 <__aeabi_dsub>:
    6960:	f083 4300 	eor.w	r3, r3, #2147483648	; 0x80000000

00006964 <__adddf3>:
    6964:	b530      	push	{r4, r5, lr}
    6966:	ea4f 0441 	mov.w	r4, r1, lsl #1
    696a:	ea4f 0543 	mov.w	r5, r3, lsl #1
    696e:	ea94 0f05 	teq	r4, r5
    6972:	bf08      	it	eq
    6974:	ea90 0f02 	teqeq	r0, r2
    6978:	bf1f      	itttt	ne
    697a:	ea54 0c00 	orrsne.w	ip, r4, r0
    697e:	ea55 0c02 	orrsne.w	ip, r5, r2
    6982:	ea7f 5c64 	mvnsne.w	ip, r4, asr #21
    6986:	ea7f 5c65 	mvnsne.w	ip, r5, asr #21
    698a:	f000 80e2 	beq.w	6b52 <__adddf3+0x1ee>
    698e:	ea4f 5454 	mov.w	r4, r4, lsr #21
    6992:	ebd4 5555 	rsbs	r5, r4, r5, lsr #21
    6996:	bfb8      	it	lt
    6998:	426d      	neglt	r5, r5
    699a:	dd0c      	ble.n	69b6 <__adddf3+0x52>
    699c:	442c      	add	r4, r5
    699e:	ea80 0202 	eor.w	r2, r0, r2
    69a2:	ea81 0303 	eor.w	r3, r1, r3
    69a6:	ea82 0000 	eor.w	r0, r2, r0
    69aa:	ea83 0101 	eor.w	r1, r3, r1
    69ae:	ea80 0202 	eor.w	r2, r0, r2
    69b2:	ea81 0303 	eor.w	r3, r1, r3
    69b6:	2d36      	cmp	r5, #54	; 0x36
    69b8:	bf88      	it	hi
    69ba:	bd30      	pophi	{r4, r5, pc}
    69bc:	f011 4f00 	tst.w	r1, #2147483648	; 0x80000000
    69c0:	ea4f 3101 	mov.w	r1, r1, lsl #12
    69c4:	f44f 1c80 	mov.w	ip, #1048576	; 0x100000
    69c8:	ea4c 3111 	orr.w	r1, ip, r1, lsr #12
    69cc:	d002      	beq.n	69d4 <__adddf3+0x70>
    69ce:	4240      	negs	r0, r0
    69d0:	eb61 0141 	sbc.w	r1, r1, r1, lsl #1
    69d4:	f013 4f00 	tst.w	r3, #2147483648	; 0x80000000
    69d8:	ea4f 3303 	mov.w	r3, r3, lsl #12
    69dc:	ea4c 3313 	orr.w	r3, ip, r3, lsr #12
    69e0:	d002      	beq.n	69e8 <__adddf3+0x84>
    69e2:	4252      	negs	r2, r2
    69e4:	eb63 0343 	sbc.w	r3, r3, r3, lsl #1
    69e8:	ea94 0f05 	teq	r4, r5
    69ec:	f000 80a7 	beq.w	6b3e <__adddf3+0x1da>
    69f0:	f1a4 0401 	sub.w	r4, r4, #1
    69f4:	f1d5 0e20 	rsbs	lr, r5, #32
    69f8:	db0d      	blt.n	6a16 <__adddf3+0xb2>
    69fa:	fa02 fc0e 	lsl.w	ip, r2, lr
    69fe:	fa22 f205 	lsr.w	r2, r2, r5
    6a02:	1880      	adds	r0, r0, r2
    6a04:	f141 0100 	adc.w	r1, r1, #0
    6a08:	fa03 f20e 	lsl.w	r2, r3, lr
    6a0c:	1880      	adds	r0, r0, r2
    6a0e:	fa43 f305 	asr.w	r3, r3, r5
    6a12:	4159      	adcs	r1, r3
    6a14:	e00e      	b.n	6a34 <__adddf3+0xd0>
    6a16:	f1a5 0520 	sub.w	r5, r5, #32
    6a1a:	f10e 0e20 	add.w	lr, lr, #32
    6a1e:	2a01      	cmp	r2, #1
    6a20:	fa03 fc0e 	lsl.w	ip, r3, lr
    6a24:	bf28      	it	cs
    6a26:	f04c 0c02 	orrcs.w	ip, ip, #2
    6a2a:	fa43 f305 	asr.w	r3, r3, r5
    6a2e:	18c0      	adds	r0, r0, r3
    6a30:	eb51 71e3 	adcs.w	r1, r1, r3, asr #31
    6a34:	f001 4500 	and.w	r5, r1, #2147483648	; 0x80000000
    6a38:	d507      	bpl.n	6a4a <__adddf3+0xe6>
    6a3a:	f04f 0e00 	mov.w	lr, #0
    6a3e:	f1dc 0c00 	rsbs	ip, ip, #0
    6a42:	eb7e 0000 	sbcs.w	r0, lr, r0
    6a46:	eb6e 0101 	sbc.w	r1, lr, r1
    6a4a:	f5b1 1f80 	cmp.w	r1, #1048576	; 0x100000
    6a4e:	d31b      	bcc.n	6a88 <__adddf3+0x124>
    6a50:	f5b1 1f00 	cmp.w	r1, #2097152	; 0x200000
    6a54:	d30c      	bcc.n	6a70 <__adddf3+0x10c>
    6a56:	0849      	lsrs	r1, r1, #1
    6a58:	ea5f 0030 	movs.w	r0, r0, rrx
    6a5c:	ea4f 0c3c 	mov.w	ip, ip, rrx
    6a60:	f104 0401 	add.w	r4, r4, #1
    6a64:	ea4f 5244 	mov.w	r2, r4, lsl #21
    6a68:	f512 0f80 	cmn.w	r2, #4194304	; 0x400000
    6a6c:	f080 809a 	bcs.w	6ba4 <__adddf3+0x240>
    6a70:	f1bc 4f00 	cmp.w	ip, #2147483648	; 0x80000000
    6a74:	bf08      	it	eq
    6a76:	ea5f 0c50 	movseq.w	ip, r0, lsr #1
    6a7a:	f150 0000 	adcs.w	r0, r0, #0
    6a7e:	eb41 5104 	adc.w	r1, r1, r4, lsl #20
    6a82:	ea41 0105 	orr.w	r1, r1, r5
    6a86:	bd30      	pop	{r4, r5, pc}
    6a88:	ea5f 0c4c 	movs.w	ip, ip, lsl #1
    6a8c:	4140      	adcs	r0, r0
    6a8e:	eb41 0101 	adc.w	r1, r1, r1
    6a92:	f411 1f80 	tst.w	r1, #1048576	; 0x100000
    6a96:	f1a4 0401 	sub.w	r4, r4, #1
    6a9a:	d1e9      	bne.n	6a70 <__adddf3+0x10c>
    6a9c:	f091 0f00 	teq	r1, #0
    6aa0:	bf04      	itt	eq
    6aa2:	4601      	moveq	r1, r0
    6aa4:	2000      	moveq	r0, #0
    6aa6:	fab1 f381 	clz	r3, r1
    6aaa:	bf08      	it	eq
    6aac:	3320      	addeq	r3, #32
    6aae:	f1a3 030b 	sub.w	r3, r3, #11
    6ab2:	f1b3 0220 	subs.w	r2, r3, #32
    6ab6:	da0c      	bge.n	6ad2 <__adddf3+0x16e>
    6ab8:	320c      	adds	r2, #12
    6aba:	dd08      	ble.n	6ace <__adddf3+0x16a>
    6abc:	f102 0c14 	add.w	ip, r2, #20
    6ac0:	f1c2 020c 	rsb	r2, r2, #12
    6ac4:	fa01 f00c 	lsl.w	r0, r1, ip
    6ac8:	fa21 f102 	lsr.w	r1, r1, r2
    6acc:	e00c      	b.n	6ae8 <__adddf3+0x184>
    6ace:	f102 0214 	add.w	r2, r2, #20
    6ad2:	bfd8      	it	le
    6ad4:	f1c2 0c20 	rsble	ip, r2, #32
    6ad8:	fa01 f102 	lsl.w	r1, r1, r2
    6adc:	fa20 fc0c 	lsr.w	ip, r0, ip
    6ae0:	bfdc      	itt	le
    6ae2:	ea41 010c 	orrle.w	r1, r1, ip
    6ae6:	4090      	lslle	r0, r2
    6ae8:	1ae4      	subs	r4, r4, r3
    6aea:	bfa2      	ittt	ge
    6aec:	eb01 5104 	addge.w	r1, r1, r4, lsl #20
    6af0:	4329      	orrge	r1, r5
    6af2:	bd30      	popge	{r4, r5, pc}
    6af4:	ea6f 0404 	mvn.w	r4, r4
    6af8:	3c1f      	subs	r4, #31
    6afa:	da1c      	bge.n	6b36 <__adddf3+0x1d2>
    6afc:	340c      	adds	r4, #12
    6afe:	dc0e      	bgt.n	6b1e <__adddf3+0x1ba>
    6b00:	f104 0414 	add.w	r4, r4, #20
    6b04:	f1c4 0220 	rsb	r2, r4, #32
    6b08:	fa20 f004 	lsr.w	r0, r0, r4
    6b0c:	fa01 f302 	lsl.w	r3, r1, r2
    6b10:	ea40 0003 	orr.w	r0, r0, r3
    6b14:	fa21 f304 	lsr.w	r3, r1, r4
    6b18:	ea45 0103 	orr.w	r1, r5, r3
    6b1c:	bd30      	pop	{r4, r5, pc}
    6b1e:	f1c4 040c 	rsb	r4, r4, #12
    6b22:	f1c4 0220 	rsb	r2, r4, #32
    6b26:	fa20 f002 	lsr.w	r0, r0, r2
    6b2a:	fa01 f304 	lsl.w	r3, r1, r4
    6b2e:	ea40 0003 	orr.w	r0, r0, r3
    6b32:	4629      	mov	r1, r5
    6b34:	bd30      	pop	{r4, r5, pc}
    6b36:	fa21 f004 	lsr.w	r0, r1, r4
    6b3a:	4629      	mov	r1, r5
    6b3c:	bd30      	pop	{r4, r5, pc}
    6b3e:	f094 0f00 	teq	r4, #0
    6b42:	f483 1380 	eor.w	r3, r3, #1048576	; 0x100000
    6b46:	bf06      	itte	eq
    6b48:	f481 1180 	eoreq.w	r1, r1, #1048576	; 0x100000
    6b4c:	3401      	addeq	r4, #1
    6b4e:	3d01      	subne	r5, #1
    6b50:	e74e      	b.n	69f0 <__adddf3+0x8c>
    6b52:	ea7f 5c64 	mvns.w	ip, r4, asr #21
    6b56:	bf18      	it	ne
    6b58:	ea7f 5c65 	mvnsne.w	ip, r5, asr #21
    6b5c:	d029      	beq.n	6bb2 <__adddf3+0x24e>
    6b5e:	ea94 0f05 	teq	r4, r5
    6b62:	bf08      	it	eq
    6b64:	ea90 0f02 	teqeq	r0, r2
    6b68:	d005      	beq.n	6b76 <__adddf3+0x212>
    6b6a:	ea54 0c00 	orrs.w	ip, r4, r0
    6b6e:	bf04      	itt	eq
    6b70:	4619      	moveq	r1, r3
    6b72:	4610      	moveq	r0, r2
    6b74:	bd30      	pop	{r4, r5, pc}
    6b76:	ea91 0f03 	teq	r1, r3
    6b7a:	bf1e      	ittt	ne
    6b7c:	2100      	movne	r1, #0
    6b7e:	2000      	movne	r0, #0
    6b80:	bd30      	popne	{r4, r5, pc}
    6b82:	ea5f 5c54 	movs.w	ip, r4, lsr #21
    6b86:	d105      	bne.n	6b94 <__adddf3+0x230>
    6b88:	0040      	lsls	r0, r0, #1
    6b8a:	4149      	adcs	r1, r1
    6b8c:	bf28      	it	cs
    6b8e:	f041 4100 	orrcs.w	r1, r1, #2147483648	; 0x80000000
    6b92:	bd30      	pop	{r4, r5, pc}
    6b94:	f514 0480 	adds.w	r4, r4, #4194304	; 0x400000
    6b98:	bf3c      	itt	cc
    6b9a:	f501 1180 	addcc.w	r1, r1, #1048576	; 0x100000
    6b9e:	bd30      	popcc	{r4, r5, pc}
    6ba0:	f001 4500 	and.w	r5, r1, #2147483648	; 0x80000000
    6ba4:	f045 41fe 	orr.w	r1, r5, #2130706432	; 0x7f000000
    6ba8:	f441 0170 	orr.w	r1, r1, #15728640	; 0xf00000
    6bac:	f04f 0000 	mov.w	r0, #0
    6bb0:	bd30      	pop	{r4, r5, pc}
    6bb2:	ea7f 5c64 	mvns.w	ip, r4, asr #21
    6bb6:	bf1a      	itte	ne
    6bb8:	4619      	movne	r1, r3
    6bba:	4610      	movne	r0, r2
    6bbc:	ea7f 5c65 	mvnseq.w	ip, r5, asr #21
    6bc0:	bf1c      	itt	ne
    6bc2:	460b      	movne	r3, r1
    6bc4:	4602      	movne	r2, r0
    6bc6:	ea50 3401 	orrs.w	r4, r0, r1, lsl #12
    6bca:	bf06      	itte	eq
    6bcc:	ea52 3503 	orrseq.w	r5, r2, r3, lsl #12
    6bd0:	ea91 0f03 	teqeq	r1, r3
    6bd4:	f441 2100 	orrne.w	r1, r1, #524288	; 0x80000
    6bd8:	bd30      	pop	{r4, r5, pc}
    6bda:	bf00      	nop

00006bdc <__aeabi_ui2d>:
    6bdc:	f090 0f00 	teq	r0, #0
    6be0:	bf04      	itt	eq
    6be2:	2100      	moveq	r1, #0
    6be4:	4770      	bxeq	lr
    6be6:	b530      	push	{r4, r5, lr}
    6be8:	f44f 6480 	mov.w	r4, #1024	; 0x400
    6bec:	f104 0432 	add.w	r4, r4, #50	; 0x32
    6bf0:	f04f 0500 	mov.w	r5, #0
    6bf4:	f04f 0100 	mov.w	r1, #0
    6bf8:	e750      	b.n	6a9c <__adddf3+0x138>
    6bfa:	bf00      	nop

00006bfc <__aeabi_i2d>:
    6bfc:	f090 0f00 	teq	r0, #0
    6c00:	bf04      	itt	eq
    6c02:	2100      	moveq	r1, #0
    6c04:	4770      	bxeq	lr
    6c06:	b530      	push	{r4, r5, lr}
    6c08:	f44f 6480 	mov.w	r4, #1024	; 0x400
    6c0c:	f104 0432 	add.w	r4, r4, #50	; 0x32
    6c10:	f010 4500 	ands.w	r5, r0, #2147483648	; 0x80000000
    6c14:	bf48      	it	mi
    6c16:	4240      	negmi	r0, r0
    6c18:	f04f 0100 	mov.w	r1, #0
    6c1c:	e73e      	b.n	6a9c <__adddf3+0x138>
    6c1e:	bf00      	nop

00006c20 <__aeabi_f2d>:
    6c20:	0042      	lsls	r2, r0, #1
    6c22:	ea4f 01e2 	mov.w	r1, r2, asr #3
    6c26:	ea4f 0131 	mov.w	r1, r1, rrx
    6c2a:	ea4f 7002 	mov.w	r0, r2, lsl #28
    6c2e:	bf1f      	itttt	ne
    6c30:	f012 437f 	andsne.w	r3, r2, #4278190080	; 0xff000000
    6c34:	f093 4f7f 	teqne	r3, #4278190080	; 0xff000000
    6c38:	f081 5160 	eorne.w	r1, r1, #939524096	; 0x38000000
    6c3c:	4770      	bxne	lr
    6c3e:	f092 0f00 	teq	r2, #0
    6c42:	bf14      	ite	ne
    6c44:	f093 4f7f 	teqne	r3, #4278190080	; 0xff000000
    6c48:	4770      	bxeq	lr
    6c4a:	b530      	push	{r4, r5, lr}
    6c4c:	f44f 7460 	mov.w	r4, #896	; 0x380
    6c50:	f001 4500 	and.w	r5, r1, #2147483648	; 0x80000000
    6c54:	f021 4100 	bic.w	r1, r1, #2147483648	; 0x80000000
    6c58:	e720      	b.n	6a9c <__adddf3+0x138>
    6c5a:	bf00      	nop

00006c5c <__aeabi_ul2d>:
    6c5c:	ea50 0201 	orrs.w	r2, r0, r1
    6c60:	bf08      	it	eq
    6c62:	4770      	bxeq	lr
    6c64:	b530      	push	{r4, r5, lr}
    6c66:	f04f 0500 	mov.w	r5, #0
    6c6a:	e00a      	b.n	6c82 <__aeabi_l2d+0x16>

00006c6c <__aeabi_l2d>:
    6c6c:	ea50 0201 	orrs.w	r2, r0, r1
    6c70:	bf08      	it	eq
    6c72:	4770      	bxeq	lr
    6c74:	b530      	push	{r4, r5, lr}
    6c76:	f011 4500 	ands.w	r5, r1, #2147483648	; 0x80000000
    6c7a:	d502      	bpl.n	6c82 <__aeabi_l2d+0x16>
    6c7c:	4240      	negs	r0, r0
    6c7e:	eb61 0141 	sbc.w	r1, r1, r1, lsl #1
    6c82:	f44f 6480 	mov.w	r4, #1024	; 0x400
    6c86:	f104 0432 	add.w	r4, r4, #50	; 0x32
    6c8a:	ea5f 5c91 	movs.w	ip, r1, lsr #22
    6c8e:	f43f aedc 	beq.w	6a4a <__adddf3+0xe6>
    6c92:	f04f 0203 	mov.w	r2, #3
    6c96:	ea5f 0cdc 	movs.w	ip, ip, lsr #3
    6c9a:	bf18      	it	ne
    6c9c:	3203      	addne	r2, #3
    6c9e:	ea5f 0cdc 	movs.w	ip, ip, lsr #3
    6ca2:	bf18      	it	ne
    6ca4:	3203      	addne	r2, #3
    6ca6:	eb02 02dc 	add.w	r2, r2, ip, lsr #3
    6caa:	f1c2 0320 	rsb	r3, r2, #32
    6cae:	fa00 fc03 	lsl.w	ip, r0, r3
    6cb2:	fa20 f002 	lsr.w	r0, r0, r2
    6cb6:	fa01 fe03 	lsl.w	lr, r1, r3
    6cba:	ea40 000e 	orr.w	r0, r0, lr
    6cbe:	fa21 f102 	lsr.w	r1, r1, r2
    6cc2:	4414      	add	r4, r2
    6cc4:	e6c1      	b.n	6a4a <__adddf3+0xe6>
    6cc6:	bf00      	nop

00006cc8 <__aeabi_dmul>:
    6cc8:	b570      	push	{r4, r5, r6, lr}
    6cca:	f04f 0cff 	mov.w	ip, #255	; 0xff
    6cce:	f44c 6ce0 	orr.w	ip, ip, #1792	; 0x700
    6cd2:	ea1c 5411 	ands.w	r4, ip, r1, lsr #20
    6cd6:	bf1d      	ittte	ne
    6cd8:	ea1c 5513 	andsne.w	r5, ip, r3, lsr #20
    6cdc:	ea94 0f0c 	teqne	r4, ip
    6ce0:	ea95 0f0c 	teqne	r5, ip
    6ce4:	f000 f8de 	bleq	6ea4 <__aeabi_dmul+0x1dc>
    6ce8:	442c      	add	r4, r5
    6cea:	ea81 0603 	eor.w	r6, r1, r3
    6cee:	ea21 514c 	bic.w	r1, r1, ip, lsl #21
    6cf2:	ea23 534c 	bic.w	r3, r3, ip, lsl #21
    6cf6:	ea50 3501 	orrs.w	r5, r0, r1, lsl #12
    6cfa:	bf18      	it	ne
    6cfc:	ea52 3503 	orrsne.w	r5, r2, r3, lsl #12
    6d00:	f441 1180 	orr.w	r1, r1, #1048576	; 0x100000
    6d04:	f443 1380 	orr.w	r3, r3, #1048576	; 0x100000
    6d08:	d038      	beq.n	6d7c <__aeabi_dmul+0xb4>
    6d0a:	fba0 ce02 	umull	ip, lr, r0, r2
    6d0e:	f04f 0500 	mov.w	r5, #0
    6d12:	fbe1 e502 	umlal	lr, r5, r1, r2
    6d16:	f006 4200 	and.w	r2, r6, #2147483648	; 0x80000000
    6d1a:	fbe0 e503 	umlal	lr, r5, r0, r3
    6d1e:	f04f 0600 	mov.w	r6, #0
    6d22:	fbe1 5603 	umlal	r5, r6, r1, r3
    6d26:	f09c 0f00 	teq	ip, #0
    6d2a:	bf18      	it	ne
    6d2c:	f04e 0e01 	orrne.w	lr, lr, #1
    6d30:	f1a4 04ff 	sub.w	r4, r4, #255	; 0xff
    6d34:	f5b6 7f00 	cmp.w	r6, #512	; 0x200
    6d38:	f564 7440 	sbc.w	r4, r4, #768	; 0x300
    6d3c:	d204      	bcs.n	6d48 <__aeabi_dmul+0x80>
    6d3e:	ea5f 0e4e 	movs.w	lr, lr, lsl #1
    6d42:	416d      	adcs	r5, r5
    6d44:	eb46 0606 	adc.w	r6, r6, r6
    6d48:	ea42 21c6 	orr.w	r1, r2, r6, lsl #11
    6d4c:	ea41 5155 	orr.w	r1, r1, r5, lsr #21
    6d50:	ea4f 20c5 	mov.w	r0, r5, lsl #11
    6d54:	ea40 505e 	orr.w	r0, r0, lr, lsr #21
    6d58:	ea4f 2ece 	mov.w	lr, lr, lsl #11
    6d5c:	f1b4 0cfd 	subs.w	ip, r4, #253	; 0xfd
    6d60:	bf88      	it	hi
    6d62:	f5bc 6fe0 	cmphi.w	ip, #1792	; 0x700
    6d66:	d81e      	bhi.n	6da6 <__aeabi_dmul+0xde>
    6d68:	f1be 4f00 	cmp.w	lr, #2147483648	; 0x80000000
    6d6c:	bf08      	it	eq
    6d6e:	ea5f 0e50 	movseq.w	lr, r0, lsr #1
    6d72:	f150 0000 	adcs.w	r0, r0, #0
    6d76:	eb41 5104 	adc.w	r1, r1, r4, lsl #20
    6d7a:	bd70      	pop	{r4, r5, r6, pc}
    6d7c:	f006 4600 	and.w	r6, r6, #2147483648	; 0x80000000
    6d80:	ea46 0101 	orr.w	r1, r6, r1
    6d84:	ea40 0002 	orr.w	r0, r0, r2
    6d88:	ea81 0103 	eor.w	r1, r1, r3
    6d8c:	ebb4 045c 	subs.w	r4, r4, ip, lsr #1
    6d90:	bfc2      	ittt	gt
    6d92:	ebd4 050c 	rsbsgt	r5, r4, ip
    6d96:	ea41 5104 	orrgt.w	r1, r1, r4, lsl #20
    6d9a:	bd70      	popgt	{r4, r5, r6, pc}
    6d9c:	f441 1180 	orr.w	r1, r1, #1048576	; 0x100000
    6da0:	f04f 0e00 	mov.w	lr, #0
    6da4:	3c01      	subs	r4, #1
    6da6:	f300 80ab 	bgt.w	6f00 <__aeabi_dmul+0x238>
    6daa:	f114 0f36 	cmn.w	r4, #54	; 0x36
    6dae:	bfde      	ittt	le
    6db0:	2000      	movle	r0, #0
    6db2:	f001 4100 	andle.w	r1, r1, #2147483648	; 0x80000000
    6db6:	bd70      	pople	{r4, r5, r6, pc}
    6db8:	f1c4 0400 	rsb	r4, r4, #0
    6dbc:	3c20      	subs	r4, #32
    6dbe:	da35      	bge.n	6e2c <__aeabi_dmul+0x164>
    6dc0:	340c      	adds	r4, #12
    6dc2:	dc1b      	bgt.n	6dfc <__aeabi_dmul+0x134>
    6dc4:	f104 0414 	add.w	r4, r4, #20
    6dc8:	f1c4 0520 	rsb	r5, r4, #32
    6dcc:	fa00 f305 	lsl.w	r3, r0, r5
    6dd0:	fa20 f004 	lsr.w	r0, r0, r4
    6dd4:	fa01 f205 	lsl.w	r2, r1, r5
    6dd8:	ea40 0002 	orr.w	r0, r0, r2
    6ddc:	f001 4200 	and.w	r2, r1, #2147483648	; 0x80000000
    6de0:	f021 4100 	bic.w	r1, r1, #2147483648	; 0x80000000
    6de4:	eb10 70d3 	adds.w	r0, r0, r3, lsr #31
    6de8:	fa21 f604 	lsr.w	r6, r1, r4
    6dec:	eb42 0106 	adc.w	r1, r2, r6
    6df0:	ea5e 0e43 	orrs.w	lr, lr, r3, lsl #1
    6df4:	bf08      	it	eq
    6df6:	ea20 70d3 	biceq.w	r0, r0, r3, lsr #31
    6dfa:	bd70      	pop	{r4, r5, r6, pc}
    6dfc:	f1c4 040c 	rsb	r4, r4, #12
    6e00:	f1c4 0520 	rsb	r5, r4, #32
    6e04:	fa00 f304 	lsl.w	r3, r0, r4
    6e08:	fa20 f005 	lsr.w	r0, r0, r5
    6e0c:	fa01 f204 	lsl.w	r2, r1, r4
    6e10:	ea40 0002 	orr.w	r0, r0, r2
    6e14:	f001 4100 	and.w	r1, r1, #2147483648	; 0x80000000
    6e18:	eb10 70d3 	adds.w	r0, r0, r3, lsr #31
    6e1c:	f141 0100 	adc.w	r1, r1, #0
    6e20:	ea5e 0e43 	orrs.w	lr, lr, r3, lsl #1
    6e24:	bf08      	it	eq
    6e26:	ea20 70d3 	biceq.w	r0, r0, r3, lsr #31
    6e2a:	bd70      	pop	{r4, r5, r6, pc}
    6e2c:	f1c4 0520 	rsb	r5, r4, #32
    6e30:	fa00 f205 	lsl.w	r2, r0, r5
    6e34:	ea4e 0e02 	orr.w	lr, lr, r2
    6e38:	fa20 f304 	lsr.w	r3, r0, r4
    6e3c:	fa01 f205 	lsl.w	r2, r1, r5
    6e40:	ea43 0302 	orr.w	r3, r3, r2
    6e44:	fa21 f004 	lsr.w	r0, r1, r4
    6e48:	f001 4100 	and.w	r1, r1, #2147483648	; 0x80000000
    6e4c:	fa21 f204 	lsr.w	r2, r1, r4
    6e50:	ea20 0002 	bic.w	r0, r0, r2
    6e54:	eb00 70d3 	add.w	r0, r0, r3, lsr #31
    6e58:	ea5e 0e43 	orrs.w	lr, lr, r3, lsl #1
    6e5c:	bf08      	it	eq
    6e5e:	ea20 70d3 	biceq.w	r0, r0, r3, lsr #31
    6e62:	bd70      	pop	{r4, r5, r6, pc}
    6e64:	f094 0f00 	teq	r4, #0
    6e68:	d10f      	bne.n	6e8a <__aeabi_dmul+0x1c2>
    6e6a:	f001 4600 	and.w	r6, r1, #2147483648	; 0x80000000
    6e6e:	0040      	lsls	r0, r0, #1
    6e70:	eb41 0101 	adc.w	r1, r1, r1
    6e74:	f411 1f80 	tst.w	r1, #1048576	; 0x100000
    6e78:	bf08      	it	eq
    6e7a:	3c01      	subeq	r4, #1
    6e7c:	d0f7      	beq.n	6e6e <__aeabi_dmul+0x1a6>
    6e7e:	ea41 0106 	orr.w	r1, r1, r6
    6e82:	f095 0f00 	teq	r5, #0
    6e86:	bf18      	it	ne
    6e88:	4770      	bxne	lr
    6e8a:	f003 4600 	and.w	r6, r3, #2147483648	; 0x80000000
    6e8e:	0052      	lsls	r2, r2, #1
    6e90:	eb43 0303 	adc.w	r3, r3, r3
    6e94:	f413 1f80 	tst.w	r3, #1048576	; 0x100000
    6e98:	bf08      	it	eq
    6e9a:	3d01      	subeq	r5, #1
    6e9c:	d0f7      	beq.n	6e8e <__aeabi_dmul+0x1c6>
    6e9e:	ea43 0306 	orr.w	r3, r3, r6
    6ea2:	4770      	bx	lr
    6ea4:	ea94 0f0c 	teq	r4, ip
    6ea8:	ea0c 5513 	and.w	r5, ip, r3, lsr #20
    6eac:	bf18      	it	ne
    6eae:	ea95 0f0c 	teqne	r5, ip
    6eb2:	d00c      	beq.n	6ece <__aeabi_dmul+0x206>
    6eb4:	ea50 0641 	orrs.w	r6, r0, r1, lsl #1
    6eb8:	bf18      	it	ne
    6eba:	ea52 0643 	orrsne.w	r6, r2, r3, lsl #1
    6ebe:	d1d1      	bne.n	6e64 <__aeabi_dmul+0x19c>
    6ec0:	ea81 0103 	eor.w	r1, r1, r3
    6ec4:	f001 4100 	and.w	r1, r1, #2147483648	; 0x80000000
    6ec8:	f04f 0000 	mov.w	r0, #0
    6ecc:	bd70      	pop	{r4, r5, r6, pc}
    6ece:	ea50 0641 	orrs.w	r6, r0, r1, lsl #1
    6ed2:	bf06      	itte	eq
    6ed4:	4610      	moveq	r0, r2
    6ed6:	4619      	moveq	r1, r3
    6ed8:	ea52 0643 	orrsne.w	r6, r2, r3, lsl #1
    6edc:	d019      	beq.n	6f12 <__aeabi_dmul+0x24a>
    6ede:	ea94 0f0c 	teq	r4, ip
    6ee2:	d102      	bne.n	6eea <__aeabi_dmul+0x222>
    6ee4:	ea50 3601 	orrs.w	r6, r0, r1, lsl #12
    6ee8:	d113      	bne.n	6f12 <__aeabi_dmul+0x24a>
    6eea:	ea95 0f0c 	teq	r5, ip
    6eee:	d105      	bne.n	6efc <__aeabi_dmul+0x234>
    6ef0:	ea52 3603 	orrs.w	r6, r2, r3, lsl #12
    6ef4:	bf1c      	itt	ne
    6ef6:	4610      	movne	r0, r2
    6ef8:	4619      	movne	r1, r3
    6efa:	d10a      	bne.n	6f12 <__aeabi_dmul+0x24a>
    6efc:	ea81 0103 	eor.w	r1, r1, r3
    6f00:	f001 4100 	and.w	r1, r1, #2147483648	; 0x80000000
    6f04:	f041 41fe 	orr.w	r1, r1, #2130706432	; 0x7f000000
    6f08:	f441 0170 	orr.w	r1, r1, #15728640	; 0xf00000
    6f0c:	f04f 0000 	mov.w	r0, #0
    6f10:	bd70      	pop	{r4, r5, r6, pc}
    6f12:	f041 41fe 	orr.w	r1, r1, #2130706432	; 0x7f000000
    6f16:	f441 0178 	orr.w	r1, r1, #16252928	; 0xf80000
    6f1a:	bd70      	pop	{r4, r5, r6, pc}

00006f1c <__aeabi_ddiv>:
    6f1c:	b570      	push	{r4, r5, r6, lr}
    6f1e:	f04f 0cff 	mov.w	ip, #255	; 0xff
    6f22:	f44c 6ce0 	orr.w	ip, ip, #1792	; 0x700
    6f26:	ea1c 5411 	ands.w	r4, ip, r1, lsr #20
    6f2a:	bf1d      	ittte	ne
    6f2c:	ea1c 5513 	andsne.w	r5, ip, r3, lsr #20
    6f30:	ea94 0f0c 	teqne	r4, ip
    6f34:	ea95 0f0c 	teqne	r5, ip
    6f38:	f000 f8a7 	bleq	708a <__aeabi_ddiv+0x16e>
    6f3c:	eba4 0405 	sub.w	r4, r4, r5
    6f40:	ea81 0e03 	eor.w	lr, r1, r3
    6f44:	ea52 3503 	orrs.w	r5, r2, r3, lsl #12
    6f48:	ea4f 3101 	mov.w	r1, r1, lsl #12
    6f4c:	f000 8088 	beq.w	7060 <__aeabi_ddiv+0x144>
    6f50:	ea4f 3303 	mov.w	r3, r3, lsl #12
    6f54:	f04f 5580 	mov.w	r5, #268435456	; 0x10000000
    6f58:	ea45 1313 	orr.w	r3, r5, r3, lsr #4
    6f5c:	ea43 6312 	orr.w	r3, r3, r2, lsr #24
    6f60:	ea4f 2202 	mov.w	r2, r2, lsl #8
    6f64:	ea45 1511 	orr.w	r5, r5, r1, lsr #4
    6f68:	ea45 6510 	orr.w	r5, r5, r0, lsr #24
    6f6c:	ea4f 2600 	mov.w	r6, r0, lsl #8
    6f70:	f00e 4100 	and.w	r1, lr, #2147483648	; 0x80000000
    6f74:	429d      	cmp	r5, r3
    6f76:	bf08      	it	eq
    6f78:	4296      	cmpeq	r6, r2
    6f7a:	f144 04fd 	adc.w	r4, r4, #253	; 0xfd
    6f7e:	f504 7440 	add.w	r4, r4, #768	; 0x300
    6f82:	d202      	bcs.n	6f8a <__aeabi_ddiv+0x6e>
    6f84:	085b      	lsrs	r3, r3, #1
    6f86:	ea4f 0232 	mov.w	r2, r2, rrx
    6f8a:	1ab6      	subs	r6, r6, r2
    6f8c:	eb65 0503 	sbc.w	r5, r5, r3
    6f90:	085b      	lsrs	r3, r3, #1
    6f92:	ea4f 0232 	mov.w	r2, r2, rrx
    6f96:	f44f 1080 	mov.w	r0, #1048576	; 0x100000
    6f9a:	f44f 2c00 	mov.w	ip, #524288	; 0x80000
    6f9e:	ebb6 0e02 	subs.w	lr, r6, r2
    6fa2:	eb75 0e03 	sbcs.w	lr, r5, r3
    6fa6:	bf22      	ittt	cs
    6fa8:	1ab6      	subcs	r6, r6, r2
    6faa:	4675      	movcs	r5, lr
    6fac:	ea40 000c 	orrcs.w	r0, r0, ip
    6fb0:	085b      	lsrs	r3, r3, #1
    6fb2:	ea4f 0232 	mov.w	r2, r2, rrx
    6fb6:	ebb6 0e02 	subs.w	lr, r6, r2
    6fba:	eb75 0e03 	sbcs.w	lr, r5, r3
    6fbe:	bf22      	ittt	cs
    6fc0:	1ab6      	subcs	r6, r6, r2
    6fc2:	4675      	movcs	r5, lr
    6fc4:	ea40 005c 	orrcs.w	r0, r0, ip, lsr #1
    6fc8:	085b      	lsrs	r3, r3, #1
    6fca:	ea4f 0232 	mov.w	r2, r2, rrx
    6fce:	ebb6 0e02 	subs.w	lr, r6, r2
    6fd2:	eb75 0e03 	sbcs.w	lr, r5, r3
    6fd6:	bf22      	ittt	cs
    6fd8:	1ab6      	subcs	r6, r6, r2
    6fda:	4675      	movcs	r5, lr
    6fdc:	ea40 009c 	orrcs.w	r0, r0, ip, lsr #2
    6fe0:	085b      	lsrs	r3, r3, #1
    6fe2:	ea4f 0232 	mov.w	r2, r2, rrx
    6fe6:	ebb6 0e02 	subs.w	lr, r6, r2
    6fea:	eb75 0e03 	sbcs.w	lr, r5, r3
    6fee:	bf22      	ittt	cs
    6ff0:	1ab6      	subcs	r6, r6, r2
    6ff2:	4675      	movcs	r5, lr
    6ff4:	ea40 00dc 	orrcs.w	r0, r0, ip, lsr #3
    6ff8:	ea55 0e06 	orrs.w	lr, r5, r6
    6ffc:	d018      	beq.n	7030 <__aeabi_ddiv+0x114>
    6ffe:	ea4f 1505 	mov.w	r5, r5, lsl #4
    7002:	ea45 7516 	orr.w	r5, r5, r6, lsr #28
    7006:	ea4f 1606 	mov.w	r6, r6, lsl #4
    700a:	ea4f 03c3 	mov.w	r3, r3, lsl #3
    700e:	ea43 7352 	orr.w	r3, r3, r2, lsr #29
    7012:	ea4f 02c2 	mov.w	r2, r2, lsl #3
    7016:	ea5f 1c1c 	movs.w	ip, ip, lsr #4
    701a:	d1c0      	bne.n	6f9e <__aeabi_ddiv+0x82>
    701c:	f411 1f80 	tst.w	r1, #1048576	; 0x100000
    7020:	d10b      	bne.n	703a <__aeabi_ddiv+0x11e>
    7022:	ea41 0100 	orr.w	r1, r1, r0
    7026:	f04f 0000 	mov.w	r0, #0
    702a:	f04f 4c00 	mov.w	ip, #2147483648	; 0x80000000
    702e:	e7b6      	b.n	6f9e <__aeabi_ddiv+0x82>
    7030:	f411 1f80 	tst.w	r1, #1048576	; 0x100000
    7034:	bf04      	itt	eq
    7036:	4301      	orreq	r1, r0
    7038:	2000      	moveq	r0, #0
    703a:	f1b4 0cfd 	subs.w	ip, r4, #253	; 0xfd
    703e:	bf88      	it	hi
    7040:	f5bc 6fe0 	cmphi.w	ip, #1792	; 0x700
    7044:	f63f aeaf 	bhi.w	6da6 <__aeabi_dmul+0xde>
    7048:	ebb5 0c03 	subs.w	ip, r5, r3
    704c:	bf04      	itt	eq
    704e:	ebb6 0c02 	subseq.w	ip, r6, r2
    7052:	ea5f 0c50 	movseq.w	ip, r0, lsr #1
    7056:	f150 0000 	adcs.w	r0, r0, #0
    705a:	eb41 5104 	adc.w	r1, r1, r4, lsl #20
    705e:	bd70      	pop	{r4, r5, r6, pc}
    7060:	f00e 4e00 	and.w	lr, lr, #2147483648	; 0x80000000
    7064:	ea4e 3111 	orr.w	r1, lr, r1, lsr #12
    7068:	eb14 045c 	adds.w	r4, r4, ip, lsr #1
    706c:	bfc2      	ittt	gt
    706e:	ebd4 050c 	rsbsgt	r5, r4, ip
    7072:	ea41 5104 	orrgt.w	r1, r1, r4, lsl #20
    7076:	bd70      	popgt	{r4, r5, r6, pc}
    7078:	f441 1180 	orr.w	r1, r1, #1048576	; 0x100000
    707c:	f04f 0e00 	mov.w	lr, #0
    7080:	3c01      	subs	r4, #1
    7082:	e690      	b.n	6da6 <__aeabi_dmul+0xde>
    7084:	ea45 0e06 	orr.w	lr, r5, r6
    7088:	e68d      	b.n	6da6 <__aeabi_dmul+0xde>
    708a:	ea0c 5513 	and.w	r5, ip, r3, lsr #20
    708e:	ea94 0f0c 	teq	r4, ip
    7092:	bf08      	it	eq
    7094:	ea95 0f0c 	teqeq	r5, ip
    7098:	f43f af3b 	beq.w	6f12 <__aeabi_dmul+0x24a>
    709c:	ea94 0f0c 	teq	r4, ip
    70a0:	d10a      	bne.n	70b8 <__aeabi_ddiv+0x19c>
    70a2:	ea50 3401 	orrs.w	r4, r0, r1, lsl #12
    70a6:	f47f af34 	bne.w	6f12 <__aeabi_dmul+0x24a>
    70aa:	ea95 0f0c 	teq	r5, ip
    70ae:	f47f af25 	bne.w	6efc <__aeabi_dmul+0x234>
    70b2:	4610      	mov	r0, r2
    70b4:	4619      	mov	r1, r3
    70b6:	e72c      	b.n	6f12 <__aeabi_dmul+0x24a>
    70b8:	ea95 0f0c 	teq	r5, ip
    70bc:	d106      	bne.n	70cc <__aeabi_ddiv+0x1b0>
    70be:	ea52 3503 	orrs.w	r5, r2, r3, lsl #12
    70c2:	f43f aefd 	beq.w	6ec0 <__aeabi_dmul+0x1f8>
    70c6:	4610      	mov	r0, r2
    70c8:	4619      	mov	r1, r3
    70ca:	e722      	b.n	6f12 <__aeabi_dmul+0x24a>
    70cc:	ea50 0641 	orrs.w	r6, r0, r1, lsl #1
    70d0:	bf18      	it	ne
    70d2:	ea52 0643 	orrsne.w	r6, r2, r3, lsl #1
    70d6:	f47f aec5 	bne.w	6e64 <__aeabi_dmul+0x19c>
    70da:	ea50 0441 	orrs.w	r4, r0, r1, lsl #1
    70de:	f47f af0d 	bne.w	6efc <__aeabi_dmul+0x234>
    70e2:	ea52 0543 	orrs.w	r5, r2, r3, lsl #1
    70e6:	f47f aeeb 	bne.w	6ec0 <__aeabi_dmul+0x1f8>
    70ea:	e712      	b.n	6f12 <__aeabi_dmul+0x24a>

000070ec <__gedf2>:
    70ec:	f04f 3cff 	mov.w	ip, #4294967295
    70f0:	e006      	b.n	7100 <__cmpdf2+0x4>
    70f2:	bf00      	nop

000070f4 <__ledf2>:
    70f4:	f04f 0c01 	mov.w	ip, #1
    70f8:	e002      	b.n	7100 <__cmpdf2+0x4>
    70fa:	bf00      	nop

000070fc <__cmpdf2>:
    70fc:	f04f 0c01 	mov.w	ip, #1
    7100:	f84d cd04 	str.w	ip, [sp, #-4]!
    7104:	ea4f 0c41 	mov.w	ip, r1, lsl #1
    7108:	ea7f 5c6c 	mvns.w	ip, ip, asr #21
    710c:	ea4f 0c43 	mov.w	ip, r3, lsl #1
    7110:	bf18      	it	ne
    7112:	ea7f 5c6c 	mvnsne.w	ip, ip, asr #21
    7116:	d01b      	beq.n	7150 <__cmpdf2+0x54>
    7118:	b001      	add	sp, #4
    711a:	ea50 0c41 	orrs.w	ip, r0, r1, lsl #1
    711e:	bf0c      	ite	eq
    7120:	ea52 0c43 	orrseq.w	ip, r2, r3, lsl #1
    7124:	ea91 0f03 	teqne	r1, r3
    7128:	bf02      	ittt	eq
    712a:	ea90 0f02 	teqeq	r0, r2
    712e:	2000      	moveq	r0, #0
    7130:	4770      	bxeq	lr
    7132:	f110 0f00 	cmn.w	r0, #0
    7136:	ea91 0f03 	teq	r1, r3
    713a:	bf58      	it	pl
    713c:	4299      	cmppl	r1, r3
    713e:	bf08      	it	eq
    7140:	4290      	cmpeq	r0, r2
    7142:	bf2c      	ite	cs
    7144:	17d8      	asrcs	r0, r3, #31
    7146:	ea6f 70e3 	mvncc.w	r0, r3, asr #31
    714a:	f040 0001 	orr.w	r0, r0, #1
    714e:	4770      	bx	lr
    7150:	ea4f 0c41 	mov.w	ip, r1, lsl #1
    7154:	ea7f 5c6c 	mvns.w	ip, ip, asr #21
    7158:	d102      	bne.n	7160 <__cmpdf2+0x64>
    715a:	ea50 3c01 	orrs.w	ip, r0, r1, lsl #12
    715e:	d107      	bne.n	7170 <__cmpdf2+0x74>
    7160:	ea4f 0c43 	mov.w	ip, r3, lsl #1
    7164:	ea7f 5c6c 	mvns.w	ip, ip, asr #21
    7168:	d1d6      	bne.n	7118 <__cmpdf2+0x1c>
    716a:	ea52 3c03 	orrs.w	ip, r2, r3, lsl #12
    716e:	d0d3      	beq.n	7118 <__cmpdf2+0x1c>
    7170:	f85d 0b04 	ldr.w	r0, [sp], #4
    7174:	4770      	bx	lr
    7176:	bf00      	nop

00007178 <__aeabi_cdrcmple>:
    7178:	4684      	mov	ip, r0
    717a:	4610      	mov	r0, r2
    717c:	4662      	mov	r2, ip
    717e:	468c      	mov	ip, r1
    7180:	4619      	mov	r1, r3
    7182:	4663      	mov	r3, ip
    7184:	e000      	b.n	7188 <__aeabi_cdcmpeq>
    7186:	bf00      	nop

00007188 <__aeabi_cdcmpeq>:
    7188:	b501      	push	{r0, lr}
    718a:	f7ff ffb7 	bl	70fc <__cmpdf2>
    718e:	2800      	cmp	r0, #0
    7190:	bf48      	it	mi
    7192:	f110 0f00 	cmnmi.w	r0, #0
    7196:	bd01      	pop	{r0, pc}

00007198 <__aeabi_dcmpeq>:
    7198:	f84d ed08 	str.w	lr, [sp, #-8]!
    719c:	f7ff fff4 	bl	7188 <__aeabi_cdcmpeq>
    71a0:	bf0c      	ite	eq
    71a2:	2001      	moveq	r0, #1
    71a4:	2000      	movne	r0, #0
    71a6:	f85d fb08 	ldr.w	pc, [sp], #8
    71aa:	bf00      	nop

000071ac <__aeabi_dcmplt>:
    71ac:	f84d ed08 	str.w	lr, [sp, #-8]!
    71b0:	f7ff ffea 	bl	7188 <__aeabi_cdcmpeq>
    71b4:	bf34      	ite	cc
    71b6:	2001      	movcc	r0, #1
    71b8:	2000      	movcs	r0, #0
    71ba:	f85d fb08 	ldr.w	pc, [sp], #8
    71be:	bf00      	nop

000071c0 <__aeabi_dcmple>:
    71c0:	f84d ed08 	str.w	lr, [sp, #-8]!
    71c4:	f7ff ffe0 	bl	7188 <__aeabi_cdcmpeq>
    71c8:	bf94      	ite	ls
    71ca:	2001      	movls	r0, #1
    71cc:	2000      	movhi	r0, #0
    71ce:	f85d fb08 	ldr.w	pc, [sp], #8
    71d2:	bf00      	nop

000071d4 <__aeabi_dcmpge>:
    71d4:	f84d ed08 	str.w	lr, [sp, #-8]!
    71d8:	f7ff ffce 	bl	7178 <__aeabi_cdrcmple>
    71dc:	bf94      	ite	ls
    71de:	2001      	movls	r0, #1
    71e0:	2000      	movhi	r0, #0
    71e2:	f85d fb08 	ldr.w	pc, [sp], #8
    71e6:	bf00      	nop

000071e8 <__aeabi_dcmpgt>:
    71e8:	f84d ed08 	str.w	lr, [sp, #-8]!
    71ec:	f7ff ffc4 	bl	7178 <__aeabi_cdrcmple>
    71f0:	bf34      	ite	cc
    71f2:	2001      	movcc	r0, #1
    71f4:	2000      	movcs	r0, #0
    71f6:	f85d fb08 	ldr.w	pc, [sp], #8
    71fa:	bf00      	nop

000071fc <__aeabi_d2iz>:
    71fc:	ea4f 0241 	mov.w	r2, r1, lsl #1
    7200:	f512 1200 	adds.w	r2, r2, #2097152	; 0x200000
    7204:	d215      	bcs.n	7232 <__aeabi_d2iz+0x36>
    7206:	d511      	bpl.n	722c <__aeabi_d2iz+0x30>
    7208:	f46f 7378 	mvn.w	r3, #992	; 0x3e0
    720c:	ebb3 5262 	subs.w	r2, r3, r2, asr #21
    7210:	d912      	bls.n	7238 <__aeabi_d2iz+0x3c>
    7212:	ea4f 23c1 	mov.w	r3, r1, lsl #11
    7216:	f043 4300 	orr.w	r3, r3, #2147483648	; 0x80000000
    721a:	ea43 5350 	orr.w	r3, r3, r0, lsr #21
    721e:	f011 4f00 	tst.w	r1, #2147483648	; 0x80000000
    7222:	fa23 f002 	lsr.w	r0, r3, r2
    7226:	bf18      	it	ne
    7228:	4240      	negne	r0, r0
    722a:	4770      	bx	lr
    722c:	f04f 0000 	mov.w	r0, #0
    7230:	4770      	bx	lr
    7232:	ea50 3001 	orrs.w	r0, r0, r1, lsl #12
    7236:	d105      	bne.n	7244 <__aeabi_d2iz+0x48>
    7238:	f011 4000 	ands.w	r0, r1, #2147483648	; 0x80000000
    723c:	bf08      	it	eq
    723e:	f06f 4000 	mvneq.w	r0, #2147483648	; 0x80000000
    7242:	4770      	bx	lr
    7244:	f04f 0000 	mov.w	r0, #0
    7248:	4770      	bx	lr
    724a:	bf00      	nop

0000724c <__errno>:
    724c:	f240 0340 	movw	r3, #64	; 0x40
    7250:	f2c2 0300 	movt	r3, #8192	; 0x2000
    7254:	6818      	ldr	r0, [r3, #0]
    7256:	4770      	bx	lr

00007258 <__libc_init_array>:
    7258:	b570      	push	{r4, r5, r6, lr}
    725a:	f247 568c 	movw	r6, #30092	; 0x758c
    725e:	f247 558c 	movw	r5, #30092	; 0x758c
    7262:	f2c0 0600 	movt	r6, #0
    7266:	f2c0 0500 	movt	r5, #0
    726a:	1b76      	subs	r6, r6, r5
    726c:	10b6      	asrs	r6, r6, #2
    726e:	d006      	beq.n	727e <__libc_init_array+0x26>
    7270:	2400      	movs	r4, #0
    7272:	f855 3024 	ldr.w	r3, [r5, r4, lsl #2]
    7276:	3401      	adds	r4, #1
    7278:	4798      	blx	r3
    727a:	42a6      	cmp	r6, r4
    727c:	d8f9      	bhi.n	7272 <__libc_init_array+0x1a>
    727e:	f247 558c 	movw	r5, #30092	; 0x758c
    7282:	f247 5690 	movw	r6, #30096	; 0x7590
    7286:	f2c0 0500 	movt	r5, #0
    728a:	f2c0 0600 	movt	r6, #0
    728e:	1b76      	subs	r6, r6, r5
    7290:	f000 f970 	bl	7574 <_init>
    7294:	10b6      	asrs	r6, r6, #2
    7296:	d006      	beq.n	72a6 <__libc_init_array+0x4e>
    7298:	2400      	movs	r4, #0
    729a:	f855 3024 	ldr.w	r3, [r5, r4, lsl #2]
    729e:	3401      	adds	r4, #1
    72a0:	4798      	blx	r3
    72a2:	42a6      	cmp	r6, r4
    72a4:	d8f9      	bhi.n	729a <__libc_init_array+0x42>
    72a6:	bd70      	pop	{r4, r5, r6, pc}

000072a8 <sqrt>:
    72a8:	e92d 4ff0 	stmdb	sp!, {r4, r5, r6, r7, r8, r9, sl, fp, lr}
    72ac:	b08b      	sub	sp, #44	; 0x2c
    72ae:	4606      	mov	r6, r0
    72b0:	460f      	mov	r7, r1
    72b2:	f000 f84f 	bl	7354 <__ieee754_sqrt>
    72b6:	f240 1434 	movw	r4, #308	; 0x134
    72ba:	f2c2 0400 	movt	r4, #8192	; 0x2000
    72be:	f994 3000 	ldrsb.w	r3, [r4]
    72c2:	f1b3 3fff 	cmp.w	r3, #4294967295
    72c6:	4680      	mov	r8, r0
    72c8:	4689      	mov	r9, r1
    72ca:	d031      	beq.n	7330 <sqrt+0x88>
    72cc:	4630      	mov	r0, r6
    72ce:	4639      	mov	r1, r7
    72d0:	f000 f92e 	bl	7530 <__isnand>
    72d4:	4605      	mov	r5, r0
    72d6:	2800      	cmp	r0, #0
    72d8:	d12a      	bne.n	7330 <sqrt+0x88>
    72da:	f04f 0a00 	mov.w	sl, #0
    72de:	f04f 0b00 	mov.w	fp, #0
    72e2:	4630      	mov	r0, r6
    72e4:	4639      	mov	r1, r7
    72e6:	4652      	mov	r2, sl
    72e8:	465b      	mov	r3, fp
    72ea:	f7ff ff5f 	bl	71ac <__aeabi_dcmplt>
    72ee:	b1f8      	cbz	r0, 7330 <sqrt+0x88>
    72f0:	7824      	ldrb	r4, [r4, #0]
    72f2:	f247 536c 	movw	r3, #30060	; 0x756c
    72f6:	f2c0 0300 	movt	r3, #0
    72fa:	9508      	str	r5, [sp, #32]
    72fc:	9301      	str	r3, [sp, #4]
    72fe:	2301      	movs	r3, #1
    7300:	e9cd 6702 	strd	r6, r7, [sp, #8]
    7304:	9300      	str	r3, [sp, #0]
    7306:	e9cd 6704 	strd	r6, r7, [sp, #16]
    730a:	b1b4      	cbz	r4, 733a <sqrt+0x92>
    730c:	4650      	mov	r0, sl
    730e:	4659      	mov	r1, fp
    7310:	4652      	mov	r2, sl
    7312:	465b      	mov	r3, fp
    7314:	f7ff fe02 	bl	6f1c <__aeabi_ddiv>
    7318:	2c02      	cmp	r4, #2
    731a:	e9cd 0106 	strd	r0, r1, [sp, #24]
    731e:	d10e      	bne.n	733e <sqrt+0x96>
    7320:	f7ff ff94 	bl	724c <__errno>
    7324:	2321      	movs	r3, #33	; 0x21
    7326:	6003      	str	r3, [r0, #0]
    7328:	9b08      	ldr	r3, [sp, #32]
    732a:	b973      	cbnz	r3, 734a <sqrt+0xa2>
    732c:	e9dd 8906 	ldrd	r8, r9, [sp, #24]
    7330:	4640      	mov	r0, r8
    7332:	4649      	mov	r1, r9
    7334:	b00b      	add	sp, #44	; 0x2c
    7336:	e8bd 8ff0 	ldmia.w	sp!, {r4, r5, r6, r7, r8, r9, sl, fp, pc}
    733a:	e9cd ab06 	strd	sl, fp, [sp, #24]
    733e:	4668      	mov	r0, sp
    7340:	f000 f904 	bl	754c <matherr>
    7344:	2800      	cmp	r0, #0
    7346:	d1ef      	bne.n	7328 <sqrt+0x80>
    7348:	e7ea      	b.n	7320 <sqrt+0x78>
    734a:	f7ff ff7f 	bl	724c <__errno>
    734e:	9b08      	ldr	r3, [sp, #32]
    7350:	6003      	str	r3, [r0, #0]
    7352:	e7eb      	b.n	732c <sqrt+0x84>

00007354 <__ieee754_sqrt>:
    7354:	f240 0c00 	movw	ip, #0
    7358:	460b      	mov	r3, r1
    735a:	f6c7 7cf0 	movt	ip, #32752	; 0x7ff0
    735e:	4602      	mov	r2, r0
    7360:	e92d 47f0 	stmdb	sp!, {r4, r5, r6, r7, r8, r9, sl, lr}
    7364:	4666      	mov	r6, ip
    7366:	ea01 0c0c 	and.w	ip, r1, ip
    736a:	4604      	mov	r4, r0
    736c:	45b4      	cmp	ip, r6
    736e:	460d      	mov	r5, r1
    7370:	4680      	mov	r8, r0
    7372:	4689      	mov	r9, r1
    7374:	f000 80be 	beq.w	74f4 <__ieee754_sqrt+0x1a0>
    7378:	2900      	cmp	r1, #0
    737a:	f340 808c 	ble.w	7496 <__ieee754_sqrt+0x142>
    737e:	ea5f 5821 	movs.w	r8, r1, asr #20
    7382:	f000 8096 	beq.w	74b2 <__ieee754_sqrt+0x15e>
    7386:	f5a8 787e 	sub.w	r8, r8, #1016	; 0x3f8
    738a:	f023 437f 	bic.w	r3, r3, #4278190080	; 0xff000000
    738e:	f1a8 0807 	sub.w	r8, r8, #7
    7392:	f423 0370 	bic.w	r3, r3, #15728640	; 0xf00000
    7396:	f018 0f01 	tst.w	r8, #1
    739a:	f443 1380 	orr.w	r3, r3, #1048576	; 0x100000
    739e:	d16a      	bne.n	7476 <__ieee754_sqrt+0x122>
    73a0:	0fd1      	lsrs	r1, r2, #31
    73a2:	f04f 0c00 	mov.w	ip, #0
    73a6:	eb01 0343 	add.w	r3, r1, r3, lsl #1
    73aa:	0052      	lsls	r2, r2, #1
    73ac:	4665      	mov	r5, ip
    73ae:	4660      	mov	r0, ip
    73b0:	f44f 1100 	mov.w	r1, #2097152	; 0x200000
    73b4:	1844      	adds	r4, r0, r1
    73b6:	0fd6      	lsrs	r6, r2, #31
    73b8:	0052      	lsls	r2, r2, #1
    73ba:	429c      	cmp	r4, r3
    73bc:	f10c 0c01 	add.w	ip, ip, #1
    73c0:	dc02      	bgt.n	73c8 <__ieee754_sqrt+0x74>
    73c2:	1b1b      	subs	r3, r3, r4
    73c4:	186d      	adds	r5, r5, r1
    73c6:	1860      	adds	r0, r4, r1
    73c8:	0849      	lsrs	r1, r1, #1
    73ca:	f1bc 0f16 	cmp.w	ip, #22
    73ce:	eb06 0343 	add.w	r3, r6, r3, lsl #1
    73d2:	d1ef      	bne.n	73b4 <__ieee754_sqrt+0x60>
    73d4:	2400      	movs	r4, #0
    73d6:	f04f 4100 	mov.w	r1, #2147483648	; 0x80000000
    73da:	46a2      	mov	sl, r4
    73dc:	4626      	mov	r6, r4
    73de:	e013      	b.n	7408 <__ieee754_sqrt+0xb4>
    73e0:	4283      	cmp	r3, r0
    73e2:	bf14      	ite	ne
    73e4:	2700      	movne	r7, #0
    73e6:	2701      	moveq	r7, #1
    73e8:	4594      	cmp	ip, r2
    73ea:	bf8c      	ite	hi
    73ec:	2700      	movhi	r7, #0
    73ee:	f007 0701 	andls.w	r7, r7, #1
    73f2:	b96f      	cbnz	r7, 7410 <__ieee754_sqrt+0xbc>
    73f4:	3401      	adds	r4, #1
    73f6:	4607      	mov	r7, r0
    73f8:	0849      	lsrs	r1, r1, #1
    73fa:	0fd0      	lsrs	r0, r2, #31
    73fc:	0052      	lsls	r2, r2, #1
    73fe:	2c20      	cmp	r4, #32
    7400:	eb00 0343 	add.w	r3, r0, r3, lsl #1
    7404:	d01b      	beq.n	743e <__ieee754_sqrt+0xea>
    7406:	4638      	mov	r0, r7
    7408:	4298      	cmp	r0, r3
    740a:	eb01 0c06 	add.w	ip, r1, r6
    740e:	dae7      	bge.n	73e0 <__ieee754_sqrt+0x8c>
    7410:	f00c 4700 	and.w	r7, ip, #2147483648	; 0x80000000
    7414:	eb0c 0601 	add.w	r6, ip, r1
    7418:	f1b7 4f00 	cmp.w	r7, #2147483648	; 0x80000000
    741c:	d027      	beq.n	746e <__ieee754_sqrt+0x11a>
    741e:	4607      	mov	r7, r0
    7420:	1a1b      	subs	r3, r3, r0
    7422:	4594      	cmp	ip, r2
    7424:	ebcc 0202 	rsb	r2, ip, r2
    7428:	bf88      	it	hi
    742a:	3b01      	subhi	r3, #1
    742c:	3401      	adds	r4, #1
    742e:	448a      	add	sl, r1
    7430:	0fd0      	lsrs	r0, r2, #31
    7432:	0849      	lsrs	r1, r1, #1
    7434:	0052      	lsls	r2, r2, #1
    7436:	2c20      	cmp	r4, #32
    7438:	eb00 0343 	add.w	r3, r0, r3, lsl #1
    743c:	d1e3      	bne.n	7406 <__ieee754_sqrt+0xb2>
    743e:	4313      	orrs	r3, r2
    7440:	d11e      	bne.n	7480 <__ieee754_sqrt+0x12c>
    7442:	ea4f 0a5a 	mov.w	sl, sl, lsr #1
    7446:	ea4f 0168 	mov.w	r1, r8, asr #1
    744a:	f015 0f01 	tst.w	r5, #1
    744e:	bf18      	it	ne
    7450:	f04a 4a00 	orrne.w	sl, sl, #2147483648	; 0x80000000
    7454:	0509      	lsls	r1, r1, #20
    7456:	4654      	mov	r4, sl
    7458:	f101 517e 	add.w	r1, r1, #1065353216	; 0x3f800000
    745c:	f501 01c0 	add.w	r1, r1, #6291456	; 0x600000
    7460:	eb01 0365 	add.w	r3, r1, r5, asr #1
    7464:	461d      	mov	r5, r3
    7466:	4620      	mov	r0, r4
    7468:	4629      	mov	r1, r5
    746a:	e8bd 87f0 	ldmia.w	sp!, {r4, r5, r6, r7, r8, r9, sl, pc}
    746e:	2e00      	cmp	r6, #0
    7470:	dbd5      	blt.n	741e <__ieee754_sqrt+0xca>
    7472:	1c47      	adds	r7, r0, #1
    7474:	e7d4      	b.n	7420 <__ieee754_sqrt+0xcc>
    7476:	0fd1      	lsrs	r1, r2, #31
    7478:	0052      	lsls	r2, r2, #1
    747a:	eb01 0343 	add.w	r3, r1, r3, lsl #1
    747e:	e78f      	b.n	73a0 <__ieee754_sqrt+0x4c>
    7480:	f1ba 3fff 	cmp.w	sl, #4294967295
    7484:	bf1c      	itt	ne
    7486:	f00a 0301 	andne.w	r3, sl, #1
    748a:	449a      	addne	sl, r3
    748c:	d1d9      	bne.n	7442 <__ieee754_sqrt+0xee>
    748e:	3501      	adds	r5, #1
    7490:	f04f 0a00 	mov.w	sl, #0
    7494:	e7d7      	b.n	7446 <__ieee754_sqrt+0xf2>
    7496:	f021 4c00 	bic.w	ip, r1, #2147483648	; 0x80000000
    749a:	ea5c 0c00 	orrs.w	ip, ip, r0
    749e:	d0e2      	beq.n	7466 <__ieee754_sqrt+0x112>
    74a0:	2900      	cmp	r1, #0
    74a2:	d13a      	bne.n	751a <__ieee754_sqrt+0x1c6>
    74a4:	4688      	mov	r8, r1
    74a6:	0ad3      	lsrs	r3, r2, #11
    74a8:	f1a8 0815 	sub.w	r8, r8, #21
    74ac:	0552      	lsls	r2, r2, #21
    74ae:	2b00      	cmp	r3, #0
    74b0:	d0f9      	beq.n	74a6 <__ieee754_sqrt+0x152>
    74b2:	f413 1180 	ands.w	r1, r3, #1048576	; 0x100000
    74b6:	d12d      	bne.n	7514 <__ieee754_sqrt+0x1c0>
    74b8:	005b      	lsls	r3, r3, #1
    74ba:	3101      	adds	r1, #1
    74bc:	f413 1f80 	tst.w	r3, #1048576	; 0x100000
    74c0:	d0fa      	beq.n	74b8 <__ieee754_sqrt+0x164>
    74c2:	f1c1 0020 	rsb	r0, r1, #32
    74c6:	f108 0801 	add.w	r8, r8, #1
    74ca:	fa32 f000 	lsrs.w	r0, r2, r0
    74ce:	ebc1 0808 	rsb	r8, r1, r8
    74d2:	4303      	orrs	r3, r0
    74d4:	f5a8 787e 	sub.w	r8, r8, #1016	; 0x3f8
    74d8:	408a      	lsls	r2, r1
    74da:	f1a8 0807 	sub.w	r8, r8, #7
    74de:	f023 437f 	bic.w	r3, r3, #4278190080	; 0xff000000
    74e2:	f018 0f01 	tst.w	r8, #1
    74e6:	f423 0370 	bic.w	r3, r3, #15728640	; 0xf00000
    74ea:	f443 1380 	orr.w	r3, r3, #1048576	; 0x100000
    74ee:	f43f af57 	beq.w	73a0 <__ieee754_sqrt+0x4c>
    74f2:	e7c0      	b.n	7476 <__ieee754_sqrt+0x122>
    74f4:	4602      	mov	r2, r0
    74f6:	460b      	mov	r3, r1
    74f8:	f7ff fbe6 	bl	6cc8 <__aeabi_dmul>
    74fc:	4602      	mov	r2, r0
    74fe:	460b      	mov	r3, r1
    7500:	4620      	mov	r0, r4
    7502:	4629      	mov	r1, r5
    7504:	f7ff fa2e 	bl	6964 <__adddf3>
    7508:	4604      	mov	r4, r0
    750a:	460d      	mov	r5, r1
    750c:	4620      	mov	r0, r4
    750e:	4629      	mov	r1, r5
    7510:	e8bd 87f0 	ldmia.w	sp!, {r4, r5, r6, r7, r8, r9, sl, pc}
    7514:	2020      	movs	r0, #32
    7516:	2100      	movs	r1, #0
    7518:	e7d5      	b.n	74c6 <__ieee754_sqrt+0x172>
    751a:	4602      	mov	r2, r0
    751c:	460b      	mov	r3, r1
    751e:	f7ff fa1f 	bl	6960 <__aeabi_dsub>
    7522:	4602      	mov	r2, r0
    7524:	460b      	mov	r3, r1
    7526:	f7ff fcf9 	bl	6f1c <__aeabi_ddiv>
    752a:	4604      	mov	r4, r0
    752c:	460d      	mov	r5, r1
    752e:	e79a      	b.n	7466 <__ieee754_sqrt+0x112>

00007530 <__isnand>:
    7530:	4602      	mov	r2, r0
    7532:	4240      	negs	r0, r0
    7534:	4310      	orrs	r0, r2
    7536:	f021 4100 	bic.w	r1, r1, #2147483648	; 0x80000000
    753a:	ea41 70d0 	orr.w	r0, r1, r0, lsr #31
    753e:	f1c0 40fe 	rsb	r0, r0, #2130706432	; 0x7f000000
    7542:	f500 0070 	add.w	r0, r0, #15728640	; 0xf00000
    7546:	0fc0      	lsrs	r0, r0, #31
    7548:	4770      	bx	lr
    754a:	bf00      	nop

0000754c <matherr>:
    754c:	2000      	movs	r0, #0
    754e:	4770      	bx	lr
    7550:	00000065 	.word	0x00000065
    7554:	00000072 	.word	0x00000072

00007558 <C.18.2576>:
    7558:	00000001 00000002 00000004 00000001     ................
    7568:	00000043 74727173 00000000              C...sqrt....

00007574 <_init>:
    7574:	b5f8      	push	{r3, r4, r5, r6, r7, lr}
    7576:	bf00      	nop
    7578:	bcf8      	pop	{r3, r4, r5, r6, r7}
    757a:	bc08      	pop	{r3}
    757c:	469e      	mov	lr, r3
    757e:	4770      	bx	lr

00007580 <_fini>:
    7580:	b5f8      	push	{r3, r4, r5, r6, r7, lr}
    7582:	bf00      	nop
    7584:	bcf8      	pop	{r3, r4, r5, r6, r7}
    7586:	bc08      	pop	{r3}
    7588:	469e      	mov	lr, r3
    758a:	4770      	bx	lr

0000758c <__frame_dummy_init_array_entry>:
    758c:	0485 0000                                   ....

00007590 <__do_global_dtors_aux_fini_array_entry>:
    7590:	0471 0000                                   q...
