
WhiteBoard_Plotter_MSS_CM3_0_app:     file format elf32-littlearm

Sections:
Idx Name          Size      VMA       LMA       File off  Algn
  0 .text         000029f8  20000000  20000000  00008000  2**4
                  CONTENTS, ALLOC, LOAD, READONLY, CODE
  1 .data         00000520  200029f8  200029f8  0000a9f8  2**3
                  CONTENTS, ALLOC, LOAD, DATA
  2 .bss          00000968  20002f18  20002f18  0000af18  2**3
                  ALLOC
  3 .stack        00003000  20003880  20003880  0000af18  2**0
                  ALLOC
  4 .comment      000000ac  00000000  00000000  0000af18  2**0
                  CONTENTS, READONLY
  5 .debug_aranges 000001d0  00000000  00000000  0000afc4  2**0
                  CONTENTS, READONLY, DEBUGGING
  6 .debug_pubnames 00000394  00000000  00000000  0000b194  2**0
                  CONTENTS, READONLY, DEBUGGING
  7 .debug_info   000022e9  00000000  00000000  0000b528  2**0
                  CONTENTS, READONLY, DEBUGGING
  8 .debug_abbrev 0000055c  00000000  00000000  0000d811  2**0
                  CONTENTS, READONLY, DEBUGGING
  9 .debug_line   000011de  00000000  00000000  0000dd6d  2**0
                  CONTENTS, READONLY, DEBUGGING
 10 .debug_frame  00000828  00000000  00000000  0000ef4c  2**2
                  CONTENTS, READONLY, DEBUGGING
 11 .debug_str    000018a7  00000000  00000000  0000f774  2**0
                  CONTENTS, READONLY, DEBUGGING
 12 .debug_loc    00000985  00000000  00000000  0001101b  2**0
                  CONTENTS, READONLY, DEBUGGING
 13 .debug_macinfo 00018a5a  00000000  00000000  000119a0  2**0
                  CONTENTS, READONLY, DEBUGGING
 14 .ARM.attributes 00000025  00000000  00000000  0002a3fa  2**0
                  CONTENTS, READONLY
 15 .debug_ranges 000001c8  00000000  00000000  0002a41f  2**0
                  CONTENTS, READONLY, DEBUGGING

Disassembly of section .text:

20000000 <__text_start>:
20000000:	20010000 	.word	0x20010000
20000004:	20000299 	.word	0x20000299
20000008:	20000309 	.word	0x20000309
2000000c:	2000030b 	.word	0x2000030b
20000010:	2000030d 	.word	0x2000030d
20000014:	2000030f 	.word	0x2000030f
20000018:	20000311 	.word	0x20000311
	...
2000002c:	20000313 	.word	0x20000313
20000030:	20000315 	.word	0x20000315
20000034:	00000000 	.word	0x00000000
20000038:	20000317 	.word	0x20000317
2000003c:	20000319 	.word	0x20000319
20000040:	2000031b 	.word	0x2000031b
20000044:	2000031d 	.word	0x2000031d
20000048:	2000031f 	.word	0x2000031f
2000004c:	20000321 	.word	0x20000321
20000050:	20000323 	.word	0x20000323
20000054:	20000325 	.word	0x20000325
20000058:	20000327 	.word	0x20000327
2000005c:	20000329 	.word	0x20000329
20000060:	2000032b 	.word	0x2000032b
20000064:	2000032d 	.word	0x2000032d
20000068:	2000032f 	.word	0x2000032f
2000006c:	20000331 	.word	0x20000331
20000070:	20000333 	.word	0x20000333
20000074:	20000335 	.word	0x20000335
20000078:	20000337 	.word	0x20000337
2000007c:	20000339 	.word	0x20000339
20000080:	2000033b 	.word	0x2000033b
20000084:	2000033d 	.word	0x2000033d
20000088:	2000033f 	.word	0x2000033f
2000008c:	20000341 	.word	0x20000341
20000090:	20000b29 	.word	0x20000b29
20000094:	20000345 	.word	0x20000345
20000098:	20000347 	.word	0x20000347
2000009c:	20000349 	.word	0x20000349
200000a0:	2000034b 	.word	0x2000034b
	...
200000bc:	2000034d 	.word	0x2000034d
200000c0:	2000034f 	.word	0x2000034f
200000c4:	20000351 	.word	0x20000351
200000c8:	20000353 	.word	0x20000353
200000cc:	20000355 	.word	0x20000355
200000d0:	20000357 	.word	0x20000357
200000d4:	20000359 	.word	0x20000359
200000d8:	2000035b 	.word	0x2000035b
200000dc:	2000035d 	.word	0x2000035d
200000e0:	2000035f 	.word	0x2000035f
200000e4:	20000361 	.word	0x20000361
200000e8:	20000363 	.word	0x20000363
200000ec:	20000365 	.word	0x20000365
200000f0:	20000367 	.word	0x20000367
200000f4:	20000369 	.word	0x20000369
200000f8:	2000036b 	.word	0x2000036b
200000fc:	2000036d 	.word	0x2000036d
20000100:	2000036f 	.word	0x2000036f
20000104:	20000371 	.word	0x20000371
20000108:	20000373 	.word	0x20000373
2000010c:	20000375 	.word	0x20000375
20000110:	20000377 	.word	0x20000377
20000114:	20000379 	.word	0x20000379
20000118:	2000037b 	.word	0x2000037b
2000011c:	2000037d 	.word	0x2000037d
20000120:	2000037f 	.word	0x2000037f
20000124:	20000381 	.word	0x20000381
20000128:	20000383 	.word	0x20000383
2000012c:	20000385 	.word	0x20000385
20000130:	20000387 	.word	0x20000387
20000134:	20000389 	.word	0x20000389
20000138:	2000038b 	.word	0x2000038b
2000013c:	2000038d 	.word	0x2000038d
20000140:	2000038f 	.word	0x2000038f
20000144:	20000391 	.word	0x20000391
20000148:	20000393 	.word	0x20000393
2000014c:	20000395 	.word	0x20000395
20000150:	20000397 	.word	0x20000397
20000154:	20000399 	.word	0x20000399
20000158:	2000039b 	.word	0x2000039b
2000015c:	2000039d 	.word	0x2000039d
20000160:	2000039f 	.word	0x2000039f
20000164:	200003a1 	.word	0x200003a1
20000168:	200003a3 	.word	0x200003a3
2000016c:	200003a5 	.word	0x200003a5
20000170:	200003a7 	.word	0x200003a7
20000174:	200003a9 	.word	0x200003a9
20000178:	200003ab 	.word	0x200003ab
2000017c:	200003ad 	.word	0x200003ad
20000180:	200003af 	.word	0x200003af
20000184:	200003b1 	.word	0x200003b1
20000188:	200003b3 	.word	0x200003b3
2000018c:	200003b5 	.word	0x200003b5
20000190:	200003b7 	.word	0x200003b7
20000194:	200003b9 	.word	0x200003b9
20000198:	200003bb 	.word	0x200003bb
2000019c:	200003bd 	.word	0x200003bd
200001a0:	200003bf 	.word	0x200003bf
200001a4:	200003c1 	.word	0x200003c1
200001a8:	200003c3 	.word	0x200003c3
200001ac:	200003c5 	.word	0x200003c5
200001b0:	200003c7 	.word	0x200003c7
200001b4:	200003c9 	.word	0x200003c9
200001b8:	200003cb 	.word	0x200003cb
200001bc:	200003cd 	.word	0x200003cd
200001c0:	200003cf 	.word	0x200003cf
200001c4:	200003d1 	.word	0x200003d1
200001c8:	200003d3 	.word	0x200003d3
200001cc:	200003d5 	.word	0x200003d5
200001d0:	200003d7 	.word	0x200003d7
200001d4:	200003d9 	.word	0x200003d9
200001d8:	200003db 	.word	0x200003db
200001dc:	200003dd 	.word	0x200003dd
200001e0:	200003df 	.word	0x200003df
200001e4:	200003e1 	.word	0x200003e1
200001e8:	200003e3 	.word	0x200003e3
200001ec:	200003e5 	.word	0x200003e5
200001f0:	200003e7 	.word	0x200003e7
200001f4:	200003e9 	.word	0x200003e9
200001f8:	200003eb 	.word	0x200003eb
200001fc:	200003ed 	.word	0x200003ed
20000200:	200003ef 	.word	0x200003ef
20000204:	200003f1 	.word	0x200003f1
20000208:	200003f3 	.word	0x200003f3
2000020c:	200003f5 	.word	0x200003f5
20000210:	200003f7 	.word	0x200003f7
20000214:	200003f9 	.word	0x200003f9
20000218:	200003fb 	.word	0x200003fb
2000021c:	200003fd 	.word	0x200003fd
20000220:	200003ff 	.word	0x200003ff
20000224:	20000401 	.word	0x20000401
20000228:	20000403 	.word	0x20000403
2000022c:	20000405 	.word	0x20000405
20000230:	20000407 	.word	0x20000407
20000234:	20000409 	.word	0x20000409
20000238:	2000040b 	.word	0x2000040b
2000023c:	2000040d 	.word	0x2000040d
20000240:	2000040f 	.word	0x2000040f
20000244:	20000411 	.word	0x20000411
20000248:	20000413 	.word	0x20000413
2000024c:	20000415 	.word	0x20000415
20000250:	20000417 	.word	0x20000417
20000254:	20000419 	.word	0x20000419
20000258:	2000041b 	.word	0x2000041b
2000025c:	2000041d 	.word	0x2000041d
20000260:	2000041f 	.word	0x2000041f
20000264:	20000421 	.word	0x20000421
20000268:	20000423 	.word	0x20000423
2000026c:	20000425 	.word	0x20000425
20000270:	20000427 	.word	0x20000427
20000274:	20000429 	.word	0x20000429
20000278:	2000042b 	.word	0x2000042b
2000027c:	2000042d 	.word	0x2000042d
20000280:	2000042f 	.word	0x2000042f
20000284:	20000431 	.word	0x20000431
20000288:	20000433 	.word	0x20000433
2000028c:	20000435 	.word	0x20000435
20000290:	20000437 	.word	0x20000437
20000294:	20000439 	.word	0x20000439

20000298 <Reset_Handler>:
20000298:	4868      	ldr	r0, [pc, #416]	; (2000043c <ACE_PPE_Flag31_IRQHandler+0x4>)
2000029a:	4780      	blx	r0
2000029c:	4868      	ldr	r0, [pc, #416]	; (20000440 <ACE_PPE_Flag31_IRQHandler+0x8>)
2000029e:	2800      	cmp	r0, #0
200002a0:	d10b      	bne.n	200002ba <copy_data>
200002a2:	4868      	ldr	r0, [pc, #416]	; (20000444 <ACE_PPE_Flag31_IRQHandler+0xc>)
200002a4:	4968      	ldr	r1, [pc, #416]	; (20000448 <ACE_PPE_Flag31_IRQHandler+0x10>)
200002a6:	4a69      	ldr	r2, [pc, #420]	; (2000044c <ACE_PPE_Flag31_IRQHandler+0x14>)
200002a8:	4288      	cmp	r0, r1
200002aa:	d006      	beq.n	200002ba <copy_data>

200002ac <copy_code_loop>:
200002ac:	4291      	cmp	r1, r2
200002ae:	bf1c      	itt	ne
200002b0:	f850 3b04 	ldrne.w	r3, [r0], #4
200002b4:	f841 3b04 	strne.w	r3, [r1], #4
200002b8:	d1f8      	bne.n	200002ac <copy_code_loop>

200002ba <copy_data>:
200002ba:	4865      	ldr	r0, [pc, #404]	; (20000450 <ACE_PPE_Flag31_IRQHandler+0x18>)
200002bc:	4965      	ldr	r1, [pc, #404]	; (20000454 <ACE_PPE_Flag31_IRQHandler+0x1c>)
200002be:	4a66      	ldr	r2, [pc, #408]	; (20000458 <ACE_PPE_Flag31_IRQHandler+0x20>)
200002c0:	4288      	cmp	r0, r1
200002c2:	d006      	beq.n	200002d2 <clear_bss>

200002c4 <copy_data_loop>:
200002c4:	4291      	cmp	r1, r2
200002c6:	bf1c      	itt	ne
200002c8:	f850 3b04 	ldrne.w	r3, [r0], #4
200002cc:	f841 3b04 	strne.w	r3, [r1], #4
200002d0:	d1f8      	bne.n	200002c4 <copy_data_loop>

200002d2 <clear_bss>:
200002d2:	4862      	ldr	r0, [pc, #392]	; (2000045c <ACE_PPE_Flag31_IRQHandler+0x24>)
200002d4:	4962      	ldr	r1, [pc, #392]	; (20000460 <ACE_PPE_Flag31_IRQHandler+0x28>)
200002d6:	4a63      	ldr	r2, [pc, #396]	; (20000464 <ACE_PPE_Flag31_IRQHandler+0x2c>)

200002d8 <clear_bss_loop>:
200002d8:	4291      	cmp	r1, r2
200002da:	bf18      	it	ne
200002dc:	f841 0b04 	strne.w	r0, [r1], #4
200002e0:	d1fa      	bne.n	200002d8 <clear_bss_loop>
	...

200002f0 <call_glob_ctor>:
200002f0:	f8df 0174 	ldr.w	r0, [pc, #372]	; 20000468 <ACE_PPE_Flag31_IRQHandler+0x30>
200002f4:	f20f 0e03 	addw	lr, pc, #3
200002f8:	4700      	bx	r0

200002fa <branch_to_main>:
200002fa:	f04f 0000 	mov.w	r0, #0
200002fe:	f04f 0100 	mov.w	r1, #0
20000302:	f8df f168 	ldr.w	pc, [pc, #360]	; 2000046c <ACE_PPE_Flag31_IRQHandler+0x34>

20000306 <ExitLoop>:
20000306:	e7fe      	b.n	20000306 <ExitLoop>

20000308 <NMI_Handler>:
20000308:	e7fe      	b.n	20000308 <NMI_Handler>

2000030a <HardFault_Handler>:
2000030a:	e7fe      	b.n	2000030a <HardFault_Handler>

2000030c <MemManage_Handler>:
2000030c:	e7fe      	b.n	2000030c <MemManage_Handler>

2000030e <BusFault_Handler>:
2000030e:	e7fe      	b.n	2000030e <BusFault_Handler>

20000310 <UsageFault_Handler>:
20000310:	e7fe      	b.n	20000310 <UsageFault_Handler>

20000312 <SVC_Handler>:
20000312:	e7fe      	b.n	20000312 <SVC_Handler>

20000314 <DebugMon_Handler>:
20000314:	e7fe      	b.n	20000314 <DebugMon_Handler>

20000316 <PendSV_Handler>:
20000316:	e7fe      	b.n	20000316 <PendSV_Handler>

20000318 <SysTick_Handler>:
20000318:	e7fe      	b.n	20000318 <SysTick_Handler>

2000031a <WdogWakeup_IRQHandler>:
2000031a:	e7fe      	b.n	2000031a <WdogWakeup_IRQHandler>

2000031c <BrownOut_1_5V_IRQHandler>:
2000031c:	e7fe      	b.n	2000031c <BrownOut_1_5V_IRQHandler>

2000031e <BrownOut_3_3V_IRQHandler>:
2000031e:	e7fe      	b.n	2000031e <BrownOut_3_3V_IRQHandler>

20000320 <RTC_Match_IRQHandler>:
20000320:	e7fe      	b.n	20000320 <RTC_Match_IRQHandler>

20000322 <RTCIF_Pub_IRQHandler>:
20000322:	e7fe      	b.n	20000322 <RTCIF_Pub_IRQHandler>

20000324 <EthernetMAC_IRQHandler>:
20000324:	e7fe      	b.n	20000324 <EthernetMAC_IRQHandler>

20000326 <IAP_IRQHandler>:
20000326:	e7fe      	b.n	20000326 <IAP_IRQHandler>

20000328 <ENVM0_IRQHandler>:
20000328:	e7fe      	b.n	20000328 <ENVM0_IRQHandler>

2000032a <ENVM1_IRQHandler>:
2000032a:	e7fe      	b.n	2000032a <ENVM1_IRQHandler>

2000032c <DMA_IRQHandler>:
2000032c:	e7fe      	b.n	2000032c <DMA_IRQHandler>

2000032e <UART0_IRQHandler>:
2000032e:	e7fe      	b.n	2000032e <UART0_IRQHandler>

20000330 <UART1_IRQHandler>:
20000330:	e7fe      	b.n	20000330 <UART1_IRQHandler>

20000332 <SPI0_IRQHandler>:
20000332:	e7fe      	b.n	20000332 <SPI0_IRQHandler>

20000334 <SPI1_IRQHandler>:
20000334:	e7fe      	b.n	20000334 <SPI1_IRQHandler>

20000336 <I2C0_IRQHandler>:
20000336:	e7fe      	b.n	20000336 <I2C0_IRQHandler>

20000338 <I2C0_SMBAlert_IRQHandler>:
20000338:	e7fe      	b.n	20000338 <I2C0_SMBAlert_IRQHandler>

2000033a <I2C0_SMBus_IRQHandler>:
2000033a:	e7fe      	b.n	2000033a <I2C0_SMBus_IRQHandler>

2000033c <I2C1_IRQHandler>:
2000033c:	e7fe      	b.n	2000033c <I2C1_IRQHandler>

2000033e <I2C1_SMBAlert_IRQHandler>:
2000033e:	e7fe      	b.n	2000033e <I2C1_SMBAlert_IRQHandler>

20000340 <I2C1_SMBus_IRQHandler>:
20000340:	e7fe      	b.n	20000340 <I2C1_SMBus_IRQHandler>
20000342:	e7fe      	b.n	20000342 <I2C1_SMBus_IRQHandler+0x2>

20000344 <Timer2_IRQHandler>:
20000344:	e7fe      	b.n	20000344 <Timer2_IRQHandler>

20000346 <PLL_Lock_IRQHandler>:
20000346:	e7fe      	b.n	20000346 <PLL_Lock_IRQHandler>

20000348 <PLL_LockLost_IRQHandler>:
20000348:	e7fe      	b.n	20000348 <PLL_LockLost_IRQHandler>

2000034a <CommError_IRQHandler>:
2000034a:	e7fe      	b.n	2000034a <CommError_IRQHandler>

2000034c <Fabric_IRQHandler>:
2000034c:	e7fe      	b.n	2000034c <Fabric_IRQHandler>

2000034e <GPIO0_IRQHandler>:
2000034e:	e7fe      	b.n	2000034e <GPIO0_IRQHandler>

20000350 <GPIO1_IRQHandler>:
20000350:	e7fe      	b.n	20000350 <GPIO1_IRQHandler>

20000352 <GPIO2_IRQHandler>:
20000352:	e7fe      	b.n	20000352 <GPIO2_IRQHandler>

20000354 <GPIO3_IRQHandler>:
20000354:	e7fe      	b.n	20000354 <GPIO3_IRQHandler>

20000356 <GPIO4_IRQHandler>:
20000356:	e7fe      	b.n	20000356 <GPIO4_IRQHandler>

20000358 <GPIO5_IRQHandler>:
20000358:	e7fe      	b.n	20000358 <GPIO5_IRQHandler>

2000035a <GPIO6_IRQHandler>:
2000035a:	e7fe      	b.n	2000035a <GPIO6_IRQHandler>

2000035c <GPIO7_IRQHandler>:
2000035c:	e7fe      	b.n	2000035c <GPIO7_IRQHandler>

2000035e <GPIO8_IRQHandler>:
2000035e:	e7fe      	b.n	2000035e <GPIO8_IRQHandler>

20000360 <GPIO9_IRQHandler>:
20000360:	e7fe      	b.n	20000360 <GPIO9_IRQHandler>

20000362 <GPIO10_IRQHandler>:
20000362:	e7fe      	b.n	20000362 <GPIO10_IRQHandler>

20000364 <GPIO11_IRQHandler>:
20000364:	e7fe      	b.n	20000364 <GPIO11_IRQHandler>

20000366 <GPIO12_IRQHandler>:
20000366:	e7fe      	b.n	20000366 <GPIO12_IRQHandler>

20000368 <GPIO13_IRQHandler>:
20000368:	e7fe      	b.n	20000368 <GPIO13_IRQHandler>

2000036a <GPIO14_IRQHandler>:
2000036a:	e7fe      	b.n	2000036a <GPIO14_IRQHandler>

2000036c <GPIO15_IRQHandler>:
2000036c:	e7fe      	b.n	2000036c <GPIO15_IRQHandler>

2000036e <GPIO16_IRQHandler>:
2000036e:	e7fe      	b.n	2000036e <GPIO16_IRQHandler>

20000370 <GPIO17_IRQHandler>:
20000370:	e7fe      	b.n	20000370 <GPIO17_IRQHandler>

20000372 <GPIO18_IRQHandler>:
20000372:	e7fe      	b.n	20000372 <GPIO18_IRQHandler>

20000374 <GPIO19_IRQHandler>:
20000374:	e7fe      	b.n	20000374 <GPIO19_IRQHandler>

20000376 <GPIO20_IRQHandler>:
20000376:	e7fe      	b.n	20000376 <GPIO20_IRQHandler>

20000378 <GPIO21_IRQHandler>:
20000378:	e7fe      	b.n	20000378 <GPIO21_IRQHandler>

2000037a <GPIO22_IRQHandler>:
2000037a:	e7fe      	b.n	2000037a <GPIO22_IRQHandler>

2000037c <GPIO23_IRQHandler>:
2000037c:	e7fe      	b.n	2000037c <GPIO23_IRQHandler>

2000037e <GPIO24_IRQHandler>:
2000037e:	e7fe      	b.n	2000037e <GPIO24_IRQHandler>

20000380 <GPIO25_IRQHandler>:
20000380:	e7fe      	b.n	20000380 <GPIO25_IRQHandler>

20000382 <GPIO26_IRQHandler>:
20000382:	e7fe      	b.n	20000382 <GPIO26_IRQHandler>

20000384 <GPIO27_IRQHandler>:
20000384:	e7fe      	b.n	20000384 <GPIO27_IRQHandler>

20000386 <GPIO28_IRQHandler>:
20000386:	e7fe      	b.n	20000386 <GPIO28_IRQHandler>

20000388 <GPIO29_IRQHandler>:
20000388:	e7fe      	b.n	20000388 <GPIO29_IRQHandler>

2000038a <GPIO30_IRQHandler>:
2000038a:	e7fe      	b.n	2000038a <GPIO30_IRQHandler>

2000038c <GPIO31_IRQHandler>:
2000038c:	e7fe      	b.n	2000038c <GPIO31_IRQHandler>

2000038e <ACE_PC0_Flag0_IRQHandler>:
2000038e:	e7fe      	b.n	2000038e <ACE_PC0_Flag0_IRQHandler>

20000390 <ACE_PC0_Flag1_IRQHandler>:
20000390:	e7fe      	b.n	20000390 <ACE_PC0_Flag1_IRQHandler>

20000392 <ACE_PC0_Flag2_IRQHandler>:
20000392:	e7fe      	b.n	20000392 <ACE_PC0_Flag2_IRQHandler>

20000394 <ACE_PC0_Flag3_IRQHandler>:
20000394:	e7fe      	b.n	20000394 <ACE_PC0_Flag3_IRQHandler>

20000396 <ACE_PC1_Flag0_IRQHandler>:
20000396:	e7fe      	b.n	20000396 <ACE_PC1_Flag0_IRQHandler>

20000398 <ACE_PC1_Flag1_IRQHandler>:
20000398:	e7fe      	b.n	20000398 <ACE_PC1_Flag1_IRQHandler>

2000039a <ACE_PC1_Flag2_IRQHandler>:
2000039a:	e7fe      	b.n	2000039a <ACE_PC1_Flag2_IRQHandler>

2000039c <ACE_PC1_Flag3_IRQHandler>:
2000039c:	e7fe      	b.n	2000039c <ACE_PC1_Flag3_IRQHandler>

2000039e <ACE_PC2_Flag0_IRQHandler>:
2000039e:	e7fe      	b.n	2000039e <ACE_PC2_Flag0_IRQHandler>

200003a0 <ACE_PC2_Flag1_IRQHandler>:
200003a0:	e7fe      	b.n	200003a0 <ACE_PC2_Flag1_IRQHandler>

200003a2 <ACE_PC2_Flag2_IRQHandler>:
200003a2:	e7fe      	b.n	200003a2 <ACE_PC2_Flag2_IRQHandler>

200003a4 <ACE_PC2_Flag3_IRQHandler>:
200003a4:	e7fe      	b.n	200003a4 <ACE_PC2_Flag3_IRQHandler>

200003a6 <ACE_ADC0_DataValid_IRQHandler>:
200003a6:	e7fe      	b.n	200003a6 <ACE_ADC0_DataValid_IRQHandler>

200003a8 <ACE_ADC1_DataValid_IRQHandler>:
200003a8:	e7fe      	b.n	200003a8 <ACE_ADC1_DataValid_IRQHandler>

200003aa <ACE_ADC2_DataValid_IRQHandler>:
200003aa:	e7fe      	b.n	200003aa <ACE_ADC2_DataValid_IRQHandler>

200003ac <ACE_ADC0_CalDone_IRQHandler>:
200003ac:	e7fe      	b.n	200003ac <ACE_ADC0_CalDone_IRQHandler>

200003ae <ACE_ADC1_CalDone_IRQHandler>:
200003ae:	e7fe      	b.n	200003ae <ACE_ADC1_CalDone_IRQHandler>

200003b0 <ACE_ADC2_CalDone_IRQHandler>:
200003b0:	e7fe      	b.n	200003b0 <ACE_ADC2_CalDone_IRQHandler>

200003b2 <ACE_ADC0_CalStart_IRQHandler>:
200003b2:	e7fe      	b.n	200003b2 <ACE_ADC0_CalStart_IRQHandler>

200003b4 <ACE_ADC1_CalStart_IRQHandler>:
200003b4:	e7fe      	b.n	200003b4 <ACE_ADC1_CalStart_IRQHandler>

200003b6 <ACE_ADC2_CalStart_IRQHandler>:
200003b6:	e7fe      	b.n	200003b6 <ACE_ADC2_CalStart_IRQHandler>

200003b8 <ACE_Comp0_Fall_IRQHandler>:
200003b8:	e7fe      	b.n	200003b8 <ACE_Comp0_Fall_IRQHandler>

200003ba <ACE_Comp1_Fall_IRQHandler>:
200003ba:	e7fe      	b.n	200003ba <ACE_Comp1_Fall_IRQHandler>

200003bc <ACE_Comp2_Fall_IRQHandler>:
200003bc:	e7fe      	b.n	200003bc <ACE_Comp2_Fall_IRQHandler>

200003be <ACE_Comp3_Fall_IRQHandler>:
200003be:	e7fe      	b.n	200003be <ACE_Comp3_Fall_IRQHandler>

200003c0 <ACE_Comp4_Fall_IRQHandler>:
200003c0:	e7fe      	b.n	200003c0 <ACE_Comp4_Fall_IRQHandler>

200003c2 <ACE_Comp5_Fall_IRQHandler>:
200003c2:	e7fe      	b.n	200003c2 <ACE_Comp5_Fall_IRQHandler>

200003c4 <ACE_Comp6_Fall_IRQHandler>:
200003c4:	e7fe      	b.n	200003c4 <ACE_Comp6_Fall_IRQHandler>

200003c6 <ACE_Comp7_Fall_IRQHandler>:
200003c6:	e7fe      	b.n	200003c6 <ACE_Comp7_Fall_IRQHandler>

200003c8 <ACE_Comp8_Fall_IRQHandler>:
200003c8:	e7fe      	b.n	200003c8 <ACE_Comp8_Fall_IRQHandler>

200003ca <ACE_Comp9_Fall_IRQHandler>:
200003ca:	e7fe      	b.n	200003ca <ACE_Comp9_Fall_IRQHandler>

200003cc <ACE_Comp10_Fall_IRQHandler>:
200003cc:	e7fe      	b.n	200003cc <ACE_Comp10_Fall_IRQHandler>

200003ce <ACE_Comp11_Fall_IRQHandler>:
200003ce:	e7fe      	b.n	200003ce <ACE_Comp11_Fall_IRQHandler>

200003d0 <ACE_Comp0_Rise_IRQHandler>:
200003d0:	e7fe      	b.n	200003d0 <ACE_Comp0_Rise_IRQHandler>

200003d2 <ACE_Comp1_Rise_IRQHandler>:
200003d2:	e7fe      	b.n	200003d2 <ACE_Comp1_Rise_IRQHandler>

200003d4 <ACE_Comp2_Rise_IRQHandler>:
200003d4:	e7fe      	b.n	200003d4 <ACE_Comp2_Rise_IRQHandler>

200003d6 <ACE_Comp3_Rise_IRQHandler>:
200003d6:	e7fe      	b.n	200003d6 <ACE_Comp3_Rise_IRQHandler>

200003d8 <ACE_Comp4_Rise_IRQHandler>:
200003d8:	e7fe      	b.n	200003d8 <ACE_Comp4_Rise_IRQHandler>

200003da <ACE_Comp5_Rise_IRQHandler>:
200003da:	e7fe      	b.n	200003da <ACE_Comp5_Rise_IRQHandler>

200003dc <ACE_Comp6_Rise_IRQHandler>:
200003dc:	e7fe      	b.n	200003dc <ACE_Comp6_Rise_IRQHandler>

200003de <ACE_Comp7_Rise_IRQHandler>:
200003de:	e7fe      	b.n	200003de <ACE_Comp7_Rise_IRQHandler>

200003e0 <ACE_Comp8_Rise_IRQHandler>:
200003e0:	e7fe      	b.n	200003e0 <ACE_Comp8_Rise_IRQHandler>

200003e2 <ACE_Comp9_Rise_IRQHandler>:
200003e2:	e7fe      	b.n	200003e2 <ACE_Comp9_Rise_IRQHandler>

200003e4 <ACE_Comp10_Rise_IRQHandler>:
200003e4:	e7fe      	b.n	200003e4 <ACE_Comp10_Rise_IRQHandler>

200003e6 <ACE_Comp11_Rise_IRQHandler>:
200003e6:	e7fe      	b.n	200003e6 <ACE_Comp11_Rise_IRQHandler>

200003e8 <ACE_ADC0_FifoFull_IRQHandler>:
200003e8:	e7fe      	b.n	200003e8 <ACE_ADC0_FifoFull_IRQHandler>

200003ea <ACE_ADC0_FifoAFull_IRQHandler>:
200003ea:	e7fe      	b.n	200003ea <ACE_ADC0_FifoAFull_IRQHandler>

200003ec <ACE_ADC0_FifoEmpty_IRQHandler>:
200003ec:	e7fe      	b.n	200003ec <ACE_ADC0_FifoEmpty_IRQHandler>

200003ee <ACE_ADC1_FifoFull_IRQHandler>:
200003ee:	e7fe      	b.n	200003ee <ACE_ADC1_FifoFull_IRQHandler>

200003f0 <ACE_ADC1_FifoAFull_IRQHandler>:
200003f0:	e7fe      	b.n	200003f0 <ACE_ADC1_FifoAFull_IRQHandler>

200003f2 <ACE_ADC1_FifoEmpty_IRQHandler>:
200003f2:	e7fe      	b.n	200003f2 <ACE_ADC1_FifoEmpty_IRQHandler>

200003f4 <ACE_ADC2_FifoFull_IRQHandler>:
200003f4:	e7fe      	b.n	200003f4 <ACE_ADC2_FifoFull_IRQHandler>

200003f6 <ACE_ADC2_FifoAFull_IRQHandler>:
200003f6:	e7fe      	b.n	200003f6 <ACE_ADC2_FifoAFull_IRQHandler>

200003f8 <ACE_ADC2_FifoEmpty_IRQHandler>:
200003f8:	e7fe      	b.n	200003f8 <ACE_ADC2_FifoEmpty_IRQHandler>

200003fa <ACE_PPE_Flag0_IRQHandler>:
200003fa:	e7fe      	b.n	200003fa <ACE_PPE_Flag0_IRQHandler>

200003fc <ACE_PPE_Flag1_IRQHandler>:
200003fc:	e7fe      	b.n	200003fc <ACE_PPE_Flag1_IRQHandler>

200003fe <ACE_PPE_Flag2_IRQHandler>:
200003fe:	e7fe      	b.n	200003fe <ACE_PPE_Flag2_IRQHandler>

20000400 <ACE_PPE_Flag3_IRQHandler>:
20000400:	e7fe      	b.n	20000400 <ACE_PPE_Flag3_IRQHandler>

20000402 <ACE_PPE_Flag4_IRQHandler>:
20000402:	e7fe      	b.n	20000402 <ACE_PPE_Flag4_IRQHandler>

20000404 <ACE_PPE_Flag5_IRQHandler>:
20000404:	e7fe      	b.n	20000404 <ACE_PPE_Flag5_IRQHandler>

20000406 <ACE_PPE_Flag6_IRQHandler>:
20000406:	e7fe      	b.n	20000406 <ACE_PPE_Flag6_IRQHandler>

20000408 <ACE_PPE_Flag7_IRQHandler>:
20000408:	e7fe      	b.n	20000408 <ACE_PPE_Flag7_IRQHandler>

2000040a <ACE_PPE_Flag8_IRQHandler>:
2000040a:	e7fe      	b.n	2000040a <ACE_PPE_Flag8_IRQHandler>

2000040c <ACE_PPE_Flag9_IRQHandler>:
2000040c:	e7fe      	b.n	2000040c <ACE_PPE_Flag9_IRQHandler>

2000040e <ACE_PPE_Flag10_IRQHandler>:
2000040e:	e7fe      	b.n	2000040e <ACE_PPE_Flag10_IRQHandler>

20000410 <ACE_PPE_Flag11_IRQHandler>:
20000410:	e7fe      	b.n	20000410 <ACE_PPE_Flag11_IRQHandler>

20000412 <ACE_PPE_Flag12_IRQHandler>:
20000412:	e7fe      	b.n	20000412 <ACE_PPE_Flag12_IRQHandler>

20000414 <ACE_PPE_Flag13_IRQHandler>:
20000414:	e7fe      	b.n	20000414 <ACE_PPE_Flag13_IRQHandler>

20000416 <ACE_PPE_Flag14_IRQHandler>:
20000416:	e7fe      	b.n	20000416 <ACE_PPE_Flag14_IRQHandler>

20000418 <ACE_PPE_Flag15_IRQHandler>:
20000418:	e7fe      	b.n	20000418 <ACE_PPE_Flag15_IRQHandler>

2000041a <ACE_PPE_Flag16_IRQHandler>:
2000041a:	e7fe      	b.n	2000041a <ACE_PPE_Flag16_IRQHandler>

2000041c <ACE_PPE_Flag17_IRQHandler>:
2000041c:	e7fe      	b.n	2000041c <ACE_PPE_Flag17_IRQHandler>

2000041e <ACE_PPE_Flag18_IRQHandler>:
2000041e:	e7fe      	b.n	2000041e <ACE_PPE_Flag18_IRQHandler>

20000420 <ACE_PPE_Flag19_IRQHandler>:
20000420:	e7fe      	b.n	20000420 <ACE_PPE_Flag19_IRQHandler>

20000422 <ACE_PPE_Flag20_IRQHandler>:
20000422:	e7fe      	b.n	20000422 <ACE_PPE_Flag20_IRQHandler>

20000424 <ACE_PPE_Flag21_IRQHandler>:
20000424:	e7fe      	b.n	20000424 <ACE_PPE_Flag21_IRQHandler>

20000426 <ACE_PPE_Flag22_IRQHandler>:
20000426:	e7fe      	b.n	20000426 <ACE_PPE_Flag22_IRQHandler>

20000428 <ACE_PPE_Flag23_IRQHandler>:
20000428:	e7fe      	b.n	20000428 <ACE_PPE_Flag23_IRQHandler>

2000042a <ACE_PPE_Flag24_IRQHandler>:
2000042a:	e7fe      	b.n	2000042a <ACE_PPE_Flag24_IRQHandler>

2000042c <ACE_PPE_Flag25_IRQHandler>:
2000042c:	e7fe      	b.n	2000042c <ACE_PPE_Flag25_IRQHandler>

2000042e <ACE_PPE_Flag26_IRQHandler>:
2000042e:	e7fe      	b.n	2000042e <ACE_PPE_Flag26_IRQHandler>

20000430 <ACE_PPE_Flag27_IRQHandler>:
20000430:	e7fe      	b.n	20000430 <ACE_PPE_Flag27_IRQHandler>

20000432 <ACE_PPE_Flag28_IRQHandler>:
20000432:	e7fe      	b.n	20000432 <ACE_PPE_Flag28_IRQHandler>

20000434 <ACE_PPE_Flag29_IRQHandler>:
20000434:	e7fe      	b.n	20000434 <ACE_PPE_Flag29_IRQHandler>

20000436 <ACE_PPE_Flag30_IRQHandler>:
20000436:	e7fe      	b.n	20000436 <ACE_PPE_Flag30_IRQHandler>

20000438 <ACE_PPE_Flag31_IRQHandler>:
20000438:	e7fe      	b.n	20000438 <ACE_PPE_Flag31_IRQHandler>
2000043a:	0000      	.short	0x0000
2000043c:	20001561 	.word	0x20001561
20000440:	00000000 	.word	0x00000000
20000444:	20000000 	.word	0x20000000
20000448:	20000000 	.word	0x20000000
2000044c:	200029f8 	.word	0x200029f8
20000450:	200029f8 	.word	0x200029f8
20000454:	200029f8 	.word	0x200029f8
20000458:	20002f18 	.word	0x20002f18
2000045c:	00000000 	.word	0x00000000
20000460:	20002f18 	.word	0x20002f18
20000464:	20003880 	.word	0x20003880
20000468:	20001e5d 	.word	0x20001e5d
2000046c:	20001351 	.word	0x20001351

20000470 <__do_global_dtors_aux>:
20000470:	f642 7318 	movw	r3, #12056	; 0x2f18
20000474:	f2c2 0300 	movt	r3, #8192	; 0x2000
20000478:	781a      	ldrb	r2, [r3, #0]
2000047a:	b90a      	cbnz	r2, 20000480 <__do_global_dtors_aux+0x10>
2000047c:	2001      	movs	r0, #1
2000047e:	7018      	strb	r0, [r3, #0]
20000480:	4770      	bx	lr
20000482:	bf00      	nop

20000484 <frame_dummy>:
20000484:	f642 10f8 	movw	r0, #10744	; 0x29f8
20000488:	f2c2 0000 	movt	r0, #8192	; 0x2000
2000048c:	b508      	push	{r3, lr}
2000048e:	6803      	ldr	r3, [r0, #0]
20000490:	b12b      	cbz	r3, 2000049e <frame_dummy+0x1a>
20000492:	f240 0300 	movw	r3, #0
20000496:	f2c0 0300 	movt	r3, #0
2000049a:	b103      	cbz	r3, 2000049e <frame_dummy+0x1a>
2000049c:	4798      	blx	r3
2000049e:	bd08      	pop	{r3, pc}

200004a0 <NVIC_EnableIRQ>:
 *
 * Enable a device specific interupt in the NVIC interrupt controller.
 * The interrupt number cannot be a negative value.
 */
static __INLINE void NVIC_EnableIRQ(IRQn_Type IRQn)
{
200004a0:	b480      	push	{r7}
200004a2:	b083      	sub	sp, #12
200004a4:	af00      	add	r7, sp, #0
200004a6:	4603      	mov	r3, r0
200004a8:	80fb      	strh	r3, [r7, #6]
  NVIC->ISER[((uint32_t)(IRQn) >> 5)] = (1 << ((uint32_t)(IRQn) & 0x1F)); /* enable interrupt */
200004aa:	f24e 1300 	movw	r3, #57600	; 0xe100
200004ae:	f2ce 0300 	movt	r3, #57344	; 0xe000
200004b2:	f9b7 2006 	ldrsh.w	r2, [r7, #6]
200004b6:	ea4f 1252 	mov.w	r2, r2, lsr #5
200004ba:	88f9      	ldrh	r1, [r7, #6]
200004bc:	f001 011f 	and.w	r1, r1, #31
200004c0:	f04f 0001 	mov.w	r0, #1
200004c4:	fa00 f101 	lsl.w	r1, r0, r1
200004c8:	f843 1022 	str.w	r1, [r3, r2, lsl #2]
}
200004cc:	f107 070c 	add.w	r7, r7, #12
200004d0:	46bd      	mov	sp, r7
200004d2:	bc80      	pop	{r7}
200004d4:	4770      	bx	lr
200004d6:	bf00      	nop

200004d8 <NVIC_DisableIRQ>:
 * 
 * Disable a device specific interupt in the NVIC interrupt controller.
 * The interrupt number cannot be a negative value.
 */
static __INLINE void NVIC_DisableIRQ(IRQn_Type IRQn)
{
200004d8:	b480      	push	{r7}
200004da:	b083      	sub	sp, #12
200004dc:	af00      	add	r7, sp, #0
200004de:	4603      	mov	r3, r0
200004e0:	80fb      	strh	r3, [r7, #6]
  NVIC->ICER[((uint32_t)(IRQn) >> 5)] = (1 << ((uint32_t)(IRQn) & 0x1F)); /* disable interrupt */
200004e2:	f24e 1300 	movw	r3, #57600	; 0xe100
200004e6:	f2ce 0300 	movt	r3, #57344	; 0xe000
200004ea:	f9b7 2006 	ldrsh.w	r2, [r7, #6]
200004ee:	ea4f 1252 	mov.w	r2, r2, lsr #5
200004f2:	88f9      	ldrh	r1, [r7, #6]
200004f4:	f001 011f 	and.w	r1, r1, #31
200004f8:	f04f 0001 	mov.w	r0, #1
200004fc:	fa00 f101 	lsl.w	r1, r0, r1
20000500:	f102 0220 	add.w	r2, r2, #32
20000504:	f843 1022 	str.w	r1, [r3, r2, lsl #2]
}
20000508:	f107 070c 	add.w	r7, r7, #12
2000050c:	46bd      	mov	sp, r7
2000050e:	bc80      	pop	{r7}
20000510:	4770      	bx	lr
20000512:	bf00      	nop

20000514 <NVIC_ClearPendingIRQ>:
 *
 * Clear the pending bit for the specified interrupt. 
 * The interrupt number cannot be a negative value.
 */
static __INLINE void NVIC_ClearPendingIRQ(IRQn_Type IRQn)
{
20000514:	b480      	push	{r7}
20000516:	b083      	sub	sp, #12
20000518:	af00      	add	r7, sp, #0
2000051a:	4603      	mov	r3, r0
2000051c:	80fb      	strh	r3, [r7, #6]
  NVIC->ICPR[((uint32_t)(IRQn) >> 5)] = (1 << ((uint32_t)(IRQn) & 0x1F)); /* Clear pending interrupt */
2000051e:	f24e 1300 	movw	r3, #57600	; 0xe100
20000522:	f2ce 0300 	movt	r3, #57344	; 0xe000
20000526:	f9b7 2006 	ldrsh.w	r2, [r7, #6]
2000052a:	ea4f 1252 	mov.w	r2, r2, lsr #5
2000052e:	88f9      	ldrh	r1, [r7, #6]
20000530:	f001 011f 	and.w	r1, r1, #31
20000534:	f04f 0001 	mov.w	r0, #1
20000538:	fa00 f101 	lsl.w	r1, r0, r1
2000053c:	f102 0260 	add.w	r2, r2, #96	; 0x60
20000540:	f843 1022 	str.w	r1, [r3, r2, lsl #2]
}
20000544:	f107 070c 	add.w	r7, r7, #12
20000548:	46bd      	mov	sp, r7
2000054a:	bc80      	pop	{r7}
2000054c:	4770      	bx	lr
2000054e:	bf00      	nop

20000550 <MSS_TIM1_init>:
    one-shot mode. Allowed values for this parameter are:
        - MSS_TIMER_PERIODIC_MODE
        - MSS_TIMER_ONE_SHOT_MODE
 */
static __INLINE void MSS_TIM1_init( mss_timer_mode_t mode )
{
20000550:	b580      	push	{r7, lr}
20000552:	b082      	sub	sp, #8
20000554:	af00      	add	r7, sp, #0
20000556:	4603      	mov	r3, r0
20000558:	71fb      	strb	r3, [r7, #7]
    NVIC_DisableIRQ( Timer1_IRQn );             /* Disable timer 1 irq in the Cortex-M3 NVIC */  
2000055a:	f04f 0014 	mov.w	r0, #20
2000055e:	f7ff ffbb 	bl	200004d8 <NVIC_DisableIRQ>
    
    SYSREG->SOFT_RST_CR &= ~SYSREG_TIMER_SOFTRESET_MASK; /* Take timer block out of reset */
20000562:	f242 0300 	movw	r3, #8192	; 0x2000
20000566:	f2ce 0304 	movt	r3, #57348	; 0xe004
2000056a:	f242 0200 	movw	r2, #8192	; 0x2000
2000056e:	f2ce 0204 	movt	r2, #57348	; 0xe004
20000572:	6b12      	ldr	r2, [r2, #48]	; 0x30
20000574:	f022 0240 	bic.w	r2, r2, #64	; 0x40
20000578:	631a      	str	r2, [r3, #48]	; 0x30
    
    TIMER->TIM64_MODE = 0U;                     /* switch to 32 bits mode */
2000057a:	f245 0300 	movw	r3, #20480	; 0x5000
2000057e:	f2c4 0300 	movt	r3, #16384	; 0x4000
20000582:	f04f 0200 	mov.w	r2, #0
20000586:	655a      	str	r2, [r3, #84]	; 0x54
    
    TIMER_BITBAND->TIM1ENABLE = 0U;             /* disable timer */
20000588:	f240 0300 	movw	r3, #0
2000058c:	f2c4 230a 	movt	r3, #16906	; 0x420a
20000590:	f04f 0200 	mov.w	r2, #0
20000594:	f8c3 2180 	str.w	r2, [r3, #384]	; 0x180
    TIMER_BITBAND->TIM1INTEN = 0U;              /* disable interrupt */
20000598:	f240 0300 	movw	r3, #0
2000059c:	f2c4 230a 	movt	r3, #16906	; 0x420a
200005a0:	f04f 0200 	mov.w	r2, #0
200005a4:	f8c3 2188 	str.w	r2, [r3, #392]	; 0x188
    TIMER_BITBAND->TIM1MODE = (uint32_t)mode;   /* set mode (continuous/one-shot) */
200005a8:	f240 0300 	movw	r3, #0
200005ac:	f2c4 230a 	movt	r3, #16906	; 0x420a
200005b0:	79fa      	ldrb	r2, [r7, #7]
200005b2:	f8c3 2184 	str.w	r2, [r3, #388]	; 0x184
    
    TIMER->TIM1_RIS = 1U;                       /* clear timer 1 interrupt */
200005b6:	f245 0300 	movw	r3, #20480	; 0x5000
200005ba:	f2c4 0300 	movt	r3, #16384	; 0x4000
200005be:	f04f 0201 	mov.w	r2, #1
200005c2:	611a      	str	r2, [r3, #16]
    NVIC_ClearPendingIRQ( Timer1_IRQn );        /* clear timer 1 interrupt within NVIC */
200005c4:	f04f 0014 	mov.w	r0, #20
200005c8:	f7ff ffa4 	bl	20000514 <NVIC_ClearPendingIRQ>
}
200005cc:	f107 0708 	add.w	r7, r7, #8
200005d0:	46bd      	mov	sp, r7
200005d2:	bd80      	pop	{r7, pc}

200005d4 <MSS_TIM1_start>:
  MSS_TIM1_load_immediate() or MSS_TIM1_load_background() functions. 
  Note: The MSS_TIM1_start() function is also used to resume the down-counter
        if previously stopped using MSS_TIM1_stop() function.
 */
static __INLINE void MSS_TIM1_start( void )
{
200005d4:	b480      	push	{r7}
200005d6:	af00      	add	r7, sp, #0
    TIMER_BITBAND->TIM1ENABLE = 1U;    /* enable timer */
200005d8:	f240 0300 	movw	r3, #0
200005dc:	f2c4 230a 	movt	r3, #16906	; 0x420a
200005e0:	f04f 0201 	mov.w	r2, #1
200005e4:	f8c3 2180 	str.w	r2, [r3, #384]	; 0x180
}
200005e8:	46bd      	mov	sp, r7
200005ea:	bc80      	pop	{r7}
200005ec:	4770      	bx	lr
200005ee:	bf00      	nop

200005f0 <MSS_TIM1_load_immediate>:
  @param load_value
    The load_value parameter specifies the value from which the Timer 1 
    down-counter will start decrementing.
 */
static __INLINE void MSS_TIM1_load_immediate( uint32_t load_value )
{
200005f0:	b480      	push	{r7}
200005f2:	b083      	sub	sp, #12
200005f4:	af00      	add	r7, sp, #0
200005f6:	6078      	str	r0, [r7, #4]
    TIMER->TIM1_LOADVAL = load_value;
200005f8:	f245 0300 	movw	r3, #20480	; 0x5000
200005fc:	f2c4 0300 	movt	r3, #16384	; 0x4000
20000600:	687a      	ldr	r2, [r7, #4]
20000602:	605a      	str	r2, [r3, #4]
}
20000604:	f107 070c 	add.w	r7, r7, #12
20000608:	46bd      	mov	sp, r7
2000060a:	bc80      	pop	{r7}
2000060c:	4770      	bx	lr
2000060e:	bf00      	nop

20000610 <MSS_TIM1_enable_irq>:
  weak linkage, in the SmartFusion CMSIS-PAL. You must provide your own
  implementation of the Timer1_IRQHandler() function, that will override the
  default implementation, to suit your application.
 */
static __INLINE void MSS_TIM1_enable_irq( void )
{
20000610:	b580      	push	{r7, lr}
20000612:	af00      	add	r7, sp, #0
    TIMER_BITBAND->TIM1INTEN = 1U;
20000614:	f240 0300 	movw	r3, #0
20000618:	f2c4 230a 	movt	r3, #16906	; 0x420a
2000061c:	f04f 0201 	mov.w	r2, #1
20000620:	f8c3 2188 	str.w	r2, [r3, #392]	; 0x188
    NVIC_EnableIRQ( Timer1_IRQn );
20000624:	f04f 0014 	mov.w	r0, #20
20000628:	f7ff ff3a 	bl	200004a0 <NVIC_EnableIRQ>
}
2000062c:	bd80      	pop	{r7, pc}
2000062e:	bf00      	nop

20000630 <MSS_TIM1_clear_irq>:
  implementation of the Timer1_IRQHandler() Timer 1 interrupt service routine
  (ISR) in order to prevent the same interrupt event retriggering a call to the
  ISR.
 */
static __INLINE void MSS_TIM1_clear_irq( void )
{
20000630:	b480      	push	{r7}
20000632:	af00      	add	r7, sp, #0
    TIMER->TIM1_RIS = 1U;
20000634:	f245 0300 	movw	r3, #20480	; 0x5000
20000638:	f2c4 0300 	movt	r3, #16384	; 0x4000
2000063c:	f04f 0201 	mov.w	r2, #1
20000640:	611a      	str	r2, [r3, #16]
    /*
      To ensure all the previous instructions are completed, data barrier 
      instruction is used. The “dsb” data barriers instruction completes,
      only after all the previous instruction are completed. 
     */
    __ASM volatile ("dsb");
20000642:	f3bf 8f4f 	dsb	sy
}
20000646:	46bd      	mov	sp, r7
20000648:	bc80      	pop	{r7}
2000064a:	4770      	bx	lr

2000064c <calculateSquaredDistance>:
struct DrawPoint drawnPoints[RECEIVEDBUFFERSIZE / DISCRETIZESTEP];

enum side{LEFT, RIGHT};

//Pythagoras thm: NOTE!! RETURNS c^2 since calculating motor direction only compares two distances, not their true distances
double calculateSquaredDistance(double oneX, double oneY, double twoX, double twoY) {
2000064c:	b5b0      	push	{r4, r5, r7, lr}
2000064e:	b084      	sub	sp, #16
20000650:	af00      	add	r7, sp, #0
20000652:	e9c7 0102 	strd	r0, r1, [r7, #8]
20000656:	e9c7 2300 	strd	r2, r3, [r7]
	return pow(twoX - oneX, 2) + pow(twoY - oneY, 2);
2000065a:	e9d7 0108 	ldrd	r0, r1, [r7, #32]
2000065e:	e9d7 2302 	ldrd	r2, r3, [r7, #8]
20000662:	f000 ff87 	bl	20001574 <__aeabi_dsub>
20000666:	4602      	mov	r2, r0
20000668:	460b      	mov	r3, r1
2000066a:	4610      	mov	r0, r2
2000066c:	4619      	mov	r1, r3
2000066e:	f001 f935 	bl	200018dc <__aeabi_dmul>
20000672:	4602      	mov	r2, r0
20000674:	460b      	mov	r3, r1
20000676:	4614      	mov	r4, r2
20000678:	461d      	mov	r5, r3
2000067a:	e9d7 010a 	ldrd	r0, r1, [r7, #40]	; 0x28
2000067e:	e9d7 2300 	ldrd	r2, r3, [r7]
20000682:	f000 ff77 	bl	20001574 <__aeabi_dsub>
20000686:	4602      	mov	r2, r0
20000688:	460b      	mov	r3, r1
2000068a:	4610      	mov	r0, r2
2000068c:	4619      	mov	r1, r3
2000068e:	f001 f925 	bl	200018dc <__aeabi_dmul>
20000692:	4602      	mov	r2, r0
20000694:	460b      	mov	r3, r1
20000696:	4620      	mov	r0, r4
20000698:	4629      	mov	r1, r5
2000069a:	f000 ff6d 	bl	20001578 <__adddf3>
2000069e:	4602      	mov	r2, r0
200006a0:	460b      	mov	r3, r1
}
200006a2:	4610      	mov	r0, r2
200006a4:	4619      	mov	r1, r3
200006a6:	f107 0710 	add.w	r7, r7, #16
200006aa:	46bd      	mov	sp, r7
200006ac:	bdb0      	pop	{r4, r5, r7, pc}
200006ae:	bf00      	nop

200006b0 <calculateMotorDir>:

int calculateMotorDir(double currentX, double currentY, double targetX, double targetY, int side) {
200006b0:	b5f0      	push	{r4, r5, r6, r7, lr}
200006b2:	b089      	sub	sp, #36	; 0x24
200006b4:	af04      	add	r7, sp, #16
200006b6:	e9c7 0102 	strd	r0, r1, [r7, #8]
200006ba:	e9c7 2300 	strd	r2, r3, [r7]
	//If right motor
	if(side) {
200006be:	6bbb      	ldr	r3, [r7, #56]	; 0x38
200006c0:	2b00      	cmp	r3, #0
200006c2:	d03b      	beq.n	2000073c <calculateMotorDir+0x8c>
		//If current radius is more than final radius, then right motor needs to spin CW
		if(calculateSquaredDistance(currentX, currentY, BOARDWIDTH, 0.0) >
200006c4:	a33e      	add	r3, pc, #248	; (adr r3, 200007c0 <calculateMotorDir+0x110>)
200006c6:	e9d3 2300 	ldrd	r2, r3, [r3]
200006ca:	e9cd 2300 	strd	r2, r3, [sp]
200006ce:	f04f 0200 	mov.w	r2, #0
200006d2:	f04f 0300 	mov.w	r3, #0
200006d6:	e9cd 2302 	strd	r2, r3, [sp, #8]
200006da:	e9d7 0102 	ldrd	r0, r1, [r7, #8]
200006de:	e9d7 2300 	ldrd	r2, r3, [r7]
200006e2:	f7ff ffb3 	bl	2000064c <calculateSquaredDistance>
200006e6:	4604      	mov	r4, r0
200006e8:	460d      	mov	r5, r1
200006ea:	a335      	add	r3, pc, #212	; (adr r3, 200007c0 <calculateMotorDir+0x110>)
200006ec:	e9d3 2300 	ldrd	r2, r3, [r3]
200006f0:	e9cd 2300 	strd	r2, r3, [sp]
200006f4:	f04f 0200 	mov.w	r2, #0
200006f8:	f04f 0300 	mov.w	r3, #0
200006fc:	e9cd 2302 	strd	r2, r3, [sp, #8]
20000700:	e9d7 010a 	ldrd	r0, r1, [r7, #40]	; 0x28
20000704:	e9d7 230c 	ldrd	r2, r3, [r7, #48]	; 0x30
20000708:	f7ff ffa0 	bl	2000064c <calculateSquaredDistance>
2000070c:	4602      	mov	r2, r0
2000070e:	460b      	mov	r3, r1
20000710:	f04f 0100 	mov.w	r1, #0
20000714:	460e      	mov	r6, r1
20000716:	4620      	mov	r0, r4
20000718:	4629      	mov	r1, r5
2000071a:	f001 fb6f 	bl	20001dfc <__aeabi_dcmpgt>
2000071e:	4603      	mov	r3, r0
20000720:	2b00      	cmp	r3, #0
20000722:	d002      	beq.n	2000072a <calculateMotorDir+0x7a>
20000724:	f04f 0301 	mov.w	r3, #1
20000728:	461e      	mov	r6, r3
2000072a:	b2f3      	uxtb	r3, r6
2000072c:	2b00      	cmp	r3, #0
2000072e:	d002      	beq.n	20000736 <calculateMotorDir+0x86>
			calculateSquaredDistance(targetX, targetY, BOARDWIDTH, 0.0)) {
			return CW;
20000730:	f04f 0302 	mov.w	r3, #2
20000734:	e03f      	b.n	200007b6 <calculateMotorDir+0x106>
		}
		else {
			return CCW;
20000736:	f04f 0301 	mov.w	r3, #1
2000073a:	e03c      	b.n	200007b6 <calculateMotorDir+0x106>
		}
	}
	//If left motor
	else {
		//If current radius is more than final radius, then left motor needs to spin CCW
		if(calculateSquaredDistance(currentX, currentY, 0.0, 0.0) >
2000073c:	f04f 0200 	mov.w	r2, #0
20000740:	f04f 0300 	mov.w	r3, #0
20000744:	e9cd 2300 	strd	r2, r3, [sp]
20000748:	f04f 0200 	mov.w	r2, #0
2000074c:	f04f 0300 	mov.w	r3, #0
20000750:	e9cd 2302 	strd	r2, r3, [sp, #8]
20000754:	e9d7 0102 	ldrd	r0, r1, [r7, #8]
20000758:	e9d7 2300 	ldrd	r2, r3, [r7]
2000075c:	f7ff ff76 	bl	2000064c <calculateSquaredDistance>
20000760:	4604      	mov	r4, r0
20000762:	460d      	mov	r5, r1
20000764:	f04f 0200 	mov.w	r2, #0
20000768:	f04f 0300 	mov.w	r3, #0
2000076c:	e9cd 2300 	strd	r2, r3, [sp]
20000770:	f04f 0200 	mov.w	r2, #0
20000774:	f04f 0300 	mov.w	r3, #0
20000778:	e9cd 2302 	strd	r2, r3, [sp, #8]
2000077c:	e9d7 010a 	ldrd	r0, r1, [r7, #40]	; 0x28
20000780:	e9d7 230c 	ldrd	r2, r3, [r7, #48]	; 0x30
20000784:	f7ff ff62 	bl	2000064c <calculateSquaredDistance>
20000788:	4602      	mov	r2, r0
2000078a:	460b      	mov	r3, r1
2000078c:	f04f 0100 	mov.w	r1, #0
20000790:	460e      	mov	r6, r1
20000792:	4620      	mov	r0, r4
20000794:	4629      	mov	r1, r5
20000796:	f001 fb31 	bl	20001dfc <__aeabi_dcmpgt>
2000079a:	4603      	mov	r3, r0
2000079c:	2b00      	cmp	r3, #0
2000079e:	d002      	beq.n	200007a6 <calculateMotorDir+0xf6>
200007a0:	f04f 0301 	mov.w	r3, #1
200007a4:	461e      	mov	r6, r3
200007a6:	b2f3      	uxtb	r3, r6
200007a8:	2b00      	cmp	r3, #0
200007aa:	d002      	beq.n	200007b2 <calculateMotorDir+0x102>
			calculateSquaredDistance(targetX, targetY, 0.0, 0.0)) {
			return CCW;
200007ac:	f04f 0301 	mov.w	r3, #1
200007b0:	e001      	b.n	200007b6 <calculateMotorDir+0x106>
		}
		else {
			return CW;
200007b2:	f04f 0302 	mov.w	r3, #2
		}
	}
	return -1;	//Should never be here
}
200007b6:	4618      	mov	r0, r3
200007b8:	f107 0714 	add.w	r7, r7, #20
200007bc:	46bd      	mov	sp, r7
200007be:	bdf0      	pop	{r4, r5, r6, r7, pc}
200007c0:	e147ae14 	.word	0xe147ae14
200007c4:	4054f47a 	.word	0x4054f47a

200007c8 <start_hardware_timer>:
timer_tt *root = NULL;
int dirLeft = CCW;
int dirRight = CW;

//used to initialize hardware
void start_hardware_timer(){
200007c8:	b580      	push	{r7, lr}
200007ca:	af00      	add	r7, sp, #0
	// mode == 1 One shot mode == 0 continuous
	MSS_TIM1_init(MSS_TIMER_PERIODIC_MODE);
200007cc:	f04f 0000 	mov.w	r0, #0
200007d0:	f7ff febe 	bl	20000550 <MSS_TIM1_init>

	MSS_TIM1_load_immediate(root->period);
200007d4:	f642 731c 	movw	r3, #12060	; 0x2f1c
200007d8:	f2c2 0300 	movt	r3, #8192	; 0x2000
200007dc:	681b      	ldr	r3, [r3, #0]
200007de:	689b      	ldr	r3, [r3, #8]
200007e0:	4618      	mov	r0, r3
200007e2:	f7ff ff05 	bl	200005f0 <MSS_TIM1_load_immediate>
	MSS_TIM1_start();
200007e6:	f7ff fef5 	bl	200005d4 <MSS_TIM1_start>
	MSS_TIM1_enable_irq();
200007ea:	f7ff ff11 	bl	20000610 <MSS_TIM1_enable_irq>
}
200007ee:	bd80      	pop	{r7, pc}

200007f0 <insert_timer>:

void insert_timer(timer_tt* newtimer){
200007f0:	b480      	push	{r7}
200007f2:	b085      	sub	sp, #20
200007f4:	af00      	add	r7, sp, #0
200007f6:	6078      	str	r0, [r7, #4]

	if(root == NULL){
200007f8:	f642 731c 	movw	r3, #12060	; 0x2f1c
200007fc:	f2c2 0300 	movt	r3, #8192	; 0x2000
20000800:	681b      	ldr	r3, [r3, #0]
20000802:	2b00      	cmp	r3, #0
20000804:	d106      	bne.n	20000814 <insert_timer+0x24>
		root = newtimer;
20000806:	f642 731c 	movw	r3, #12060	; 0x2f1c
2000080a:	f2c2 0300 	movt	r3, #8192	; 0x2000
2000080e:	687a      	ldr	r2, [r7, #4]
20000810:	601a      	str	r2, [r3, #0]
		return;
20000812:	e03a      	b.n	2000088a <insert_timer+0x9a>
	}

	timer_tt* curr = root;
20000814:	f642 731c 	movw	r3, #12060	; 0x2f1c
20000818:	f2c2 0300 	movt	r3, #8192	; 0x2000
2000081c:	681b      	ldr	r3, [r3, #0]
2000081e:	60fb      	str	r3, [r7, #12]
	while( curr != NULL){
20000820:	e030      	b.n	20000884 <insert_timer+0x94>
		if(curr->time > newtimer->time){
20000822:	68fb      	ldr	r3, [r7, #12]
20000824:	685a      	ldr	r2, [r3, #4]
20000826:	687b      	ldr	r3, [r7, #4]
20000828:	685b      	ldr	r3, [r3, #4]
2000082a:	429a      	cmp	r2, r3
2000082c:	d91c      	bls.n	20000868 <insert_timer+0x78>
			if(curr->prev == NULL){
2000082e:	68fb      	ldr	r3, [r7, #12]
20000830:	695b      	ldr	r3, [r3, #20]
20000832:	2b00      	cmp	r3, #0
20000834:	d105      	bne.n	20000842 <insert_timer+0x52>
				root = newtimer;
20000836:	f642 731c 	movw	r3, #12060	; 0x2f1c
2000083a:	f2c2 0300 	movt	r3, #8192	; 0x2000
2000083e:	687a      	ldr	r2, [r7, #4]
20000840:	601a      	str	r2, [r3, #0]
			}
			if(curr->prev != NULL){
20000842:	68fb      	ldr	r3, [r7, #12]
20000844:	695b      	ldr	r3, [r3, #20]
20000846:	2b00      	cmp	r3, #0
20000848:	d003      	beq.n	20000852 <insert_timer+0x62>
				curr->prev->next = newtimer;
2000084a:	68fb      	ldr	r3, [r7, #12]
2000084c:	695b      	ldr	r3, [r3, #20]
2000084e:	687a      	ldr	r2, [r7, #4]
20000850:	611a      	str	r2, [r3, #16]
			}
			newtimer->prev = curr->prev;
20000852:	68fb      	ldr	r3, [r7, #12]
20000854:	695a      	ldr	r2, [r3, #20]
20000856:	687b      	ldr	r3, [r7, #4]
20000858:	615a      	str	r2, [r3, #20]
			curr->prev = newtimer;
2000085a:	68fb      	ldr	r3, [r7, #12]
2000085c:	687a      	ldr	r2, [r7, #4]
2000085e:	615a      	str	r2, [r3, #20]
			newtimer->next = curr;
20000860:	687b      	ldr	r3, [r7, #4]
20000862:	68fa      	ldr	r2, [r7, #12]
20000864:	611a      	str	r2, [r3, #16]
			return;
20000866:	e010      	b.n	2000088a <insert_timer+0x9a>
		}
		else{
			if(curr->next == NULL){
20000868:	68fb      	ldr	r3, [r7, #12]
2000086a:	691b      	ldr	r3, [r3, #16]
2000086c:	2b00      	cmp	r3, #0
2000086e:	d106      	bne.n	2000087e <insert_timer+0x8e>
				curr->next = newtimer;
20000870:	68fb      	ldr	r3, [r7, #12]
20000872:	687a      	ldr	r2, [r7, #4]
20000874:	611a      	str	r2, [r3, #16]
				newtimer->prev = curr;
20000876:	687b      	ldr	r3, [r7, #4]
20000878:	68fa      	ldr	r2, [r7, #12]
2000087a:	615a      	str	r2, [r3, #20]
				return;
2000087c:	e005      	b.n	2000088a <insert_timer+0x9a>
			}
			curr = curr->next;
2000087e:	68fb      	ldr	r3, [r7, #12]
20000880:	691b      	ldr	r3, [r3, #16]
20000882:	60fb      	str	r3, [r7, #12]
		root = newtimer;
		return;
	}

	timer_tt* curr = root;
	while( curr != NULL){
20000884:	68fb      	ldr	r3, [r7, #12]
20000886:	2b00      	cmp	r3, #0
20000888:	d1cb      	bne.n	20000822 <insert_timer+0x32>
				return;
			}
			curr = curr->next;
		}
	}
}
2000088a:	f107 0714 	add.w	r7, r7, #20
2000088e:	46bd      	mov	sp, r7
20000890:	bc80      	pop	{r7}
20000892:	4770      	bx	lr
20000894:	0000      	lsls	r0, r0, #0
	...

20000898 <motorLeft>:

void motorLeft(int dir) {
20000898:	b580      	push	{r7, lr}
2000089a:	b082      	sub	sp, #8
2000089c:	af00      	add	r7, sp, #0
2000089e:	6078      	str	r0, [r7, #4]
	step(dir, NO);
200008a0:	6878      	ldr	r0, [r7, #4]
200008a2:	f04f 0100 	mov.w	r1, #0
200008a6:	f000 fdcd 	bl	20001444 <step>
	if(dir == CW){
200008aa:	687b      	ldr	r3, [r7, #4]
200008ac:	2b02      	cmp	r3, #2
200008ae:	d117      	bne.n	200008e0 <motorLeft+0x48>
		RadiusLeft = RadiusLeft + 3.8*1.8/360/16;
200008b0:	f643 0370 	movw	r3, #14448	; 0x3870
200008b4:	f2c2 0300 	movt	r3, #8192	; 0x2000
200008b8:	e9d3 2300 	ldrd	r2, r3, [r3]
200008bc:	4610      	mov	r0, r2
200008be:	4619      	mov	r1, r3
200008c0:	a31d      	add	r3, pc, #116	; (adr r3, 20000938 <motorLeft+0xa0>)
200008c2:	e9d3 2300 	ldrd	r2, r3, [r3]
200008c6:	f000 fe57 	bl	20001578 <__adddf3>
200008ca:	4602      	mov	r2, r0
200008cc:	460b      	mov	r3, r1
200008ce:	4610      	mov	r0, r2
200008d0:	4619      	mov	r1, r3
200008d2:	f643 0370 	movw	r3, #14448	; 0x3870
200008d6:	f2c2 0300 	movt	r3, #8192	; 0x2000
200008da:	e9c3 0100 	strd	r0, r1, [r3]
200008de:	e019      	b.n	20000914 <motorLeft+0x7c>
	}
	else if(dir == CCW){
200008e0:	687b      	ldr	r3, [r7, #4]
200008e2:	2b01      	cmp	r3, #1
200008e4:	d116      	bne.n	20000914 <motorLeft+0x7c>
		RadiusLeft = RadiusLeft - 3.8*1.8/360/16;
200008e6:	f643 0370 	movw	r3, #14448	; 0x3870
200008ea:	f2c2 0300 	movt	r3, #8192	; 0x2000
200008ee:	e9d3 2300 	ldrd	r2, r3, [r3]
200008f2:	4610      	mov	r0, r2
200008f4:	4619      	mov	r1, r3
200008f6:	a310      	add	r3, pc, #64	; (adr r3, 20000938 <motorLeft+0xa0>)
200008f8:	e9d3 2300 	ldrd	r2, r3, [r3]
200008fc:	f000 fe3a 	bl	20001574 <__aeabi_dsub>
20000900:	4602      	mov	r2, r0
20000902:	460b      	mov	r3, r1
20000904:	4610      	mov	r0, r2
20000906:	4619      	mov	r1, r3
20000908:	f643 0370 	movw	r3, #14448	; 0x3870
2000090c:	f2c2 0300 	movt	r3, #8192	; 0x2000
20000910:	e9c3 0100 	strd	r0, r1, [r3]
	}
	++counter;
20000914:	f643 0360 	movw	r3, #14432	; 0x3860
20000918:	f2c2 0300 	movt	r3, #8192	; 0x2000
2000091c:	681b      	ldr	r3, [r3, #0]
2000091e:	f103 0201 	add.w	r2, r3, #1
20000922:	f643 0360 	movw	r3, #14432	; 0x3860
20000926:	f2c2 0300 	movt	r3, #8192	; 0x2000
2000092a:	601a      	str	r2, [r3, #0]
}
2000092c:	f107 0708 	add.w	r7, r7, #8
20000930:	46bd      	mov	sp, r7
20000932:	bd80      	pop	{r7, pc}
20000934:	f3af 8000 	nop.w
20000938:	6a7ef9db 	.word	0x6a7ef9db
2000093c:	3f5374bc 	.word	0x3f5374bc

20000940 <motorRight>:
void motorRight(int dir) {
20000940:	b580      	push	{r7, lr}
20000942:	b082      	sub	sp, #8
20000944:	af00      	add	r7, sp, #0
20000946:	6078      	str	r0, [r7, #4]
	step(NO, dir);
20000948:	f04f 0000 	mov.w	r0, #0
2000094c:	6879      	ldr	r1, [r7, #4]
2000094e:	f000 fd79 	bl	20001444 <step>
	if(dir == CCW){
20000952:	687b      	ldr	r3, [r7, #4]
20000954:	2b01      	cmp	r3, #1
20000956:	d117      	bne.n	20000988 <motorRight+0x48>
		RadiusRight = RadiusRight + 3.8*1.8/360/16;
20000958:	f642 7360 	movw	r3, #12128	; 0x2f60
2000095c:	f2c2 0300 	movt	r3, #8192	; 0x2000
20000960:	e9d3 2300 	ldrd	r2, r3, [r3]
20000964:	4610      	mov	r0, r2
20000966:	4619      	mov	r1, r3
20000968:	a31d      	add	r3, pc, #116	; (adr r3, 200009e0 <motorRight+0xa0>)
2000096a:	e9d3 2300 	ldrd	r2, r3, [r3]
2000096e:	f000 fe03 	bl	20001578 <__adddf3>
20000972:	4602      	mov	r2, r0
20000974:	460b      	mov	r3, r1
20000976:	4610      	mov	r0, r2
20000978:	4619      	mov	r1, r3
2000097a:	f642 7360 	movw	r3, #12128	; 0x2f60
2000097e:	f2c2 0300 	movt	r3, #8192	; 0x2000
20000982:	e9c3 0100 	strd	r0, r1, [r3]
20000986:	e019      	b.n	200009bc <motorRight+0x7c>
	}
	else if(dir == CW){
20000988:	687b      	ldr	r3, [r7, #4]
2000098a:	2b02      	cmp	r3, #2
2000098c:	d116      	bne.n	200009bc <motorRight+0x7c>
		RadiusRight = RadiusRight - 3.8*1.8/360/16;
2000098e:	f642 7360 	movw	r3, #12128	; 0x2f60
20000992:	f2c2 0300 	movt	r3, #8192	; 0x2000
20000996:	e9d3 2300 	ldrd	r2, r3, [r3]
2000099a:	4610      	mov	r0, r2
2000099c:	4619      	mov	r1, r3
2000099e:	a310      	add	r3, pc, #64	; (adr r3, 200009e0 <motorRight+0xa0>)
200009a0:	e9d3 2300 	ldrd	r2, r3, [r3]
200009a4:	f000 fde6 	bl	20001574 <__aeabi_dsub>
200009a8:	4602      	mov	r2, r0
200009aa:	460b      	mov	r3, r1
200009ac:	4610      	mov	r0, r2
200009ae:	4619      	mov	r1, r3
200009b0:	f642 7360 	movw	r3, #12128	; 0x2f60
200009b4:	f2c2 0300 	movt	r3, #8192	; 0x2000
200009b8:	e9c3 0100 	strd	r0, r1, [r3]
	}

	++counter;
200009bc:	f643 0360 	movw	r3, #14432	; 0x3860
200009c0:	f2c2 0300 	movt	r3, #8192	; 0x2000
200009c4:	681b      	ldr	r3, [r3, #0]
200009c6:	f103 0201 	add.w	r2, r3, #1
200009ca:	f643 0360 	movw	r3, #14432	; 0x3860
200009ce:	f2c2 0300 	movt	r3, #8192	; 0x2000
200009d2:	601a      	str	r2, [r3, #0]
}
200009d4:	f107 0708 	add.w	r7, r7, #8
200009d8:	46bd      	mov	sp, r7
200009da:	bd80      	pop	{r7, pc}
200009dc:	f3af 8000 	nop.w
200009e0:	6a7ef9db 	.word	0x6a7ef9db
200009e4:	3f5374bc 	.word	0x3f5374bc

200009e8 <startTimerContinuous>:

//add a continuous (periodic) timer to linked list.
void startTimerContinuous(int isLeft, uint32_t period){
200009e8:	b580      	push	{r7, lr}
200009ea:	b084      	sub	sp, #16
200009ec:	af00      	add	r7, sp, #0
200009ee:	6078      	str	r0, [r7, #4]
200009f0:	6039      	str	r1, [r7, #0]
	timer_tt* newTimer = NULL;
200009f2:	f04f 0300 	mov.w	r3, #0
200009f6:	60fb      	str	r3, [r7, #12]
	newTimer = (timer_tt*)malloc(sizeof(struct Timer));
200009f8:	f04f 0018 	mov.w	r0, #24
200009fc:	f001 fa5e 	bl	20001ebc <malloc>
20000a00:	4603      	mov	r3, r0
20000a02:	60fb      	str	r3, [r7, #12]
	newTimer->left = isLeft;
20000a04:	68fb      	ldr	r3, [r7, #12]
20000a06:	687a      	ldr	r2, [r7, #4]
20000a08:	601a      	str	r2, [r3, #0]
	newTimer->period = period;
20000a0a:	68fb      	ldr	r3, [r7, #12]
20000a0c:	683a      	ldr	r2, [r7, #0]
20000a0e:	609a      	str	r2, [r3, #8]
	newTimer->time = period;
20000a10:	68fb      	ldr	r3, [r7, #12]
20000a12:	683a      	ldr	r2, [r7, #0]
20000a14:	605a      	str	r2, [r3, #4]
	newTimer->mode = 0;
20000a16:	68fb      	ldr	r3, [r7, #12]
20000a18:	f04f 0200 	mov.w	r2, #0
20000a1c:	60da      	str	r2, [r3, #12]
	newTimer->next = NULL;
20000a1e:	68fb      	ldr	r3, [r7, #12]
20000a20:	f04f 0200 	mov.w	r2, #0
20000a24:	611a      	str	r2, [r3, #16]
	newTimer->prev = NULL;
20000a26:	68fb      	ldr	r3, [r7, #12]
20000a28:	f04f 0200 	mov.w	r2, #0
20000a2c:	615a      	str	r2, [r3, #20]

	insert_timer(newTimer);
20000a2e:	68f8      	ldr	r0, [r7, #12]
20000a30:	f7ff fede 	bl	200007f0 <insert_timer>
}
20000a34:	f107 0710 	add.w	r7, r7, #16
20000a38:	46bd      	mov	sp, r7
20000a3a:	bd80      	pop	{r7, pc}

20000a3c <update_timers>:
//example
//startTimerContinuous(&led0, 50000000);

//update down count with elapsed time, call fnc if timer zero, update continuous timers
//with new down count
void update_timers(){
20000a3c:	b580      	push	{r7, lr}
20000a3e:	b082      	sub	sp, #8
20000a40:	af00      	add	r7, sp, #0
	timer_tt *curr = root;
20000a42:	f642 731c 	movw	r3, #12060	; 0x2f1c
20000a46:	f2c2 0300 	movt	r3, #8192	; 0x2000
20000a4a:	681b      	ldr	r3, [r3, #0]
20000a4c:	603b      	str	r3, [r7, #0]
	curr = curr->next;
20000a4e:	683b      	ldr	r3, [r7, #0]
20000a50:	691b      	ldr	r3, [r3, #16]
20000a52:	603b      	str	r3, [r7, #0]
	while(curr != NULL){
20000a54:	e00e      	b.n	20000a74 <update_timers+0x38>
		curr->time = curr->time - root->time;
20000a56:	683b      	ldr	r3, [r7, #0]
20000a58:	685a      	ldr	r2, [r3, #4]
20000a5a:	f642 731c 	movw	r3, #12060	; 0x2f1c
20000a5e:	f2c2 0300 	movt	r3, #8192	; 0x2000
20000a62:	681b      	ldr	r3, [r3, #0]
20000a64:	685b      	ldr	r3, [r3, #4]
20000a66:	ebc3 0202 	rsb	r2, r3, r2
20000a6a:	683b      	ldr	r3, [r7, #0]
20000a6c:	605a      	str	r2, [r3, #4]
		curr = curr->next;
20000a6e:	683b      	ldr	r3, [r7, #0]
20000a70:	691b      	ldr	r3, [r3, #16]
20000a72:	603b      	str	r3, [r7, #0]
//update down count with elapsed time, call fnc if timer zero, update continuous timers
//with new down count
void update_timers(){
	timer_tt *curr = root;
	curr = curr->next;
	while(curr != NULL){
20000a74:	683b      	ldr	r3, [r7, #0]
20000a76:	2b00      	cmp	r3, #0
20000a78:	d1ed      	bne.n	20000a56 <update_timers+0x1a>
		curr->time = curr->time - root->time;
		curr = curr->next;
	}
	if(root->next == NULL){
20000a7a:	f642 731c 	movw	r3, #12060	; 0x2f1c
20000a7e:	f2c2 0300 	movt	r3, #8192	; 0x2000
20000a82:	681b      	ldr	r3, [r3, #0]
20000a84:	691b      	ldr	r3, [r3, #16]
20000a86:	2b00      	cmp	r3, #0
20000a88:	d11c      	bne.n	20000ac4 <update_timers+0x88>
		if(!root->mode){
20000a8a:	f642 731c 	movw	r3, #12060	; 0x2f1c
20000a8e:	f2c2 0300 	movt	r3, #8192	; 0x2000
20000a92:	681b      	ldr	r3, [r3, #0]
20000a94:	68db      	ldr	r3, [r3, #12]
20000a96:	2b00      	cmp	r3, #0
20000a98:	d10c      	bne.n	20000ab4 <update_timers+0x78>
			root->time = root->period;
20000a9a:	f642 731c 	movw	r3, #12060	; 0x2f1c
20000a9e:	f2c2 0300 	movt	r3, #8192	; 0x2000
20000aa2:	681a      	ldr	r2, [r3, #0]
20000aa4:	f642 731c 	movw	r3, #12060	; 0x2f1c
20000aa8:	f2c2 0300 	movt	r3, #8192	; 0x2000
20000aac:	681b      	ldr	r3, [r3, #0]
20000aae:	689b      	ldr	r3, [r3, #8]
20000ab0:	6053      	str	r3, [r2, #4]
			return;
20000ab2:	e035      	b.n	20000b20 <update_timers+0xe4>
		}
		else{
			root = NULL;
20000ab4:	f642 731c 	movw	r3, #12060	; 0x2f1c
20000ab8:	f2c2 0300 	movt	r3, #8192	; 0x2000
20000abc:	f04f 0200 	mov.w	r2, #0
20000ac0:	601a      	str	r2, [r3, #0]
			return;
20000ac2:	e02d      	b.n	20000b20 <update_timers+0xe4>
		}
	}
	timer_tt *temp = root;
20000ac4:	f642 731c 	movw	r3, #12060	; 0x2f1c
20000ac8:	f2c2 0300 	movt	r3, #8192	; 0x2000
20000acc:	681b      	ldr	r3, [r3, #0]
20000ace:	607b      	str	r3, [r7, #4]
	root = root->next;
20000ad0:	f642 731c 	movw	r3, #12060	; 0x2f1c
20000ad4:	f2c2 0300 	movt	r3, #8192	; 0x2000
20000ad8:	681b      	ldr	r3, [r3, #0]
20000ada:	691a      	ldr	r2, [r3, #16]
20000adc:	f642 731c 	movw	r3, #12060	; 0x2f1c
20000ae0:	f2c2 0300 	movt	r3, #8192	; 0x2000
20000ae4:	601a      	str	r2, [r3, #0]
	temp->next = NULL;
20000ae6:	687b      	ldr	r3, [r7, #4]
20000ae8:	f04f 0200 	mov.w	r2, #0
20000aec:	611a      	str	r2, [r3, #16]
	root->prev = NULL;
20000aee:	f642 731c 	movw	r3, #12060	; 0x2f1c
20000af2:	f2c2 0300 	movt	r3, #8192	; 0x2000
20000af6:	681b      	ldr	r3, [r3, #0]
20000af8:	f04f 0200 	mov.w	r2, #0
20000afc:	615a      	str	r2, [r3, #20]
	if(!temp->mode){
20000afe:	687b      	ldr	r3, [r7, #4]
20000b00:	68db      	ldr	r3, [r3, #12]
20000b02:	2b00      	cmp	r3, #0
20000b04:	d10b      	bne.n	20000b1e <update_timers+0xe2>
		startTimerContinuous(temp->left, temp->period);
20000b06:	687b      	ldr	r3, [r7, #4]
20000b08:	681a      	ldr	r2, [r3, #0]
20000b0a:	687b      	ldr	r3, [r7, #4]
20000b0c:	689b      	ldr	r3, [r3, #8]
20000b0e:	4610      	mov	r0, r2
20000b10:	4619      	mov	r1, r3
20000b12:	f7ff ff69 	bl	200009e8 <startTimerContinuous>
		free(temp);
20000b16:	6878      	ldr	r0, [r7, #4]
20000b18:	f001 f9c8 	bl	20001eac <free>
		return;
20000b1c:	e000      	b.n	20000b20 <update_timers+0xe4>
	}
	return;
20000b1e:	bf00      	nop
}
20000b20:	f107 0708 	add.w	r7, r7, #8
20000b24:	46bd      	mov	sp, r7
20000b26:	bd80      	pop	{r7, pc}

20000b28 <Timer1_IRQHandler>:

void Timer1_IRQHandler( void ){
20000b28:	b580      	push	{r7, lr}
20000b2a:	b082      	sub	sp, #8
20000b2c:	af00      	add	r7, sp, #0

	if(root->left){
20000b2e:	f642 731c 	movw	r3, #12060	; 0x2f1c
20000b32:	f2c2 0300 	movt	r3, #8192	; 0x2000
20000b36:	681b      	ldr	r3, [r3, #0]
20000b38:	681b      	ldr	r3, [r3, #0]
20000b3a:	2b00      	cmp	r3, #0
20000b3c:	d008      	beq.n	20000b50 <Timer1_IRQHandler+0x28>
		motorLeft(dirLeft);
20000b3e:	f642 2308 	movw	r3, #10760	; 0x2a08
20000b42:	f2c2 0300 	movt	r3, #8192	; 0x2000
20000b46:	681b      	ldr	r3, [r3, #0]
20000b48:	4618      	mov	r0, r3
20000b4a:	f7ff fea5 	bl	20000898 <motorLeft>
20000b4e:	e007      	b.n	20000b60 <Timer1_IRQHandler+0x38>
	}
	else{
		motorRight(dirRight);
20000b50:	f642 230c 	movw	r3, #10764	; 0x2a0c
20000b54:	f2c2 0300 	movt	r3, #8192	; 0x2000
20000b58:	681b      	ldr	r3, [r3, #0]
20000b5a:	4618      	mov	r0, r3
20000b5c:	f7ff fef0 	bl	20000940 <motorRight>
	}
	update_timers();
20000b60:	f7ff ff6c 	bl	20000a3c <update_timers>

	timer_tt* temp = root;
20000b64:	f642 731c 	movw	r3, #12060	; 0x2f1c
20000b68:	f2c2 0300 	movt	r3, #8192	; 0x2000
20000b6c:	681b      	ldr	r3, [r3, #0]
20000b6e:	603b      	str	r3, [r7, #0]
	while(temp != NULL){
20000b70:	e031      	b.n	20000bd6 <Timer1_IRQHandler+0xae>
		int not_change = 0;
20000b72:	f04f 0300 	mov.w	r3, #0
20000b76:	607b      	str	r3, [r7, #4]
		if(temp->time == 0){
20000b78:	683b      	ldr	r3, [r7, #0]
20000b7a:	685b      	ldr	r3, [r3, #4]
20000b7c:	2b00      	cmp	r3, #0
20000b7e:	d11d      	bne.n	20000bbc <Timer1_IRQHandler+0x94>
			if(root->left){
20000b80:	f642 731c 	movw	r3, #12060	; 0x2f1c
20000b84:	f2c2 0300 	movt	r3, #8192	; 0x2000
20000b88:	681b      	ldr	r3, [r3, #0]
20000b8a:	681b      	ldr	r3, [r3, #0]
20000b8c:	2b00      	cmp	r3, #0
20000b8e:	d008      	beq.n	20000ba2 <Timer1_IRQHandler+0x7a>
				motorLeft(dirLeft);
20000b90:	f642 2308 	movw	r3, #10760	; 0x2a08
20000b94:	f2c2 0300 	movt	r3, #8192	; 0x2000
20000b98:	681b      	ldr	r3, [r3, #0]
20000b9a:	4618      	mov	r0, r3
20000b9c:	f7ff fe7c 	bl	20000898 <motorLeft>
20000ba0:	e007      	b.n	20000bb2 <Timer1_IRQHandler+0x8a>
			}
			else{
				motorRight(dirRight);
20000ba2:	f642 230c 	movw	r3, #10764	; 0x2a0c
20000ba6:	f2c2 0300 	movt	r3, #8192	; 0x2000
20000baa:	681b      	ldr	r3, [r3, #0]
20000bac:	4618      	mov	r0, r3
20000bae:	f7ff fec7 	bl	20000940 <motorRight>
			}
			update_timers();
20000bb2:	f7ff ff43 	bl	20000a3c <update_timers>
			not_change = 1;
20000bb6:	f04f 0301 	mov.w	r3, #1
20000bba:	607b      	str	r3, [r7, #4]
		}
		if(not_change){
20000bbc:	687b      	ldr	r3, [r7, #4]
20000bbe:	2b00      	cmp	r3, #0
20000bc0:	d006      	beq.n	20000bd0 <Timer1_IRQHandler+0xa8>
			temp = root;
20000bc2:	f642 731c 	movw	r3, #12060	; 0x2f1c
20000bc6:	f2c2 0300 	movt	r3, #8192	; 0x2000
20000bca:	681b      	ldr	r3, [r3, #0]
20000bcc:	603b      	str	r3, [r7, #0]
20000bce:	e002      	b.n	20000bd6 <Timer1_IRQHandler+0xae>
		}
		else{
			temp = temp->next;
20000bd0:	683b      	ldr	r3, [r7, #0]
20000bd2:	691b      	ldr	r3, [r3, #16]
20000bd4:	603b      	str	r3, [r7, #0]
		motorRight(dirRight);
	}
	update_timers();

	timer_tt* temp = root;
	while(temp != NULL){
20000bd6:	683b      	ldr	r3, [r7, #0]
20000bd8:	2b00      	cmp	r3, #0
20000bda:	d1ca      	bne.n	20000b72 <Timer1_IRQHandler+0x4a>
		else{
			temp = temp->next;
		}
	}

	MSS_TIM1_clear_irq();
20000bdc:	f7ff fd28 	bl	20000630 <MSS_TIM1_clear_irq>
	MSS_TIM1_load_immediate(root->time);
20000be0:	f642 731c 	movw	r3, #12060	; 0x2f1c
20000be4:	f2c2 0300 	movt	r3, #8192	; 0x2000
20000be8:	681b      	ldr	r3, [r3, #0]
20000bea:	685b      	ldr	r3, [r3, #4]
20000bec:	4618      	mov	r0, r3
20000bee:	f7ff fcff 	bl	200005f0 <MSS_TIM1_load_immediate>
	start_hardware_timer();
20000bf2:	f7ff fde9 	bl	200007c8 <start_hardware_timer>
};
20000bf6:	f107 0708 	add.w	r7, r7, #8
20000bfa:	46bd      	mov	sp, r7
20000bfc:	bd80      	pop	{r7, pc}
20000bfe:	bf00      	nop

20000c00 <clearTimers>:

void clearTimers(){
20000c00:	b580      	push	{r7, lr}
20000c02:	b082      	sub	sp, #8
20000c04:	af00      	add	r7, sp, #0
	if(root != NULL){
20000c06:	f642 731c 	movw	r3, #12060	; 0x2f1c
20000c0a:	f2c2 0300 	movt	r3, #8192	; 0x2000
20000c0e:	681b      	ldr	r3, [r3, #0]
20000c10:	2b00      	cmp	r3, #0
20000c12:	d02f      	beq.n	20000c74 <clearTimers+0x74>
		timer_tt *temp = root;
20000c14:	f642 731c 	movw	r3, #12060	; 0x2f1c
20000c18:	f2c2 0300 	movt	r3, #8192	; 0x2000
20000c1c:	681b      	ldr	r3, [r3, #0]
20000c1e:	607b      	str	r3, [r7, #4]
		root = root->next;
20000c20:	f642 731c 	movw	r3, #12060	; 0x2f1c
20000c24:	f2c2 0300 	movt	r3, #8192	; 0x2000
20000c28:	681b      	ldr	r3, [r3, #0]
20000c2a:	691a      	ldr	r2, [r3, #16]
20000c2c:	f642 731c 	movw	r3, #12060	; 0x2f1c
20000c30:	f2c2 0300 	movt	r3, #8192	; 0x2000
20000c34:	601a      	str	r2, [r3, #0]
		free(temp);
20000c36:	6878      	ldr	r0, [r7, #4]
20000c38:	f001 f938 	bl	20001eac <free>
		while(root != NULL){
20000c3c:	e013      	b.n	20000c66 <clearTimers+0x66>
			temp = root;
20000c3e:	f642 731c 	movw	r3, #12060	; 0x2f1c
20000c42:	f2c2 0300 	movt	r3, #8192	; 0x2000
20000c46:	681b      	ldr	r3, [r3, #0]
20000c48:	607b      	str	r3, [r7, #4]
			root = root->next;
20000c4a:	f642 731c 	movw	r3, #12060	; 0x2f1c
20000c4e:	f2c2 0300 	movt	r3, #8192	; 0x2000
20000c52:	681b      	ldr	r3, [r3, #0]
20000c54:	691a      	ldr	r2, [r3, #16]
20000c56:	f642 731c 	movw	r3, #12060	; 0x2f1c
20000c5a:	f2c2 0300 	movt	r3, #8192	; 0x2000
20000c5e:	601a      	str	r2, [r3, #0]
			free(temp);
20000c60:	6878      	ldr	r0, [r7, #4]
20000c62:	f001 f923 	bl	20001eac <free>
void clearTimers(){
	if(root != NULL){
		timer_tt *temp = root;
		root = root->next;
		free(temp);
		while(root != NULL){
20000c66:	f642 731c 	movw	r3, #12060	; 0x2f1c
20000c6a:	f2c2 0300 	movt	r3, #8192	; 0x2000
20000c6e:	681b      	ldr	r3, [r3, #0]
20000c70:	2b00      	cmp	r3, #0
20000c72:	d1e4      	bne.n	20000c3e <clearTimers+0x3e>
			temp = root;
			root = root->next;
			free(temp);
		}
	}
}
20000c74:	f107 0708 	add.w	r7, r7, #8
20000c78:	46bd      	mov	sp, r7
20000c7a:	bd80      	pop	{r7, pc}

20000c7c <interfaceConfig>:

//////////////////////////////////////////////////////////////////////////////////////////////////////////////
///////////////////////////////////////// INTERFACE //////////////////////////////////////////////////////////

void interfaceConfig(double height, double width){
20000c7c:	b5b0      	push	{r4, r5, r7, lr}
20000c7e:	b084      	sub	sp, #16
20000c80:	af00      	add	r7, sp, #0
20000c82:	e9c7 0102 	strd	r0, r1, [r7, #8]
20000c86:	e9c7 2300 	strd	r2, r3, [r7]
	boardHeight = height;
20000c8a:	f643 0358 	movw	r3, #14424	; 0x3858
20000c8e:	f2c2 0300 	movt	r3, #8192	; 0x2000
20000c92:	e9d7 0102 	ldrd	r0, r1, [r7, #8]
20000c96:	e9c3 0100 	strd	r0, r1, [r3]
	boardWidth = width;
20000c9a:	f642 7358 	movw	r3, #12120	; 0x2f58
20000c9e:	f2c2 0300 	movt	r3, #8192	; 0x2000
20000ca2:	e9d7 0100 	ldrd	r0, r1, [r7]
20000ca6:	e9c3 0100 	strd	r0, r1, [r3]

	xPos = boardWidth/2;
20000caa:	f642 7358 	movw	r3, #12120	; 0x2f58
20000cae:	f2c2 0300 	movt	r3, #8192	; 0x2000
20000cb2:	e9d3 2300 	ldrd	r2, r3, [r3]
20000cb6:	4610      	mov	r0, r2
20000cb8:	4619      	mov	r1, r3
20000cba:	f04f 0200 	mov.w	r2, #0
20000cbe:	f04f 4380 	mov.w	r3, #1073741824	; 0x40000000
20000cc2:	f000 ff35 	bl	20001b30 <__aeabi_ddiv>
20000cc6:	4602      	mov	r2, r0
20000cc8:	460b      	mov	r3, r1
20000cca:	4610      	mov	r0, r2
20000ccc:	4619      	mov	r1, r3
20000cce:	f643 0368 	movw	r3, #14440	; 0x3868
20000cd2:	f2c2 0300 	movt	r3, #8192	; 0x2000
20000cd6:	e9c3 0100 	strd	r0, r1, [r3]
	yPos = boardHeight/2;
20000cda:	f643 0358 	movw	r3, #14424	; 0x3858
20000cde:	f2c2 0300 	movt	r3, #8192	; 0x2000
20000ce2:	e9d3 2300 	ldrd	r2, r3, [r3]
20000ce6:	4610      	mov	r0, r2
20000ce8:	4619      	mov	r1, r3
20000cea:	f04f 0200 	mov.w	r2, #0
20000cee:	f04f 4380 	mov.w	r3, #1073741824	; 0x40000000
20000cf2:	f000 ff1d 	bl	20001b30 <__aeabi_ddiv>
20000cf6:	4602      	mov	r2, r0
20000cf8:	460b      	mov	r3, r1
20000cfa:	4610      	mov	r0, r2
20000cfc:	4619      	mov	r1, r3
20000cfe:	f642 7368 	movw	r3, #12136	; 0x2f68
20000d02:	f2c2 0300 	movt	r3, #8192	; 0x2000
20000d06:	e9c3 0100 	strd	r0, r1, [r3]

	RadiusLeft = sqrt(pow(xPos, 2) + pow(yPos, 2));
20000d0a:	f643 0368 	movw	r3, #14440	; 0x3868
20000d0e:	f2c2 0300 	movt	r3, #8192	; 0x2000
20000d12:	e9d3 2300 	ldrd	r2, r3, [r3]
20000d16:	4610      	mov	r0, r2
20000d18:	4619      	mov	r1, r3
20000d1a:	f000 fddf 	bl	200018dc <__aeabi_dmul>
20000d1e:	4602      	mov	r2, r0
20000d20:	460b      	mov	r3, r1
20000d22:	4614      	mov	r4, r2
20000d24:	461d      	mov	r5, r3
20000d26:	f642 7368 	movw	r3, #12136	; 0x2f68
20000d2a:	f2c2 0300 	movt	r3, #8192	; 0x2000
20000d2e:	e9d3 2300 	ldrd	r2, r3, [r3]
20000d32:	4610      	mov	r0, r2
20000d34:	4619      	mov	r1, r3
20000d36:	f000 fdd1 	bl	200018dc <__aeabi_dmul>
20000d3a:	4602      	mov	r2, r0
20000d3c:	460b      	mov	r3, r1
20000d3e:	4620      	mov	r0, r4
20000d40:	4629      	mov	r1, r5
20000d42:	f000 fc19 	bl	20001578 <__adddf3>
20000d46:	4602      	mov	r2, r0
20000d48:	460b      	mov	r3, r1
20000d4a:	4610      	mov	r0, r2
20000d4c:	4619      	mov	r1, r3
20000d4e:	f001 fcdb 	bl	20002708 <sqrt>
20000d52:	f643 0370 	movw	r3, #14448	; 0x3870
20000d56:	f2c2 0300 	movt	r3, #8192	; 0x2000
20000d5a:	e9c3 0100 	strd	r0, r1, [r3]
	RadiusRight = sqrt(pow(boardWidth - xPos, 2) + pow(yPos, 2));
20000d5e:	f642 7358 	movw	r3, #12120	; 0x2f58
20000d62:	f2c2 0300 	movt	r3, #8192	; 0x2000
20000d66:	e9d3 0100 	ldrd	r0, r1, [r3]
20000d6a:	f643 0368 	movw	r3, #14440	; 0x3868
20000d6e:	f2c2 0300 	movt	r3, #8192	; 0x2000
20000d72:	e9d3 2300 	ldrd	r2, r3, [r3]
20000d76:	f000 fbfd 	bl	20001574 <__aeabi_dsub>
20000d7a:	4602      	mov	r2, r0
20000d7c:	460b      	mov	r3, r1
20000d7e:	4610      	mov	r0, r2
20000d80:	4619      	mov	r1, r3
20000d82:	f000 fdab 	bl	200018dc <__aeabi_dmul>
20000d86:	4602      	mov	r2, r0
20000d88:	460b      	mov	r3, r1
20000d8a:	4614      	mov	r4, r2
20000d8c:	461d      	mov	r5, r3
20000d8e:	f642 7368 	movw	r3, #12136	; 0x2f68
20000d92:	f2c2 0300 	movt	r3, #8192	; 0x2000
20000d96:	e9d3 2300 	ldrd	r2, r3, [r3]
20000d9a:	4610      	mov	r0, r2
20000d9c:	4619      	mov	r1, r3
20000d9e:	f000 fd9d 	bl	200018dc <__aeabi_dmul>
20000da2:	4602      	mov	r2, r0
20000da4:	460b      	mov	r3, r1
20000da6:	4620      	mov	r0, r4
20000da8:	4629      	mov	r1, r5
20000daa:	f000 fbe5 	bl	20001578 <__adddf3>
20000dae:	4602      	mov	r2, r0
20000db0:	460b      	mov	r3, r1
20000db2:	4610      	mov	r0, r2
20000db4:	4619      	mov	r1, r3
20000db6:	f001 fca7 	bl	20002708 <sqrt>
20000dba:	f642 7360 	movw	r3, #12128	; 0x2f60
20000dbe:	f2c2 0300 	movt	r3, #8192	; 0x2000
20000dc2:	e9c3 0100 	strd	r0, r1, [r3]

	counter = 0;
20000dc6:	f643 0360 	movw	r3, #14432	; 0x3860
20000dca:	f2c2 0300 	movt	r3, #8192	; 0x2000
20000dce:	f04f 0200 	mov.w	r2, #0
20000dd2:	601a      	str	r2, [r3, #0]
}
20000dd4:	f107 0710 	add.w	r7, r7, #16
20000dd8:	46bd      	mov	sp, r7
20000dda:	bdb0      	pop	{r4, r5, r7, pc}
20000ddc:	0000      	lsls	r0, r0, #0
	...

20000de0 <makeLine>:

void makeLine(double endX, double endY){
20000de0:	e92d 4ff0 	stmdb	sp!, {r4, r5, r6, r7, r8, r9, sl, fp, lr}
20000de4:	b09f      	sub	sp, #124	; 0x7c
20000de6:	af06      	add	r7, sp, #24
20000de8:	e9c7 010a 	strd	r0, r1, [r7, #40]	; 0x28
20000dec:	e9c7 2308 	strd	r2, r3, [r7, #32]
	int dirL = calculateMotorDir(xPos, yPos, endX, endY, 0);
20000df0:	f643 0368 	movw	r3, #14440	; 0x3868
20000df4:	f2c2 0300 	movt	r3, #8192	; 0x2000
20000df8:	e9d3 0100 	ldrd	r0, r1, [r3]
20000dfc:	f642 7368 	movw	r3, #12136	; 0x2f68
20000e00:	f2c2 0300 	movt	r3, #8192	; 0x2000
20000e04:	e9d3 4500 	ldrd	r4, r5, [r3]
20000e08:	e9d7 230a 	ldrd	r2, r3, [r7, #40]	; 0x28
20000e0c:	e9cd 2300 	strd	r2, r3, [sp]
20000e10:	e9d7 2308 	ldrd	r2, r3, [r7, #32]
20000e14:	e9cd 2302 	strd	r2, r3, [sp, #8]
20000e18:	f04f 0300 	mov.w	r3, #0
20000e1c:	9304      	str	r3, [sp, #16]
20000e1e:	4622      	mov	r2, r4
20000e20:	462b      	mov	r3, r5
20000e22:	f7ff fc45 	bl	200006b0 <calculateMotorDir>
20000e26:	4603      	mov	r3, r0
20000e28:	633b      	str	r3, [r7, #48]	; 0x30
	int dirR = calculateMotorDir(xPos, yPos, endX, endY, 1);
20000e2a:	f643 0368 	movw	r3, #14440	; 0x3868
20000e2e:	f2c2 0300 	movt	r3, #8192	; 0x2000
20000e32:	e9d3 0100 	ldrd	r0, r1, [r3]
20000e36:	f642 7368 	movw	r3, #12136	; 0x2f68
20000e3a:	f2c2 0300 	movt	r3, #8192	; 0x2000
20000e3e:	e9d3 4500 	ldrd	r4, r5, [r3]
20000e42:	e9d7 230a 	ldrd	r2, r3, [r7, #40]	; 0x28
20000e46:	e9cd 2300 	strd	r2, r3, [sp]
20000e4a:	e9d7 2308 	ldrd	r2, r3, [r7, #32]
20000e4e:	e9cd 2302 	strd	r2, r3, [sp, #8]
20000e52:	f04f 0301 	mov.w	r3, #1
20000e56:	9304      	str	r3, [sp, #16]
20000e58:	4622      	mov	r2, r4
20000e5a:	462b      	mov	r3, r5
20000e5c:	f7ff fc28 	bl	200006b0 <calculateMotorDir>
20000e60:	4603      	mov	r3, r0
20000e62:	637b      	str	r3, [r7, #52]	; 0x34
	while(1){
		dirLeft = dirL;
20000e64:	f642 2308 	movw	r3, #10760	; 0x2a08
20000e68:	f2c2 0300 	movt	r3, #8192	; 0x2000
20000e6c:	6b3a      	ldr	r2, [r7, #48]	; 0x30
20000e6e:	601a      	str	r2, [r3, #0]
		dirRight = dirR;
20000e70:	f642 230c 	movw	r3, #10764	; 0x2a0c
20000e74:	f2c2 0300 	movt	r3, #8192	; 0x2000
20000e78:	6b7a      	ldr	r2, [r7, #52]	; 0x34
20000e7a:	601a      	str	r2, [r3, #0]
		double newRL = sqrt(pow(endX, 2) + pow(endY, 2));
20000e7c:	e9d7 230a 	ldrd	r2, r3, [r7, #40]	; 0x28
20000e80:	4610      	mov	r0, r2
20000e82:	4619      	mov	r1, r3
20000e84:	f000 fd2a 	bl	200018dc <__aeabi_dmul>
20000e88:	4602      	mov	r2, r0
20000e8a:	460b      	mov	r3, r1
20000e8c:	4614      	mov	r4, r2
20000e8e:	461d      	mov	r5, r3
20000e90:	e9d7 2308 	ldrd	r2, r3, [r7, #32]
20000e94:	4610      	mov	r0, r2
20000e96:	4619      	mov	r1, r3
20000e98:	f000 fd20 	bl	200018dc <__aeabi_dmul>
20000e9c:	4602      	mov	r2, r0
20000e9e:	460b      	mov	r3, r1
20000ea0:	4620      	mov	r0, r4
20000ea2:	4629      	mov	r1, r5
20000ea4:	f000 fb68 	bl	20001578 <__adddf3>
20000ea8:	4602      	mov	r2, r0
20000eaa:	460b      	mov	r3, r1
20000eac:	4610      	mov	r0, r2
20000eae:	4619      	mov	r1, r3
20000eb0:	f001 fc2a 	bl	20002708 <sqrt>
20000eb4:	4602      	mov	r2, r0
20000eb6:	460b      	mov	r3, r1
20000eb8:	e9c7 230e 	strd	r2, r3, [r7, #56]	; 0x38
		double newRR = sqrt(pow(boardWidth - endX, 2) + pow(endY, 2));
20000ebc:	f642 7358 	movw	r3, #12120	; 0x2f58
20000ec0:	f2c2 0300 	movt	r3, #8192	; 0x2000
20000ec4:	e9d3 2300 	ldrd	r2, r3, [r3]
20000ec8:	4610      	mov	r0, r2
20000eca:	4619      	mov	r1, r3
20000ecc:	e9d7 230a 	ldrd	r2, r3, [r7, #40]	; 0x28
20000ed0:	f000 fb50 	bl	20001574 <__aeabi_dsub>
20000ed4:	4602      	mov	r2, r0
20000ed6:	460b      	mov	r3, r1
20000ed8:	4610      	mov	r0, r2
20000eda:	4619      	mov	r1, r3
20000edc:	f000 fcfe 	bl	200018dc <__aeabi_dmul>
20000ee0:	4602      	mov	r2, r0
20000ee2:	460b      	mov	r3, r1
20000ee4:	4614      	mov	r4, r2
20000ee6:	461d      	mov	r5, r3
20000ee8:	e9d7 2308 	ldrd	r2, r3, [r7, #32]
20000eec:	4610      	mov	r0, r2
20000eee:	4619      	mov	r1, r3
20000ef0:	f000 fcf4 	bl	200018dc <__aeabi_dmul>
20000ef4:	4602      	mov	r2, r0
20000ef6:	460b      	mov	r3, r1
20000ef8:	4620      	mov	r0, r4
20000efa:	4629      	mov	r1, r5
20000efc:	f000 fb3c 	bl	20001578 <__adddf3>
20000f00:	4602      	mov	r2, r0
20000f02:	460b      	mov	r3, r1
20000f04:	4610      	mov	r0, r2
20000f06:	4619      	mov	r1, r3
20000f08:	f001 fbfe 	bl	20002708 <sqrt>
20000f0c:	4602      	mov	r2, r0
20000f0e:	460b      	mov	r3, r1
20000f10:	e9c7 2310 	strd	r2, r3, [r7, #64]	; 0x40
		double rateChangeL = RadiusLeft - newRL;
20000f14:	f643 0370 	movw	r3, #14448	; 0x3870
20000f18:	f2c2 0300 	movt	r3, #8192	; 0x2000
20000f1c:	e9d3 2300 	ldrd	r2, r3, [r3]
20000f20:	4610      	mov	r0, r2
20000f22:	4619      	mov	r1, r3
20000f24:	e9d7 230e 	ldrd	r2, r3, [r7, #56]	; 0x38
20000f28:	f000 fb24 	bl	20001574 <__aeabi_dsub>
20000f2c:	4602      	mov	r2, r0
20000f2e:	460b      	mov	r3, r1
20000f30:	e9c7 2312 	strd	r2, r3, [r7, #72]	; 0x48
		double rateChangeR = RadiusRight - newRR;
20000f34:	f642 7360 	movw	r3, #12128	; 0x2f60
20000f38:	f2c2 0300 	movt	r3, #8192	; 0x2000
20000f3c:	e9d3 2300 	ldrd	r2, r3, [r3]
20000f40:	4610      	mov	r0, r2
20000f42:	4619      	mov	r1, r3
20000f44:	e9d7 2310 	ldrd	r2, r3, [r7, #64]	; 0x40
20000f48:	f000 fb14 	bl	20001574 <__aeabi_dsub>
20000f4c:	4602      	mov	r2, r0
20000f4e:	460b      	mov	r3, r1
20000f50:	e9c7 2314 	strd	r2, r3, [r7, #80]	; 0x50
		if(rateChangeL < 0) rateChangeL = rateChangeL * -1;
20000f54:	f04f 0300 	mov.w	r3, #0
20000f58:	461c      	mov	r4, r3
20000f5a:	e9d7 0112 	ldrd	r0, r1, [r7, #72]	; 0x48
20000f5e:	f04f 0200 	mov.w	r2, #0
20000f62:	f04f 0300 	mov.w	r3, #0
20000f66:	f000 ff2b 	bl	20001dc0 <__aeabi_dcmplt>
20000f6a:	4603      	mov	r3, r0
20000f6c:	2b00      	cmp	r3, #0
20000f6e:	d002      	beq.n	20000f76 <makeLine+0x196>
20000f70:	f04f 0301 	mov.w	r3, #1
20000f74:	461c      	mov	r4, r3
20000f76:	b2e3      	uxtb	r3, r4
20000f78:	2b00      	cmp	r3, #0
20000f7a:	d005      	beq.n	20000f88 <makeLine+0x1a8>
20000f7c:	6cbb      	ldr	r3, [r7, #72]	; 0x48
20000f7e:	64bb      	str	r3, [r7, #72]	; 0x48
20000f80:	6cfb      	ldr	r3, [r7, #76]	; 0x4c
20000f82:	f083 4300 	eor.w	r3, r3, #2147483648	; 0x80000000
20000f86:	64fb      	str	r3, [r7, #76]	; 0x4c
		if(rateChangeR < 0) rateChangeR = rateChangeR * -1;
20000f88:	f04f 0300 	mov.w	r3, #0
20000f8c:	461c      	mov	r4, r3
20000f8e:	e9d7 0114 	ldrd	r0, r1, [r7, #80]	; 0x50
20000f92:	f04f 0200 	mov.w	r2, #0
20000f96:	f04f 0300 	mov.w	r3, #0
20000f9a:	f000 ff11 	bl	20001dc0 <__aeabi_dcmplt>
20000f9e:	4603      	mov	r3, r0
20000fa0:	2b00      	cmp	r3, #0
20000fa2:	d002      	beq.n	20000faa <makeLine+0x1ca>
20000fa4:	f04f 0301 	mov.w	r3, #1
20000fa8:	461c      	mov	r4, r3
20000faa:	b2e3      	uxtb	r3, r4
20000fac:	2b00      	cmp	r3, #0
20000fae:	d005      	beq.n	20000fbc <makeLine+0x1dc>
20000fb0:	6d3b      	ldr	r3, [r7, #80]	; 0x50
20000fb2:	653b      	str	r3, [r7, #80]	; 0x50
20000fb4:	6d7b      	ldr	r3, [r7, #84]	; 0x54
20000fb6:	f083 4300 	eor.w	r3, r3, #2147483648	; 0x80000000
20000fba:	657b      	str	r3, [r7, #84]	; 0x54
		double ratio = rateChangeL/rateChangeR;
20000fbc:	e9d7 0112 	ldrd	r0, r1, [r7, #72]	; 0x48
20000fc0:	e9d7 2314 	ldrd	r2, r3, [r7, #80]	; 0x50
20000fc4:	f000 fdb4 	bl	20001b30 <__aeabi_ddiv>
20000fc8:	4602      	mov	r2, r0
20000fca:	460b      	mov	r3, r1
20000fcc:	e9c7 2316 	strd	r2, r3, [r7, #88]	; 0x58

		if(fabs(newRL - RadiusLeft) <= thres && fabs(newRR - RadiusRight) > thres){
20000fd0:	f643 0370 	movw	r3, #14448	; 0x3870
20000fd4:	f2c2 0300 	movt	r3, #8192	; 0x2000
20000fd8:	e9d3 2300 	ldrd	r2, r3, [r3]
20000fdc:	e9d7 010e 	ldrd	r0, r1, [r7, #56]	; 0x38
20000fe0:	f000 fac8 	bl	20001574 <__aeabi_dsub>
20000fe4:	4602      	mov	r2, r0
20000fe6:	460b      	mov	r3, r1
20000fe8:	4611      	mov	r1, r2
20000fea:	6039      	str	r1, [r7, #0]
20000fec:	f023 4100 	bic.w	r1, r3, #2147483648	; 0x80000000
20000ff0:	6079      	str	r1, [r7, #4]
20000ff2:	f642 2300 	movw	r3, #10752	; 0x2a00
20000ff6:	f2c2 0300 	movt	r3, #8192	; 0x2000
20000ffa:	e9d3 4500 	ldrd	r4, r5, [r3]
20000ffe:	f04f 0300 	mov.w	r3, #0
20001002:	461e      	mov	r6, r3
20001004:	e9d7 0100 	ldrd	r0, r1, [r7]
20001008:	4622      	mov	r2, r4
2000100a:	462b      	mov	r3, r5
2000100c:	f000 fee2 	bl	20001dd4 <__aeabi_dcmple>
20001010:	4603      	mov	r3, r0
20001012:	2b00      	cmp	r3, #0
20001014:	d002      	beq.n	2000101c <makeLine+0x23c>
20001016:	f04f 0301 	mov.w	r3, #1
2000101a:	461e      	mov	r6, r3
2000101c:	b2f3      	uxtb	r3, r6
2000101e:	2b00      	cmp	r3, #0
20001020:	d034      	beq.n	2000108c <makeLine+0x2ac>
20001022:	f642 7360 	movw	r3, #12128	; 0x2f60
20001026:	f2c2 0300 	movt	r3, #8192	; 0x2000
2000102a:	e9d3 2300 	ldrd	r2, r3, [r3]
2000102e:	e9d7 0110 	ldrd	r0, r1, [r7, #64]	; 0x40
20001032:	f000 fa9f 	bl	20001574 <__aeabi_dsub>
20001036:	4602      	mov	r2, r0
20001038:	460b      	mov	r3, r1
2000103a:	4611      	mov	r1, r2
2000103c:	60b9      	str	r1, [r7, #8]
2000103e:	f023 4100 	bic.w	r1, r3, #2147483648	; 0x80000000
20001042:	60f9      	str	r1, [r7, #12]
20001044:	f642 2300 	movw	r3, #10752	; 0x2a00
20001048:	f2c2 0300 	movt	r3, #8192	; 0x2000
2000104c:	e9d3 4500 	ldrd	r4, r5, [r3]
20001050:	f04f 0300 	mov.w	r3, #0
20001054:	461e      	mov	r6, r3
20001056:	e9d7 0102 	ldrd	r0, r1, [r7, #8]
2000105a:	4622      	mov	r2, r4
2000105c:	462b      	mov	r3, r5
2000105e:	f000 fecd 	bl	20001dfc <__aeabi_dcmpgt>
20001062:	4603      	mov	r3, r0
20001064:	2b00      	cmp	r3, #0
20001066:	d002      	beq.n	2000106e <makeLine+0x28e>
20001068:	f04f 0301 	mov.w	r3, #1
2000106c:	461e      	mov	r6, r3
2000106e:	b2f3      	uxtb	r3, r6
20001070:	2b00      	cmp	r3, #0
20001072:	d00b      	beq.n	2000108c <makeLine+0x2ac>
			dirL = NO;
20001074:	f04f 0300 	mov.w	r3, #0
20001078:	633b      	str	r3, [r7, #48]	; 0x30
			ratio = 1;
2000107a:	f04f 0200 	mov.w	r2, #0
2000107e:	f04f 537e 	mov.w	r3, #1065353216	; 0x3f800000
20001082:	f503 03e0 	add.w	r3, r3, #7340032	; 0x700000
20001086:	e9c7 2316 	strd	r2, r3, [r7, #88]	; 0x58
		double rateChangeR = RadiusRight - newRR;
		if(rateChangeL < 0) rateChangeL = rateChangeL * -1;
		if(rateChangeR < 0) rateChangeR = rateChangeR * -1;
		double ratio = rateChangeL/rateChangeR;

		if(fabs(newRL - RadiusLeft) <= thres && fabs(newRR - RadiusRight) > thres){
2000108a:	e12b      	b.n	200012e4 <makeLine+0x504>
			dirL = NO;
			ratio = 1;
		}
		else if(fabs(newRL - RadiusLeft) > thres && fabs(newRR - RadiusRight) <= thres){
2000108c:	f643 0370 	movw	r3, #14448	; 0x3870
20001090:	f2c2 0300 	movt	r3, #8192	; 0x2000
20001094:	e9d3 2300 	ldrd	r2, r3, [r3]
20001098:	e9d7 010e 	ldrd	r0, r1, [r7, #56]	; 0x38
2000109c:	f000 fa6a 	bl	20001574 <__aeabi_dsub>
200010a0:	4602      	mov	r2, r0
200010a2:	460b      	mov	r3, r1
200010a4:	4611      	mov	r1, r2
200010a6:	6139      	str	r1, [r7, #16]
200010a8:	f023 4100 	bic.w	r1, r3, #2147483648	; 0x80000000
200010ac:	6179      	str	r1, [r7, #20]
200010ae:	f642 2300 	movw	r3, #10752	; 0x2a00
200010b2:	f2c2 0300 	movt	r3, #8192	; 0x2000
200010b6:	e9d3 4500 	ldrd	r4, r5, [r3]
200010ba:	f04f 0300 	mov.w	r3, #0
200010be:	461e      	mov	r6, r3
200010c0:	e9d7 0104 	ldrd	r0, r1, [r7, #16]
200010c4:	4622      	mov	r2, r4
200010c6:	462b      	mov	r3, r5
200010c8:	f000 fe98 	bl	20001dfc <__aeabi_dcmpgt>
200010cc:	4603      	mov	r3, r0
200010ce:	2b00      	cmp	r3, #0
200010d0:	d002      	beq.n	200010d8 <makeLine+0x2f8>
200010d2:	f04f 0301 	mov.w	r3, #1
200010d6:	461e      	mov	r6, r3
200010d8:	b2f3      	uxtb	r3, r6
200010da:	2b00      	cmp	r3, #0
200010dc:	d034      	beq.n	20001148 <makeLine+0x368>
200010de:	f642 7360 	movw	r3, #12128	; 0x2f60
200010e2:	f2c2 0300 	movt	r3, #8192	; 0x2000
200010e6:	e9d3 2300 	ldrd	r2, r3, [r3]
200010ea:	e9d7 0110 	ldrd	r0, r1, [r7, #64]	; 0x40
200010ee:	f000 fa41 	bl	20001574 <__aeabi_dsub>
200010f2:	4602      	mov	r2, r0
200010f4:	460b      	mov	r3, r1
200010f6:	4611      	mov	r1, r2
200010f8:	61b9      	str	r1, [r7, #24]
200010fa:	f023 4100 	bic.w	r1, r3, #2147483648	; 0x80000000
200010fe:	61f9      	str	r1, [r7, #28]
20001100:	f642 2300 	movw	r3, #10752	; 0x2a00
20001104:	f2c2 0300 	movt	r3, #8192	; 0x2000
20001108:	e9d3 4500 	ldrd	r4, r5, [r3]
2000110c:	f04f 0300 	mov.w	r3, #0
20001110:	461e      	mov	r6, r3
20001112:	e9d7 0106 	ldrd	r0, r1, [r7, #24]
20001116:	4622      	mov	r2, r4
20001118:	462b      	mov	r3, r5
2000111a:	f000 fe5b 	bl	20001dd4 <__aeabi_dcmple>
2000111e:	4603      	mov	r3, r0
20001120:	2b00      	cmp	r3, #0
20001122:	d002      	beq.n	2000112a <makeLine+0x34a>
20001124:	f04f 0301 	mov.w	r3, #1
20001128:	461e      	mov	r6, r3
2000112a:	b2f3      	uxtb	r3, r6
2000112c:	2b00      	cmp	r3, #0
2000112e:	d00b      	beq.n	20001148 <makeLine+0x368>
			dirR = NO;
20001130:	f04f 0300 	mov.w	r3, #0
20001134:	637b      	str	r3, [r7, #52]	; 0x34
			ratio = 1;
20001136:	f04f 0200 	mov.w	r2, #0
2000113a:	f04f 537e 	mov.w	r3, #1065353216	; 0x3f800000
2000113e:	f503 03e0 	add.w	r3, r3, #7340032	; 0x700000
20001142:	e9c7 2316 	strd	r2, r3, [r7, #88]	; 0x58

		if(fabs(newRL - RadiusLeft) <= thres && fabs(newRR - RadiusRight) > thres){
			dirL = NO;
			ratio = 1;
		}
		else if(fabs(newRL - RadiusLeft) > thres && fabs(newRR - RadiusRight) <= thres){
20001146:	e0cd      	b.n	200012e4 <makeLine+0x504>
			dirR = NO;
			ratio = 1;
		}
		else if(fabs(newRL - RadiusLeft) <= thres && fabs(newRR - RadiusRight) <= thres) {
20001148:	f643 0370 	movw	r3, #14448	; 0x3870
2000114c:	f2c2 0300 	movt	r3, #8192	; 0x2000
20001150:	e9d3 2300 	ldrd	r2, r3, [r3]
20001154:	e9d7 010e 	ldrd	r0, r1, [r7, #56]	; 0x38
20001158:	f000 fa0c 	bl	20001574 <__aeabi_dsub>
2000115c:	4602      	mov	r2, r0
2000115e:	460b      	mov	r3, r1
20001160:	4692      	mov	sl, r2
20001162:	f023 4b00 	bic.w	fp, r3, #2147483648	; 0x80000000
20001166:	f642 2300 	movw	r3, #10752	; 0x2a00
2000116a:	f2c2 0300 	movt	r3, #8192	; 0x2000
2000116e:	e9d3 4500 	ldrd	r4, r5, [r3]
20001172:	f04f 0300 	mov.w	r3, #0
20001176:	461e      	mov	r6, r3
20001178:	4650      	mov	r0, sl
2000117a:	4659      	mov	r1, fp
2000117c:	4622      	mov	r2, r4
2000117e:	462b      	mov	r3, r5
20001180:	f000 fe28 	bl	20001dd4 <__aeabi_dcmple>
20001184:	4603      	mov	r3, r0
20001186:	2b00      	cmp	r3, #0
20001188:	d002      	beq.n	20001190 <makeLine+0x3b0>
2000118a:	f04f 0301 	mov.w	r3, #1
2000118e:	461e      	mov	r6, r3
20001190:	b2f3      	uxtb	r3, r6
20001192:	2b00      	cmp	r3, #0
20001194:	f000 80a6 	beq.w	200012e4 <makeLine+0x504>
20001198:	f642 7360 	movw	r3, #12128	; 0x2f60
2000119c:	f2c2 0300 	movt	r3, #8192	; 0x2000
200011a0:	e9d3 2300 	ldrd	r2, r3, [r3]
200011a4:	e9d7 0110 	ldrd	r0, r1, [r7, #64]	; 0x40
200011a8:	f000 f9e4 	bl	20001574 <__aeabi_dsub>
200011ac:	4602      	mov	r2, r0
200011ae:	460b      	mov	r3, r1
200011b0:	4690      	mov	r8, r2
200011b2:	f023 4900 	bic.w	r9, r3, #2147483648	; 0x80000000
200011b6:	f642 2300 	movw	r3, #10752	; 0x2a00
200011ba:	f2c2 0300 	movt	r3, #8192	; 0x2000
200011be:	e9d3 4500 	ldrd	r4, r5, [r3]
200011c2:	f04f 0300 	mov.w	r3, #0
200011c6:	461e      	mov	r6, r3
200011c8:	4640      	mov	r0, r8
200011ca:	4649      	mov	r1, r9
200011cc:	4622      	mov	r2, r4
200011ce:	462b      	mov	r3, r5
200011d0:	f000 fe00 	bl	20001dd4 <__aeabi_dcmple>
200011d4:	4603      	mov	r3, r0
200011d6:	2b00      	cmp	r3, #0
200011d8:	d002      	beq.n	200011e0 <makeLine+0x400>
200011da:	f04f 0301 	mov.w	r3, #1
200011de:	461e      	mov	r6, r3
200011e0:	b2f3      	uxtb	r3, r6
200011e2:	2b00      	cmp	r3, #0
200011e4:	d07e      	beq.n	200012e4 <makeLine+0x504>
				counter = 0;
				break;
			}
		}
	}
	xPos = (pow(RadiusLeft, 2) - pow(RadiusRight, 2) + pow(boardWidth, 2))/(2*boardWidth);
200011e6:	f643 0370 	movw	r3, #14448	; 0x3870
200011ea:	f2c2 0300 	movt	r3, #8192	; 0x2000
200011ee:	e9d3 2300 	ldrd	r2, r3, [r3]
200011f2:	4610      	mov	r0, r2
200011f4:	4619      	mov	r1, r3
200011f6:	f000 fb71 	bl	200018dc <__aeabi_dmul>
200011fa:	4602      	mov	r2, r0
200011fc:	460b      	mov	r3, r1
200011fe:	4614      	mov	r4, r2
20001200:	461d      	mov	r5, r3
20001202:	f642 7360 	movw	r3, #12128	; 0x2f60
20001206:	f2c2 0300 	movt	r3, #8192	; 0x2000
2000120a:	e9d3 2300 	ldrd	r2, r3, [r3]
2000120e:	4610      	mov	r0, r2
20001210:	4619      	mov	r1, r3
20001212:	f000 fb63 	bl	200018dc <__aeabi_dmul>
20001216:	4602      	mov	r2, r0
20001218:	460b      	mov	r3, r1
2000121a:	4620      	mov	r0, r4
2000121c:	4629      	mov	r1, r5
2000121e:	f000 f9a9 	bl	20001574 <__aeabi_dsub>
20001222:	4602      	mov	r2, r0
20001224:	460b      	mov	r3, r1
20001226:	4614      	mov	r4, r2
20001228:	461d      	mov	r5, r3
2000122a:	f642 7358 	movw	r3, #12120	; 0x2f58
2000122e:	f2c2 0300 	movt	r3, #8192	; 0x2000
20001232:	e9d3 2300 	ldrd	r2, r3, [r3]
20001236:	4610      	mov	r0, r2
20001238:	4619      	mov	r1, r3
2000123a:	f000 fb4f 	bl	200018dc <__aeabi_dmul>
2000123e:	4602      	mov	r2, r0
20001240:	460b      	mov	r3, r1
20001242:	4620      	mov	r0, r4
20001244:	4629      	mov	r1, r5
20001246:	f000 f997 	bl	20001578 <__adddf3>
2000124a:	4602      	mov	r2, r0
2000124c:	460b      	mov	r3, r1
2000124e:	4614      	mov	r4, r2
20001250:	461d      	mov	r5, r3
20001252:	f642 7358 	movw	r3, #12120	; 0x2f58
20001256:	f2c2 0300 	movt	r3, #8192	; 0x2000
2000125a:	e9d3 2300 	ldrd	r2, r3, [r3]
2000125e:	4610      	mov	r0, r2
20001260:	4619      	mov	r1, r3
20001262:	f000 f989 	bl	20001578 <__adddf3>
20001266:	4602      	mov	r2, r0
20001268:	460b      	mov	r3, r1
2000126a:	4620      	mov	r0, r4
2000126c:	4629      	mov	r1, r5
2000126e:	f000 fc5f 	bl	20001b30 <__aeabi_ddiv>
20001272:	4602      	mov	r2, r0
20001274:	460b      	mov	r3, r1
20001276:	4610      	mov	r0, r2
20001278:	4619      	mov	r1, r3
2000127a:	f643 0368 	movw	r3, #14440	; 0x3868
2000127e:	f2c2 0300 	movt	r3, #8192	; 0x2000
20001282:	e9c3 0100 	strd	r0, r1, [r3]
	yPos = sqrt(pow(RadiusLeft, 2) - pow(xPos, 2));
20001286:	f643 0370 	movw	r3, #14448	; 0x3870
2000128a:	f2c2 0300 	movt	r3, #8192	; 0x2000
2000128e:	e9d3 2300 	ldrd	r2, r3, [r3]
20001292:	4610      	mov	r0, r2
20001294:	4619      	mov	r1, r3
20001296:	f000 fb21 	bl	200018dc <__aeabi_dmul>
2000129a:	4602      	mov	r2, r0
2000129c:	460b      	mov	r3, r1
2000129e:	4614      	mov	r4, r2
200012a0:	461d      	mov	r5, r3
200012a2:	f643 0368 	movw	r3, #14440	; 0x3868
200012a6:	f2c2 0300 	movt	r3, #8192	; 0x2000
200012aa:	e9d3 2300 	ldrd	r2, r3, [r3]
200012ae:	4610      	mov	r0, r2
200012b0:	4619      	mov	r1, r3
200012b2:	f000 fb13 	bl	200018dc <__aeabi_dmul>
200012b6:	4602      	mov	r2, r0
200012b8:	460b      	mov	r3, r1
200012ba:	4620      	mov	r0, r4
200012bc:	4629      	mov	r1, r5
200012be:	f000 f959 	bl	20001574 <__aeabi_dsub>
200012c2:	4602      	mov	r2, r0
200012c4:	460b      	mov	r3, r1
200012c6:	4610      	mov	r0, r2
200012c8:	4619      	mov	r1, r3
200012ca:	f001 fa1d 	bl	20002708 <sqrt>
200012ce:	f642 7368 	movw	r3, #12136	; 0x2f68
200012d2:	f2c2 0300 	movt	r3, #8192	; 0x2000
200012d6:	e9c3 0100 	strd	r0, r1, [r3]
}
200012da:	f107 0764 	add.w	r7, r7, #100	; 0x64
200012de:	46bd      	mov	sp, r7
200012e0:	e8bd 8ff0 	ldmia.w	sp!, {r4, r5, r6, r7, r8, r9, sl, fp, pc}
			break;
		}



		clearTimers();
200012e4:	f7ff fc8c 	bl	20000c00 <clearTimers>
		startTimerContinuous(1, 100000);
200012e8:	f04f 0001 	mov.w	r0, #1
200012ec:	f248 61a0 	movw	r1, #34464	; 0x86a0
200012f0:	f2c0 0101 	movt	r1, #1
200012f4:	f7ff fb78 	bl	200009e8 <startTimerContinuous>
		startTimerContinuous(0, 100000*ratio);
200012f8:	e9d7 0116 	ldrd	r0, r1, [r7, #88]	; 0x58
200012fc:	a312      	add	r3, pc, #72	; (adr r3, 20001348 <makeLine+0x568>)
200012fe:	e9d3 2300 	ldrd	r2, r3, [r3]
20001302:	f000 faeb 	bl	200018dc <__aeabi_dmul>
20001306:	4602      	mov	r2, r0
20001308:	460b      	mov	r3, r1
2000130a:	4610      	mov	r0, r2
2000130c:	4619      	mov	r1, r3
2000130e:	f000 fd7f 	bl	20001e10 <__aeabi_d2uiz>
20001312:	4603      	mov	r3, r0
20001314:	f04f 0000 	mov.w	r0, #0
20001318:	4619      	mov	r1, r3
2000131a:	f7ff fb65 	bl	200009e8 <startTimerContinuous>
		start_hardware_timer();
2000131e:	f7ff fa53 	bl	200007c8 <start_hardware_timer>
20001322:	e000      	b.n	20001326 <makeLine+0x546>
		while(1){
			if(counter >= 10){
				counter = 0;
				break;
			}
		}
20001324:	bf00      	nop
		clearTimers();
		startTimerContinuous(1, 100000);
		startTimerContinuous(0, 100000*ratio);
		start_hardware_timer();
		while(1){
			if(counter >= 10){
20001326:	f643 0360 	movw	r3, #14432	; 0x3860
2000132a:	f2c2 0300 	movt	r3, #8192	; 0x2000
2000132e:	681b      	ldr	r3, [r3, #0]
20001330:	2b09      	cmp	r3, #9
20001332:	ddf7      	ble.n	20001324 <makeLine+0x544>
				counter = 0;
20001334:	f643 0360 	movw	r3, #14432	; 0x3860
20001338:	f2c2 0300 	movt	r3, #8192	; 0x2000
2000133c:	f04f 0200 	mov.w	r2, #0
20001340:	601a      	str	r2, [r3, #0]
				break;
			}
		}
	}
20001342:	e58f      	b.n	20000e64 <makeLine+0x84>
20001344:	f3af 8000 	nop.w
20001348:	00000000 	.word	0x00000000
2000134c:	40f86a00 	.word	0x40f86a00

20001350 <main>:
#include "stepper.h"
#include "interface.h"

//Current Dimensions: 54.61, 83.82
//center: 41.91, 27.305
int main(){
20001350:	b580      	push	{r7, lr}
20001352:	af00      	add	r7, sp, #0
	stepper_config(SIXTEENTH, SIXTEENTH);
20001354:	f04f 0007 	mov.w	r0, #7
20001358:	f04f 0107 	mov.w	r1, #7
2000135c:	f000 f860 	bl	20001420 <stepper_config>
	interfaceConfig(54.61, 83.82);
20001360:	a115      	add	r1, pc, #84	; (adr r1, 200013b8 <main+0x68>)
20001362:	e9d1 0100 	ldrd	r0, r1, [r1]
20001366:	a316      	add	r3, pc, #88	; (adr r3, 200013c0 <main+0x70>)
20001368:	e9d3 2300 	ldrd	r2, r3, [r3]
2000136c:	f7ff fc86 	bl	20000c7c <interfaceConfig>

	//One A
	makeLine(47.91, 18.305);
20001370:	a115      	add	r1, pc, #84	; (adr r1, 200013c8 <main+0x78>)
20001372:	e9d1 0100 	ldrd	r0, r1, [r1]
20001376:	a316      	add	r3, pc, #88	; (adr r3, 200013d0 <main+0x80>)
20001378:	e9d3 2300 	ldrd	r2, r3, [r3]
2000137c:	f7ff fd30 	bl	20000de0 <makeLine>
	makeLine(53.91, 27.305);
20001380:	a115      	add	r1, pc, #84	; (adr r1, 200013d8 <main+0x88>)
20001382:	e9d1 0100 	ldrd	r0, r1, [r1]
20001386:	a316      	add	r3, pc, #88	; (adr r3, 200013e0 <main+0x90>)
20001388:	e9d3 2300 	ldrd	r2, r3, [r3]
2000138c:	f7ff fd28 	bl	20000de0 <makeLine>
	makeLine(50.91, 22.805);
20001390:	a115      	add	r1, pc, #84	; (adr r1, 200013e8 <main+0x98>)
20001392:	e9d1 0100 	ldrd	r0, r1, [r1]
20001396:	a316      	add	r3, pc, #88	; (adr r3, 200013f0 <main+0xa0>)
20001398:	e9d3 2300 	ldrd	r2, r3, [r3]
2000139c:	f7ff fd20 	bl	20000de0 <makeLine>
	makeLine(44.91, 22.805);
200013a0:	a115      	add	r1, pc, #84	; (adr r1, 200013f8 <main+0xa8>)
200013a2:	e9d1 0100 	ldrd	r0, r1, [r1]
200013a6:	a312      	add	r3, pc, #72	; (adr r3, 200013f0 <main+0xa0>)
200013a8:	e9d3 2300 	ldrd	r2, r3, [r3]
200013ac:	f7ff fd18 	bl	20000de0 <makeLine>
	//One Box
	//makeLine(41.91, 40);
	//makeLine(60, 40);
	//makeLine(60, 27.305);
	//makeLine(41.91, 27.305);
	return 0;
200013b0:	f04f 0300 	mov.w	r3, #0
}
200013b4:	4618      	mov	r0, r3
200013b6:	bd80      	pop	{r7, pc}
200013b8:	7ae147ae 	.word	0x7ae147ae
200013bc:	404b4e14 	.word	0x404b4e14
200013c0:	e147ae14 	.word	0xe147ae14
200013c4:	4054f47a 	.word	0x4054f47a
200013c8:	e147ae14 	.word	0xe147ae14
200013cc:	4047f47a 	.word	0x4047f47a
200013d0:	7ae147ae 	.word	0x7ae147ae
200013d4:	40324e14 	.word	0x40324e14
200013d8:	e147ae14 	.word	0xe147ae14
200013dc:	404af47a 	.word	0x404af47a
200013e0:	7ae147ae 	.word	0x7ae147ae
200013e4:	403b4e14 	.word	0x403b4e14
200013e8:	e147ae14 	.word	0xe147ae14
200013ec:	4049747a 	.word	0x4049747a
200013f0:	7ae147ae 	.word	0x7ae147ae
200013f4:	4036ce14 	.word	0x4036ce14
200013f8:	e147ae14 	.word	0xe147ae14
200013fc:	4046747a 	.word	0x4046747a

20001400 <MSS_GPIO_set_outputs>:
static __INLINE void
MSS_GPIO_set_outputs
(
   uint32_t value
)
{
20001400:	b480      	push	{r7}
20001402:	b083      	sub	sp, #12
20001404:	af00      	add	r7, sp, #0
20001406:	6078      	str	r0, [r7, #4]
    GPIO->GPIO_OUT = value;
20001408:	f243 0300 	movw	r3, #12288	; 0x3000
2000140c:	f2c4 0301 	movt	r3, #16385	; 0x4001
20001410:	687a      	ldr	r2, [r7, #4]
20001412:	f8c3 2088 	str.w	r2, [r3, #136]	; 0x88
}
20001416:	f107 070c 	add.w	r7, r7, #12
2000141a:	46bd      	mov	sp, r7
2000141c:	bc80      	pop	{r7}
2000141e:	4770      	bx	lr

20001420 <stepper_config>:
 *      Author: rishgoel
 */
#include "stepper.h"
#include "mss_gpio.h"

void stepper_config(int mode1, int mode2){
20001420:	b580      	push	{r7, lr}
20001422:	b082      	sub	sp, #8
20001424:	af00      	add	r7, sp, #0
20001426:	6078      	str	r0, [r7, #4]
20001428:	6039      	str	r1, [r7, #0]
	MSS_GPIO_set_outputs(mode1 | (mode2<<3));
2000142a:	683b      	ldr	r3, [r7, #0]
2000142c:	ea4f 02c3 	mov.w	r2, r3, lsl #3
20001430:	687b      	ldr	r3, [r7, #4]
20001432:	ea42 0303 	orr.w	r3, r2, r3
20001436:	4618      	mov	r0, r3
20001438:	f7ff ffe2 	bl	20001400 <MSS_GPIO_set_outputs>
}
2000143c:	f107 0708 	add.w	r7, r7, #8
20001440:	46bd      	mov	sp, r7
20001442:	bd80      	pop	{r7, pc}

20001444 <step>:

void step(int dir1, int dir2){
20001444:	b480      	push	{r7}
20001446:	b085      	sub	sp, #20
20001448:	af00      	add	r7, sp, #0
2000144a:	6078      	str	r0, [r7, #4]
2000144c:	6039      	str	r1, [r7, #0]
	int data = 0;
2000144e:	f04f 0300 	mov.w	r3, #0
20001452:	60fb      	str	r3, [r7, #12]

	if(dir1){
20001454:	687b      	ldr	r3, [r7, #4]
20001456:	2b00      	cmp	r3, #0
20001458:	d008      	beq.n	2000146c <step+0x28>
		data |= ((1<<2) | (dir1-1));
2000145a:	687b      	ldr	r3, [r7, #4]
2000145c:	f103 33ff 	add.w	r3, r3, #4294967295
20001460:	f043 0304 	orr.w	r3, r3, #4
20001464:	68fa      	ldr	r2, [r7, #12]
20001466:	ea42 0303 	orr.w	r3, r2, r3
2000146a:	60fb      	str	r3, [r7, #12]
	}
	if(dir2){
2000146c:	683b      	ldr	r3, [r7, #0]
2000146e:	2b00      	cmp	r3, #0
20001470:	d00a      	beq.n	20001488 <step+0x44>
		data |= ((1<<3)| ((dir2-1)<<1));
20001472:	683b      	ldr	r3, [r7, #0]
20001474:	f103 33ff 	add.w	r3, r3, #4294967295
20001478:	ea4f 0343 	mov.w	r3, r3, lsl #1
2000147c:	f043 0308 	orr.w	r3, r3, #8
20001480:	68fa      	ldr	r2, [r7, #12]
20001482:	ea42 0303 	orr.w	r3, r2, r3
20001486:	60fb      	str	r3, [r7, #12]
	}
	*PADDR = data;
20001488:	f240 0300 	movw	r3, #0
2000148c:	f2c4 0305 	movt	r3, #16389	; 0x4005
20001490:	68fa      	ldr	r2, [r7, #12]
20001492:	601a      	str	r2, [r3, #0]
}
20001494:	f107 0714 	add.w	r7, r7, #20
20001498:	46bd      	mov	sp, r7
2000149a:	bc80      	pop	{r7}
2000149c:	4770      	bx	lr
2000149e:	bf00      	nop

200014a0 <_exit>:
{
	/* Should we force a system reset? */
	while( 1 )
	{
		;
	}
200014a0:	b480      	push	{r7}
200014a2:	b083      	sub	sp, #12
200014a4:	af00      	add	r7, sp, #0
200014a6:	6078      	str	r0, [r7, #4]
200014a8:	e7fe      	b.n	200014a8 <_exit+0x8>
200014aa:	bf00      	nop

200014ac <_write_r>:
 * all files, including stdout—so if you need to generate any output, for
 * example to a serial port for debugging, you should make your minimal write
 * capable of doing this.
 */
int _write_r( void * reent, int file, char * ptr, int len )
{
200014ac:	b480      	push	{r7}
200014ae:	b085      	sub	sp, #20
200014b0:	af00      	add	r7, sp, #0
200014b2:	60f8      	str	r0, [r7, #12]
200014b4:	60b9      	str	r1, [r7, #8]
200014b6:	607a      	str	r2, [r7, #4]
200014b8:	603b      	str	r3, [r7, #0]
     */
    MSS_UART_polled_tx( &g_mss_uart0, (uint8_t *)ptr, len );
    
    return len;
#else   /* ACTEL_STDIO_THRU_UART */
    return 0;
200014ba:	f04f 0300 	mov.w	r3, #0
#endif  /* ACTEL_STDIO_THRU_UART */
}
200014be:	4618      	mov	r0, r3
200014c0:	f107 0714 	add.w	r7, r7, #20
200014c4:	46bd      	mov	sp, r7
200014c6:	bc80      	pop	{r7}
200014c8:	4770      	bx	lr
200014ca:	bf00      	nop

200014cc <_sbrk>:
 * it is useful to have a working implementation. The following suffices for a
 * standalone system; it exploits the symbol _end automatically defined by the
 * GNU linker. 
 */
caddr_t _sbrk(int incr)
{
200014cc:	b580      	push	{r7, lr}
200014ce:	b084      	sub	sp, #16
200014d0:	af00      	add	r7, sp, #0
200014d2:	6078      	str	r0, [r7, #4]
    extern char _end;		/* Defined by the linker */
    static char *heap_end;
    char *prev_heap_end;
    char * stack_ptr;
    
    if (heap_end == 0)
200014d4:	f642 7320 	movw	r3, #12064	; 0x2f20
200014d8:	f2c2 0300 	movt	r3, #8192	; 0x2000
200014dc:	681b      	ldr	r3, [r3, #0]
200014de:	2b00      	cmp	r3, #0
200014e0:	d108      	bne.n	200014f4 <_sbrk+0x28>
    {
      heap_end = &_end;
200014e2:	f642 7320 	movw	r3, #12064	; 0x2f20
200014e6:	f2c2 0300 	movt	r3, #8192	; 0x2000
200014ea:	f643 0280 	movw	r2, #14464	; 0x3880
200014ee:	f2c2 0200 	movt	r2, #8192	; 0x2000
200014f2:	601a      	str	r2, [r3, #0]
    }
    
    prev_heap_end = heap_end;
200014f4:	f642 7320 	movw	r3, #12064	; 0x2f20
200014f8:	f2c2 0300 	movt	r3, #8192	; 0x2000
200014fc:	681b      	ldr	r3, [r3, #0]
200014fe:	60bb      	str	r3, [r7, #8]
    asm volatile ("MRS %0, msp" : "=r" (stack_ptr) );
20001500:	f3ef 8308 	mrs	r3, MSP
20001504:	60fb      	str	r3, [r7, #12]
    if (heap_end + incr > stack_ptr)
20001506:	f642 7320 	movw	r3, #12064	; 0x2f20
2000150a:	f2c2 0300 	movt	r3, #8192	; 0x2000
2000150e:	681a      	ldr	r2, [r3, #0]
20001510:	687b      	ldr	r3, [r7, #4]
20001512:	441a      	add	r2, r3
20001514:	68fb      	ldr	r3, [r7, #12]
20001516:	429a      	cmp	r2, r3
20001518:	d90f      	bls.n	2000153a <_sbrk+0x6e>
    {
      _write_r ((void *)0, 1, "Heap and stack collision\n", 25);
2000151a:	f04f 0000 	mov.w	r0, #0
2000151e:	f04f 0101 	mov.w	r1, #1
20001522:	f642 12b0 	movw	r2, #10672	; 0x29b0
20001526:	f2c2 0200 	movt	r2, #8192	; 0x2000
2000152a:	f04f 0319 	mov.w	r3, #25
2000152e:	f7ff ffbd 	bl	200014ac <_write_r>
      _exit (1);
20001532:	f04f 0001 	mov.w	r0, #1
20001536:	f7ff ffb3 	bl	200014a0 <_exit>
    }
  
    heap_end += incr;
2000153a:	f642 7320 	movw	r3, #12064	; 0x2f20
2000153e:	f2c2 0300 	movt	r3, #8192	; 0x2000
20001542:	681a      	ldr	r2, [r3, #0]
20001544:	687b      	ldr	r3, [r7, #4]
20001546:	441a      	add	r2, r3
20001548:	f642 7320 	movw	r3, #12064	; 0x2f20
2000154c:	f2c2 0300 	movt	r3, #8192	; 0x2000
20001550:	601a      	str	r2, [r3, #0]
    return (caddr_t) prev_heap_end;
20001552:	68bb      	ldr	r3, [r7, #8]
}
20001554:	4618      	mov	r0, r3
20001556:	f107 0710 	add.w	r7, r7, #16
2000155a:	46bd      	mov	sp, r7
2000155c:	bd80      	pop	{r7, pc}
2000155e:	bf00      	nop

20001560 <SystemInit>:

/***************************************************************************//**
 * See system_a2fxxxm3f.h for details.
 */
void SystemInit(void)
{
20001560:	b480      	push	{r7}
20001562:	af00      	add	r7, sp, #0
    /*
     * Do not make use of global variables or make any asumptions regarding
     * memory content if modifying this function. The memory content has not been
     * initialised by the time this function is called by the start-up code.
     */
}
20001564:	46bd      	mov	sp, r7
20001566:	bc80      	pop	{r7}
20001568:	4770      	bx	lr
2000156a:	bf00      	nop

2000156c <__aeabi_drsub>:
2000156c:	f081 4100 	eor.w	r1, r1, #2147483648	; 0x80000000
20001570:	e002      	b.n	20001578 <__adddf3>
20001572:	bf00      	nop

20001574 <__aeabi_dsub>:
20001574:	f083 4300 	eor.w	r3, r3, #2147483648	; 0x80000000

20001578 <__adddf3>:
20001578:	b530      	push	{r4, r5, lr}
2000157a:	ea4f 0441 	mov.w	r4, r1, lsl #1
2000157e:	ea4f 0543 	mov.w	r5, r3, lsl #1
20001582:	ea94 0f05 	teq	r4, r5
20001586:	bf08      	it	eq
20001588:	ea90 0f02 	teqeq	r0, r2
2000158c:	bf1f      	itttt	ne
2000158e:	ea54 0c00 	orrsne.w	ip, r4, r0
20001592:	ea55 0c02 	orrsne.w	ip, r5, r2
20001596:	ea7f 5c64 	mvnsne.w	ip, r4, asr #21
2000159a:	ea7f 5c65 	mvnsne.w	ip, r5, asr #21
2000159e:	f000 80e2 	beq.w	20001766 <__adddf3+0x1ee>
200015a2:	ea4f 5454 	mov.w	r4, r4, lsr #21
200015a6:	ebd4 5555 	rsbs	r5, r4, r5, lsr #21
200015aa:	bfb8      	it	lt
200015ac:	426d      	neglt	r5, r5
200015ae:	dd0c      	ble.n	200015ca <__adddf3+0x52>
200015b0:	442c      	add	r4, r5
200015b2:	ea80 0202 	eor.w	r2, r0, r2
200015b6:	ea81 0303 	eor.w	r3, r1, r3
200015ba:	ea82 0000 	eor.w	r0, r2, r0
200015be:	ea83 0101 	eor.w	r1, r3, r1
200015c2:	ea80 0202 	eor.w	r2, r0, r2
200015c6:	ea81 0303 	eor.w	r3, r1, r3
200015ca:	2d36      	cmp	r5, #54	; 0x36
200015cc:	bf88      	it	hi
200015ce:	bd30      	pophi	{r4, r5, pc}
200015d0:	f011 4f00 	tst.w	r1, #2147483648	; 0x80000000
200015d4:	ea4f 3101 	mov.w	r1, r1, lsl #12
200015d8:	f44f 1c80 	mov.w	ip, #1048576	; 0x100000
200015dc:	ea4c 3111 	orr.w	r1, ip, r1, lsr #12
200015e0:	d002      	beq.n	200015e8 <__adddf3+0x70>
200015e2:	4240      	negs	r0, r0
200015e4:	eb61 0141 	sbc.w	r1, r1, r1, lsl #1
200015e8:	f013 4f00 	tst.w	r3, #2147483648	; 0x80000000
200015ec:	ea4f 3303 	mov.w	r3, r3, lsl #12
200015f0:	ea4c 3313 	orr.w	r3, ip, r3, lsr #12
200015f4:	d002      	beq.n	200015fc <__adddf3+0x84>
200015f6:	4252      	negs	r2, r2
200015f8:	eb63 0343 	sbc.w	r3, r3, r3, lsl #1
200015fc:	ea94 0f05 	teq	r4, r5
20001600:	f000 80a7 	beq.w	20001752 <__adddf3+0x1da>
20001604:	f1a4 0401 	sub.w	r4, r4, #1
20001608:	f1d5 0e20 	rsbs	lr, r5, #32
2000160c:	db0d      	blt.n	2000162a <__adddf3+0xb2>
2000160e:	fa02 fc0e 	lsl.w	ip, r2, lr
20001612:	fa22 f205 	lsr.w	r2, r2, r5
20001616:	1880      	adds	r0, r0, r2
20001618:	f141 0100 	adc.w	r1, r1, #0
2000161c:	fa03 f20e 	lsl.w	r2, r3, lr
20001620:	1880      	adds	r0, r0, r2
20001622:	fa43 f305 	asr.w	r3, r3, r5
20001626:	4159      	adcs	r1, r3
20001628:	e00e      	b.n	20001648 <__adddf3+0xd0>
2000162a:	f1a5 0520 	sub.w	r5, r5, #32
2000162e:	f10e 0e20 	add.w	lr, lr, #32
20001632:	2a01      	cmp	r2, #1
20001634:	fa03 fc0e 	lsl.w	ip, r3, lr
20001638:	bf28      	it	cs
2000163a:	f04c 0c02 	orrcs.w	ip, ip, #2
2000163e:	fa43 f305 	asr.w	r3, r3, r5
20001642:	18c0      	adds	r0, r0, r3
20001644:	eb51 71e3 	adcs.w	r1, r1, r3, asr #31
20001648:	f001 4500 	and.w	r5, r1, #2147483648	; 0x80000000
2000164c:	d507      	bpl.n	2000165e <__adddf3+0xe6>
2000164e:	f04f 0e00 	mov.w	lr, #0
20001652:	f1dc 0c00 	rsbs	ip, ip, #0
20001656:	eb7e 0000 	sbcs.w	r0, lr, r0
2000165a:	eb6e 0101 	sbc.w	r1, lr, r1
2000165e:	f5b1 1f80 	cmp.w	r1, #1048576	; 0x100000
20001662:	d31b      	bcc.n	2000169c <__adddf3+0x124>
20001664:	f5b1 1f00 	cmp.w	r1, #2097152	; 0x200000
20001668:	d30c      	bcc.n	20001684 <__adddf3+0x10c>
2000166a:	0849      	lsrs	r1, r1, #1
2000166c:	ea5f 0030 	movs.w	r0, r0, rrx
20001670:	ea4f 0c3c 	mov.w	ip, ip, rrx
20001674:	f104 0401 	add.w	r4, r4, #1
20001678:	ea4f 5244 	mov.w	r2, r4, lsl #21
2000167c:	f512 0f80 	cmn.w	r2, #4194304	; 0x400000
20001680:	f080 809a 	bcs.w	200017b8 <__adddf3+0x240>
20001684:	f1bc 4f00 	cmp.w	ip, #2147483648	; 0x80000000
20001688:	bf08      	it	eq
2000168a:	ea5f 0c50 	movseq.w	ip, r0, lsr #1
2000168e:	f150 0000 	adcs.w	r0, r0, #0
20001692:	eb41 5104 	adc.w	r1, r1, r4, lsl #20
20001696:	ea41 0105 	orr.w	r1, r1, r5
2000169a:	bd30      	pop	{r4, r5, pc}
2000169c:	ea5f 0c4c 	movs.w	ip, ip, lsl #1
200016a0:	4140      	adcs	r0, r0
200016a2:	eb41 0101 	adc.w	r1, r1, r1
200016a6:	f411 1f80 	tst.w	r1, #1048576	; 0x100000
200016aa:	f1a4 0401 	sub.w	r4, r4, #1
200016ae:	d1e9      	bne.n	20001684 <__adddf3+0x10c>
200016b0:	f091 0f00 	teq	r1, #0
200016b4:	bf04      	itt	eq
200016b6:	4601      	moveq	r1, r0
200016b8:	2000      	moveq	r0, #0
200016ba:	fab1 f381 	clz	r3, r1
200016be:	bf08      	it	eq
200016c0:	3320      	addeq	r3, #32
200016c2:	f1a3 030b 	sub.w	r3, r3, #11
200016c6:	f1b3 0220 	subs.w	r2, r3, #32
200016ca:	da0c      	bge.n	200016e6 <__adddf3+0x16e>
200016cc:	320c      	adds	r2, #12
200016ce:	dd08      	ble.n	200016e2 <__adddf3+0x16a>
200016d0:	f102 0c14 	add.w	ip, r2, #20
200016d4:	f1c2 020c 	rsb	r2, r2, #12
200016d8:	fa01 f00c 	lsl.w	r0, r1, ip
200016dc:	fa21 f102 	lsr.w	r1, r1, r2
200016e0:	e00c      	b.n	200016fc <__adddf3+0x184>
200016e2:	f102 0214 	add.w	r2, r2, #20
200016e6:	bfd8      	it	le
200016e8:	f1c2 0c20 	rsble	ip, r2, #32
200016ec:	fa01 f102 	lsl.w	r1, r1, r2
200016f0:	fa20 fc0c 	lsr.w	ip, r0, ip
200016f4:	bfdc      	itt	le
200016f6:	ea41 010c 	orrle.w	r1, r1, ip
200016fa:	4090      	lslle	r0, r2
200016fc:	1ae4      	subs	r4, r4, r3
200016fe:	bfa2      	ittt	ge
20001700:	eb01 5104 	addge.w	r1, r1, r4, lsl #20
20001704:	4329      	orrge	r1, r5
20001706:	bd30      	popge	{r4, r5, pc}
20001708:	ea6f 0404 	mvn.w	r4, r4
2000170c:	3c1f      	subs	r4, #31
2000170e:	da1c      	bge.n	2000174a <__adddf3+0x1d2>
20001710:	340c      	adds	r4, #12
20001712:	dc0e      	bgt.n	20001732 <__adddf3+0x1ba>
20001714:	f104 0414 	add.w	r4, r4, #20
20001718:	f1c4 0220 	rsb	r2, r4, #32
2000171c:	fa20 f004 	lsr.w	r0, r0, r4
20001720:	fa01 f302 	lsl.w	r3, r1, r2
20001724:	ea40 0003 	orr.w	r0, r0, r3
20001728:	fa21 f304 	lsr.w	r3, r1, r4
2000172c:	ea45 0103 	orr.w	r1, r5, r3
20001730:	bd30      	pop	{r4, r5, pc}
20001732:	f1c4 040c 	rsb	r4, r4, #12
20001736:	f1c4 0220 	rsb	r2, r4, #32
2000173a:	fa20 f002 	lsr.w	r0, r0, r2
2000173e:	fa01 f304 	lsl.w	r3, r1, r4
20001742:	ea40 0003 	orr.w	r0, r0, r3
20001746:	4629      	mov	r1, r5
20001748:	bd30      	pop	{r4, r5, pc}
2000174a:	fa21 f004 	lsr.w	r0, r1, r4
2000174e:	4629      	mov	r1, r5
20001750:	bd30      	pop	{r4, r5, pc}
20001752:	f094 0f00 	teq	r4, #0
20001756:	f483 1380 	eor.w	r3, r3, #1048576	; 0x100000
2000175a:	bf06      	itte	eq
2000175c:	f481 1180 	eoreq.w	r1, r1, #1048576	; 0x100000
20001760:	3401      	addeq	r4, #1
20001762:	3d01      	subne	r5, #1
20001764:	e74e      	b.n	20001604 <__adddf3+0x8c>
20001766:	ea7f 5c64 	mvns.w	ip, r4, asr #21
2000176a:	bf18      	it	ne
2000176c:	ea7f 5c65 	mvnsne.w	ip, r5, asr #21
20001770:	d029      	beq.n	200017c6 <__adddf3+0x24e>
20001772:	ea94 0f05 	teq	r4, r5
20001776:	bf08      	it	eq
20001778:	ea90 0f02 	teqeq	r0, r2
2000177c:	d005      	beq.n	2000178a <__adddf3+0x212>
2000177e:	ea54 0c00 	orrs.w	ip, r4, r0
20001782:	bf04      	itt	eq
20001784:	4619      	moveq	r1, r3
20001786:	4610      	moveq	r0, r2
20001788:	bd30      	pop	{r4, r5, pc}
2000178a:	ea91 0f03 	teq	r1, r3
2000178e:	bf1e      	ittt	ne
20001790:	2100      	movne	r1, #0
20001792:	2000      	movne	r0, #0
20001794:	bd30      	popne	{r4, r5, pc}
20001796:	ea5f 5c54 	movs.w	ip, r4, lsr #21
2000179a:	d105      	bne.n	200017a8 <__adddf3+0x230>
2000179c:	0040      	lsls	r0, r0, #1
2000179e:	4149      	adcs	r1, r1
200017a0:	bf28      	it	cs
200017a2:	f041 4100 	orrcs.w	r1, r1, #2147483648	; 0x80000000
200017a6:	bd30      	pop	{r4, r5, pc}
200017a8:	f514 0480 	adds.w	r4, r4, #4194304	; 0x400000
200017ac:	bf3c      	itt	cc
200017ae:	f501 1180 	addcc.w	r1, r1, #1048576	; 0x100000
200017b2:	bd30      	popcc	{r4, r5, pc}
200017b4:	f001 4500 	and.w	r5, r1, #2147483648	; 0x80000000
200017b8:	f045 41fe 	orr.w	r1, r5, #2130706432	; 0x7f000000
200017bc:	f441 0170 	orr.w	r1, r1, #15728640	; 0xf00000
200017c0:	f04f 0000 	mov.w	r0, #0
200017c4:	bd30      	pop	{r4, r5, pc}
200017c6:	ea7f 5c64 	mvns.w	ip, r4, asr #21
200017ca:	bf1a      	itte	ne
200017cc:	4619      	movne	r1, r3
200017ce:	4610      	movne	r0, r2
200017d0:	ea7f 5c65 	mvnseq.w	ip, r5, asr #21
200017d4:	bf1c      	itt	ne
200017d6:	460b      	movne	r3, r1
200017d8:	4602      	movne	r2, r0
200017da:	ea50 3401 	orrs.w	r4, r0, r1, lsl #12
200017de:	bf06      	itte	eq
200017e0:	ea52 3503 	orrseq.w	r5, r2, r3, lsl #12
200017e4:	ea91 0f03 	teqeq	r1, r3
200017e8:	f441 2100 	orrne.w	r1, r1, #524288	; 0x80000
200017ec:	bd30      	pop	{r4, r5, pc}
200017ee:	bf00      	nop

200017f0 <__aeabi_ui2d>:
200017f0:	f090 0f00 	teq	r0, #0
200017f4:	bf04      	itt	eq
200017f6:	2100      	moveq	r1, #0
200017f8:	4770      	bxeq	lr
200017fa:	b530      	push	{r4, r5, lr}
200017fc:	f44f 6480 	mov.w	r4, #1024	; 0x400
20001800:	f104 0432 	add.w	r4, r4, #50	; 0x32
20001804:	f04f 0500 	mov.w	r5, #0
20001808:	f04f 0100 	mov.w	r1, #0
2000180c:	e750      	b.n	200016b0 <__adddf3+0x138>
2000180e:	bf00      	nop

20001810 <__aeabi_i2d>:
20001810:	f090 0f00 	teq	r0, #0
20001814:	bf04      	itt	eq
20001816:	2100      	moveq	r1, #0
20001818:	4770      	bxeq	lr
2000181a:	b530      	push	{r4, r5, lr}
2000181c:	f44f 6480 	mov.w	r4, #1024	; 0x400
20001820:	f104 0432 	add.w	r4, r4, #50	; 0x32
20001824:	f010 4500 	ands.w	r5, r0, #2147483648	; 0x80000000
20001828:	bf48      	it	mi
2000182a:	4240      	negmi	r0, r0
2000182c:	f04f 0100 	mov.w	r1, #0
20001830:	e73e      	b.n	200016b0 <__adddf3+0x138>
20001832:	bf00      	nop

20001834 <__aeabi_f2d>:
20001834:	0042      	lsls	r2, r0, #1
20001836:	ea4f 01e2 	mov.w	r1, r2, asr #3
2000183a:	ea4f 0131 	mov.w	r1, r1, rrx
2000183e:	ea4f 7002 	mov.w	r0, r2, lsl #28
20001842:	bf1f      	itttt	ne
20001844:	f012 437f 	andsne.w	r3, r2, #4278190080	; 0xff000000
20001848:	f093 4f7f 	teqne	r3, #4278190080	; 0xff000000
2000184c:	f081 5160 	eorne.w	r1, r1, #939524096	; 0x38000000
20001850:	4770      	bxne	lr
20001852:	f092 0f00 	teq	r2, #0
20001856:	bf14      	ite	ne
20001858:	f093 4f7f 	teqne	r3, #4278190080	; 0xff000000
2000185c:	4770      	bxeq	lr
2000185e:	b530      	push	{r4, r5, lr}
20001860:	f44f 7460 	mov.w	r4, #896	; 0x380
20001864:	f001 4500 	and.w	r5, r1, #2147483648	; 0x80000000
20001868:	f021 4100 	bic.w	r1, r1, #2147483648	; 0x80000000
2000186c:	e720      	b.n	200016b0 <__adddf3+0x138>
2000186e:	bf00      	nop

20001870 <__aeabi_ul2d>:
20001870:	ea50 0201 	orrs.w	r2, r0, r1
20001874:	bf08      	it	eq
20001876:	4770      	bxeq	lr
20001878:	b530      	push	{r4, r5, lr}
2000187a:	f04f 0500 	mov.w	r5, #0
2000187e:	e00a      	b.n	20001896 <__aeabi_l2d+0x16>

20001880 <__aeabi_l2d>:
20001880:	ea50 0201 	orrs.w	r2, r0, r1
20001884:	bf08      	it	eq
20001886:	4770      	bxeq	lr
20001888:	b530      	push	{r4, r5, lr}
2000188a:	f011 4500 	ands.w	r5, r1, #2147483648	; 0x80000000
2000188e:	d502      	bpl.n	20001896 <__aeabi_l2d+0x16>
20001890:	4240      	negs	r0, r0
20001892:	eb61 0141 	sbc.w	r1, r1, r1, lsl #1
20001896:	f44f 6480 	mov.w	r4, #1024	; 0x400
2000189a:	f104 0432 	add.w	r4, r4, #50	; 0x32
2000189e:	ea5f 5c91 	movs.w	ip, r1, lsr #22
200018a2:	f43f aedc 	beq.w	2000165e <__adddf3+0xe6>
200018a6:	f04f 0203 	mov.w	r2, #3
200018aa:	ea5f 0cdc 	movs.w	ip, ip, lsr #3
200018ae:	bf18      	it	ne
200018b0:	3203      	addne	r2, #3
200018b2:	ea5f 0cdc 	movs.w	ip, ip, lsr #3
200018b6:	bf18      	it	ne
200018b8:	3203      	addne	r2, #3
200018ba:	eb02 02dc 	add.w	r2, r2, ip, lsr #3
200018be:	f1c2 0320 	rsb	r3, r2, #32
200018c2:	fa00 fc03 	lsl.w	ip, r0, r3
200018c6:	fa20 f002 	lsr.w	r0, r0, r2
200018ca:	fa01 fe03 	lsl.w	lr, r1, r3
200018ce:	ea40 000e 	orr.w	r0, r0, lr
200018d2:	fa21 f102 	lsr.w	r1, r1, r2
200018d6:	4414      	add	r4, r2
200018d8:	e6c1      	b.n	2000165e <__adddf3+0xe6>
200018da:	bf00      	nop

200018dc <__aeabi_dmul>:
200018dc:	b570      	push	{r4, r5, r6, lr}
200018de:	f04f 0cff 	mov.w	ip, #255	; 0xff
200018e2:	f44c 6ce0 	orr.w	ip, ip, #1792	; 0x700
200018e6:	ea1c 5411 	ands.w	r4, ip, r1, lsr #20
200018ea:	bf1d      	ittte	ne
200018ec:	ea1c 5513 	andsne.w	r5, ip, r3, lsr #20
200018f0:	ea94 0f0c 	teqne	r4, ip
200018f4:	ea95 0f0c 	teqne	r5, ip
200018f8:	f000 f8de 	bleq	20001ab8 <__aeabi_dmul+0x1dc>
200018fc:	442c      	add	r4, r5
200018fe:	ea81 0603 	eor.w	r6, r1, r3
20001902:	ea21 514c 	bic.w	r1, r1, ip, lsl #21
20001906:	ea23 534c 	bic.w	r3, r3, ip, lsl #21
2000190a:	ea50 3501 	orrs.w	r5, r0, r1, lsl #12
2000190e:	bf18      	it	ne
20001910:	ea52 3503 	orrsne.w	r5, r2, r3, lsl #12
20001914:	f441 1180 	orr.w	r1, r1, #1048576	; 0x100000
20001918:	f443 1380 	orr.w	r3, r3, #1048576	; 0x100000
2000191c:	d038      	beq.n	20001990 <__aeabi_dmul+0xb4>
2000191e:	fba0 ce02 	umull	ip, lr, r0, r2
20001922:	f04f 0500 	mov.w	r5, #0
20001926:	fbe1 e502 	umlal	lr, r5, r1, r2
2000192a:	f006 4200 	and.w	r2, r6, #2147483648	; 0x80000000
2000192e:	fbe0 e503 	umlal	lr, r5, r0, r3
20001932:	f04f 0600 	mov.w	r6, #0
20001936:	fbe1 5603 	umlal	r5, r6, r1, r3
2000193a:	f09c 0f00 	teq	ip, #0
2000193e:	bf18      	it	ne
20001940:	f04e 0e01 	orrne.w	lr, lr, #1
20001944:	f1a4 04ff 	sub.w	r4, r4, #255	; 0xff
20001948:	f5b6 7f00 	cmp.w	r6, #512	; 0x200
2000194c:	f564 7440 	sbc.w	r4, r4, #768	; 0x300
20001950:	d204      	bcs.n	2000195c <__aeabi_dmul+0x80>
20001952:	ea5f 0e4e 	movs.w	lr, lr, lsl #1
20001956:	416d      	adcs	r5, r5
20001958:	eb46 0606 	adc.w	r6, r6, r6
2000195c:	ea42 21c6 	orr.w	r1, r2, r6, lsl #11
20001960:	ea41 5155 	orr.w	r1, r1, r5, lsr #21
20001964:	ea4f 20c5 	mov.w	r0, r5, lsl #11
20001968:	ea40 505e 	orr.w	r0, r0, lr, lsr #21
2000196c:	ea4f 2ece 	mov.w	lr, lr, lsl #11
20001970:	f1b4 0cfd 	subs.w	ip, r4, #253	; 0xfd
20001974:	bf88      	it	hi
20001976:	f5bc 6fe0 	cmphi.w	ip, #1792	; 0x700
2000197a:	d81e      	bhi.n	200019ba <__aeabi_dmul+0xde>
2000197c:	f1be 4f00 	cmp.w	lr, #2147483648	; 0x80000000
20001980:	bf08      	it	eq
20001982:	ea5f 0e50 	movseq.w	lr, r0, lsr #1
20001986:	f150 0000 	adcs.w	r0, r0, #0
2000198a:	eb41 5104 	adc.w	r1, r1, r4, lsl #20
2000198e:	bd70      	pop	{r4, r5, r6, pc}
20001990:	f006 4600 	and.w	r6, r6, #2147483648	; 0x80000000
20001994:	ea46 0101 	orr.w	r1, r6, r1
20001998:	ea40 0002 	orr.w	r0, r0, r2
2000199c:	ea81 0103 	eor.w	r1, r1, r3
200019a0:	ebb4 045c 	subs.w	r4, r4, ip, lsr #1
200019a4:	bfc2      	ittt	gt
200019a6:	ebd4 050c 	rsbsgt	r5, r4, ip
200019aa:	ea41 5104 	orrgt.w	r1, r1, r4, lsl #20
200019ae:	bd70      	popgt	{r4, r5, r6, pc}
200019b0:	f441 1180 	orr.w	r1, r1, #1048576	; 0x100000
200019b4:	f04f 0e00 	mov.w	lr, #0
200019b8:	3c01      	subs	r4, #1
200019ba:	f300 80ab 	bgt.w	20001b14 <__aeabi_dmul+0x238>
200019be:	f114 0f36 	cmn.w	r4, #54	; 0x36
200019c2:	bfde      	ittt	le
200019c4:	2000      	movle	r0, #0
200019c6:	f001 4100 	andle.w	r1, r1, #2147483648	; 0x80000000
200019ca:	bd70      	pople	{r4, r5, r6, pc}
200019cc:	f1c4 0400 	rsb	r4, r4, #0
200019d0:	3c20      	subs	r4, #32
200019d2:	da35      	bge.n	20001a40 <__aeabi_dmul+0x164>
200019d4:	340c      	adds	r4, #12
200019d6:	dc1b      	bgt.n	20001a10 <__aeabi_dmul+0x134>
200019d8:	f104 0414 	add.w	r4, r4, #20
200019dc:	f1c4 0520 	rsb	r5, r4, #32
200019e0:	fa00 f305 	lsl.w	r3, r0, r5
200019e4:	fa20 f004 	lsr.w	r0, r0, r4
200019e8:	fa01 f205 	lsl.w	r2, r1, r5
200019ec:	ea40 0002 	orr.w	r0, r0, r2
200019f0:	f001 4200 	and.w	r2, r1, #2147483648	; 0x80000000
200019f4:	f021 4100 	bic.w	r1, r1, #2147483648	; 0x80000000
200019f8:	eb10 70d3 	adds.w	r0, r0, r3, lsr #31
200019fc:	fa21 f604 	lsr.w	r6, r1, r4
20001a00:	eb42 0106 	adc.w	r1, r2, r6
20001a04:	ea5e 0e43 	orrs.w	lr, lr, r3, lsl #1
20001a08:	bf08      	it	eq
20001a0a:	ea20 70d3 	biceq.w	r0, r0, r3, lsr #31
20001a0e:	bd70      	pop	{r4, r5, r6, pc}
20001a10:	f1c4 040c 	rsb	r4, r4, #12
20001a14:	f1c4 0520 	rsb	r5, r4, #32
20001a18:	fa00 f304 	lsl.w	r3, r0, r4
20001a1c:	fa20 f005 	lsr.w	r0, r0, r5
20001a20:	fa01 f204 	lsl.w	r2, r1, r4
20001a24:	ea40 0002 	orr.w	r0, r0, r2
20001a28:	f001 4100 	and.w	r1, r1, #2147483648	; 0x80000000
20001a2c:	eb10 70d3 	adds.w	r0, r0, r3, lsr #31
20001a30:	f141 0100 	adc.w	r1, r1, #0
20001a34:	ea5e 0e43 	orrs.w	lr, lr, r3, lsl #1
20001a38:	bf08      	it	eq
20001a3a:	ea20 70d3 	biceq.w	r0, r0, r3, lsr #31
20001a3e:	bd70      	pop	{r4, r5, r6, pc}
20001a40:	f1c4 0520 	rsb	r5, r4, #32
20001a44:	fa00 f205 	lsl.w	r2, r0, r5
20001a48:	ea4e 0e02 	orr.w	lr, lr, r2
20001a4c:	fa20 f304 	lsr.w	r3, r0, r4
20001a50:	fa01 f205 	lsl.w	r2, r1, r5
20001a54:	ea43 0302 	orr.w	r3, r3, r2
20001a58:	fa21 f004 	lsr.w	r0, r1, r4
20001a5c:	f001 4100 	and.w	r1, r1, #2147483648	; 0x80000000
20001a60:	fa21 f204 	lsr.w	r2, r1, r4
20001a64:	ea20 0002 	bic.w	r0, r0, r2
20001a68:	eb00 70d3 	add.w	r0, r0, r3, lsr #31
20001a6c:	ea5e 0e43 	orrs.w	lr, lr, r3, lsl #1
20001a70:	bf08      	it	eq
20001a72:	ea20 70d3 	biceq.w	r0, r0, r3, lsr #31
20001a76:	bd70      	pop	{r4, r5, r6, pc}
20001a78:	f094 0f00 	teq	r4, #0
20001a7c:	d10f      	bne.n	20001a9e <__aeabi_dmul+0x1c2>
20001a7e:	f001 4600 	and.w	r6, r1, #2147483648	; 0x80000000
20001a82:	0040      	lsls	r0, r0, #1
20001a84:	eb41 0101 	adc.w	r1, r1, r1
20001a88:	f411 1f80 	tst.w	r1, #1048576	; 0x100000
20001a8c:	bf08      	it	eq
20001a8e:	3c01      	subeq	r4, #1
20001a90:	d0f7      	beq.n	20001a82 <__aeabi_dmul+0x1a6>
20001a92:	ea41 0106 	orr.w	r1, r1, r6
20001a96:	f095 0f00 	teq	r5, #0
20001a9a:	bf18      	it	ne
20001a9c:	4770      	bxne	lr
20001a9e:	f003 4600 	and.w	r6, r3, #2147483648	; 0x80000000
20001aa2:	0052      	lsls	r2, r2, #1
20001aa4:	eb43 0303 	adc.w	r3, r3, r3
20001aa8:	f413 1f80 	tst.w	r3, #1048576	; 0x100000
20001aac:	bf08      	it	eq
20001aae:	3d01      	subeq	r5, #1
20001ab0:	d0f7      	beq.n	20001aa2 <__aeabi_dmul+0x1c6>
20001ab2:	ea43 0306 	orr.w	r3, r3, r6
20001ab6:	4770      	bx	lr
20001ab8:	ea94 0f0c 	teq	r4, ip
20001abc:	ea0c 5513 	and.w	r5, ip, r3, lsr #20
20001ac0:	bf18      	it	ne
20001ac2:	ea95 0f0c 	teqne	r5, ip
20001ac6:	d00c      	beq.n	20001ae2 <__aeabi_dmul+0x206>
20001ac8:	ea50 0641 	orrs.w	r6, r0, r1, lsl #1
20001acc:	bf18      	it	ne
20001ace:	ea52 0643 	orrsne.w	r6, r2, r3, lsl #1
20001ad2:	d1d1      	bne.n	20001a78 <__aeabi_dmul+0x19c>
20001ad4:	ea81 0103 	eor.w	r1, r1, r3
20001ad8:	f001 4100 	and.w	r1, r1, #2147483648	; 0x80000000
20001adc:	f04f 0000 	mov.w	r0, #0
20001ae0:	bd70      	pop	{r4, r5, r6, pc}
20001ae2:	ea50 0641 	orrs.w	r6, r0, r1, lsl #1
20001ae6:	bf06      	itte	eq
20001ae8:	4610      	moveq	r0, r2
20001aea:	4619      	moveq	r1, r3
20001aec:	ea52 0643 	orrsne.w	r6, r2, r3, lsl #1
20001af0:	d019      	beq.n	20001b26 <__aeabi_dmul+0x24a>
20001af2:	ea94 0f0c 	teq	r4, ip
20001af6:	d102      	bne.n	20001afe <__aeabi_dmul+0x222>
20001af8:	ea50 3601 	orrs.w	r6, r0, r1, lsl #12
20001afc:	d113      	bne.n	20001b26 <__aeabi_dmul+0x24a>
20001afe:	ea95 0f0c 	teq	r5, ip
20001b02:	d105      	bne.n	20001b10 <__aeabi_dmul+0x234>
20001b04:	ea52 3603 	orrs.w	r6, r2, r3, lsl #12
20001b08:	bf1c      	itt	ne
20001b0a:	4610      	movne	r0, r2
20001b0c:	4619      	movne	r1, r3
20001b0e:	d10a      	bne.n	20001b26 <__aeabi_dmul+0x24a>
20001b10:	ea81 0103 	eor.w	r1, r1, r3
20001b14:	f001 4100 	and.w	r1, r1, #2147483648	; 0x80000000
20001b18:	f041 41fe 	orr.w	r1, r1, #2130706432	; 0x7f000000
20001b1c:	f441 0170 	orr.w	r1, r1, #15728640	; 0xf00000
20001b20:	f04f 0000 	mov.w	r0, #0
20001b24:	bd70      	pop	{r4, r5, r6, pc}
20001b26:	f041 41fe 	orr.w	r1, r1, #2130706432	; 0x7f000000
20001b2a:	f441 0178 	orr.w	r1, r1, #16252928	; 0xf80000
20001b2e:	bd70      	pop	{r4, r5, r6, pc}

20001b30 <__aeabi_ddiv>:
20001b30:	b570      	push	{r4, r5, r6, lr}
20001b32:	f04f 0cff 	mov.w	ip, #255	; 0xff
20001b36:	f44c 6ce0 	orr.w	ip, ip, #1792	; 0x700
20001b3a:	ea1c 5411 	ands.w	r4, ip, r1, lsr #20
20001b3e:	bf1d      	ittte	ne
20001b40:	ea1c 5513 	andsne.w	r5, ip, r3, lsr #20
20001b44:	ea94 0f0c 	teqne	r4, ip
20001b48:	ea95 0f0c 	teqne	r5, ip
20001b4c:	f000 f8a7 	bleq	20001c9e <__aeabi_ddiv+0x16e>
20001b50:	eba4 0405 	sub.w	r4, r4, r5
20001b54:	ea81 0e03 	eor.w	lr, r1, r3
20001b58:	ea52 3503 	orrs.w	r5, r2, r3, lsl #12
20001b5c:	ea4f 3101 	mov.w	r1, r1, lsl #12
20001b60:	f000 8088 	beq.w	20001c74 <__aeabi_ddiv+0x144>
20001b64:	ea4f 3303 	mov.w	r3, r3, lsl #12
20001b68:	f04f 5580 	mov.w	r5, #268435456	; 0x10000000
20001b6c:	ea45 1313 	orr.w	r3, r5, r3, lsr #4
20001b70:	ea43 6312 	orr.w	r3, r3, r2, lsr #24
20001b74:	ea4f 2202 	mov.w	r2, r2, lsl #8
20001b78:	ea45 1511 	orr.w	r5, r5, r1, lsr #4
20001b7c:	ea45 6510 	orr.w	r5, r5, r0, lsr #24
20001b80:	ea4f 2600 	mov.w	r6, r0, lsl #8
20001b84:	f00e 4100 	and.w	r1, lr, #2147483648	; 0x80000000
20001b88:	429d      	cmp	r5, r3
20001b8a:	bf08      	it	eq
20001b8c:	4296      	cmpeq	r6, r2
20001b8e:	f144 04fd 	adc.w	r4, r4, #253	; 0xfd
20001b92:	f504 7440 	add.w	r4, r4, #768	; 0x300
20001b96:	d202      	bcs.n	20001b9e <__aeabi_ddiv+0x6e>
20001b98:	085b      	lsrs	r3, r3, #1
20001b9a:	ea4f 0232 	mov.w	r2, r2, rrx
20001b9e:	1ab6      	subs	r6, r6, r2
20001ba0:	eb65 0503 	sbc.w	r5, r5, r3
20001ba4:	085b      	lsrs	r3, r3, #1
20001ba6:	ea4f 0232 	mov.w	r2, r2, rrx
20001baa:	f44f 1080 	mov.w	r0, #1048576	; 0x100000
20001bae:	f44f 2c00 	mov.w	ip, #524288	; 0x80000
20001bb2:	ebb6 0e02 	subs.w	lr, r6, r2
20001bb6:	eb75 0e03 	sbcs.w	lr, r5, r3
20001bba:	bf22      	ittt	cs
20001bbc:	1ab6      	subcs	r6, r6, r2
20001bbe:	4675      	movcs	r5, lr
20001bc0:	ea40 000c 	orrcs.w	r0, r0, ip
20001bc4:	085b      	lsrs	r3, r3, #1
20001bc6:	ea4f 0232 	mov.w	r2, r2, rrx
20001bca:	ebb6 0e02 	subs.w	lr, r6, r2
20001bce:	eb75 0e03 	sbcs.w	lr, r5, r3
20001bd2:	bf22      	ittt	cs
20001bd4:	1ab6      	subcs	r6, r6, r2
20001bd6:	4675      	movcs	r5, lr
20001bd8:	ea40 005c 	orrcs.w	r0, r0, ip, lsr #1
20001bdc:	085b      	lsrs	r3, r3, #1
20001bde:	ea4f 0232 	mov.w	r2, r2, rrx
20001be2:	ebb6 0e02 	subs.w	lr, r6, r2
20001be6:	eb75 0e03 	sbcs.w	lr, r5, r3
20001bea:	bf22      	ittt	cs
20001bec:	1ab6      	subcs	r6, r6, r2
20001bee:	4675      	movcs	r5, lr
20001bf0:	ea40 009c 	orrcs.w	r0, r0, ip, lsr #2
20001bf4:	085b      	lsrs	r3, r3, #1
20001bf6:	ea4f 0232 	mov.w	r2, r2, rrx
20001bfa:	ebb6 0e02 	subs.w	lr, r6, r2
20001bfe:	eb75 0e03 	sbcs.w	lr, r5, r3
20001c02:	bf22      	ittt	cs
20001c04:	1ab6      	subcs	r6, r6, r2
20001c06:	4675      	movcs	r5, lr
20001c08:	ea40 00dc 	orrcs.w	r0, r0, ip, lsr #3
20001c0c:	ea55 0e06 	orrs.w	lr, r5, r6
20001c10:	d018      	beq.n	20001c44 <__aeabi_ddiv+0x114>
20001c12:	ea4f 1505 	mov.w	r5, r5, lsl #4
20001c16:	ea45 7516 	orr.w	r5, r5, r6, lsr #28
20001c1a:	ea4f 1606 	mov.w	r6, r6, lsl #4
20001c1e:	ea4f 03c3 	mov.w	r3, r3, lsl #3
20001c22:	ea43 7352 	orr.w	r3, r3, r2, lsr #29
20001c26:	ea4f 02c2 	mov.w	r2, r2, lsl #3
20001c2a:	ea5f 1c1c 	movs.w	ip, ip, lsr #4
20001c2e:	d1c0      	bne.n	20001bb2 <__aeabi_ddiv+0x82>
20001c30:	f411 1f80 	tst.w	r1, #1048576	; 0x100000
20001c34:	d10b      	bne.n	20001c4e <__aeabi_ddiv+0x11e>
20001c36:	ea41 0100 	orr.w	r1, r1, r0
20001c3a:	f04f 0000 	mov.w	r0, #0
20001c3e:	f04f 4c00 	mov.w	ip, #2147483648	; 0x80000000
20001c42:	e7b6      	b.n	20001bb2 <__aeabi_ddiv+0x82>
20001c44:	f411 1f80 	tst.w	r1, #1048576	; 0x100000
20001c48:	bf04      	itt	eq
20001c4a:	4301      	orreq	r1, r0
20001c4c:	2000      	moveq	r0, #0
20001c4e:	f1b4 0cfd 	subs.w	ip, r4, #253	; 0xfd
20001c52:	bf88      	it	hi
20001c54:	f5bc 6fe0 	cmphi.w	ip, #1792	; 0x700
20001c58:	f63f aeaf 	bhi.w	200019ba <__aeabi_dmul+0xde>
20001c5c:	ebb5 0c03 	subs.w	ip, r5, r3
20001c60:	bf04      	itt	eq
20001c62:	ebb6 0c02 	subseq.w	ip, r6, r2
20001c66:	ea5f 0c50 	movseq.w	ip, r0, lsr #1
20001c6a:	f150 0000 	adcs.w	r0, r0, #0
20001c6e:	eb41 5104 	adc.w	r1, r1, r4, lsl #20
20001c72:	bd70      	pop	{r4, r5, r6, pc}
20001c74:	f00e 4e00 	and.w	lr, lr, #2147483648	; 0x80000000
20001c78:	ea4e 3111 	orr.w	r1, lr, r1, lsr #12
20001c7c:	eb14 045c 	adds.w	r4, r4, ip, lsr #1
20001c80:	bfc2      	ittt	gt
20001c82:	ebd4 050c 	rsbsgt	r5, r4, ip
20001c86:	ea41 5104 	orrgt.w	r1, r1, r4, lsl #20
20001c8a:	bd70      	popgt	{r4, r5, r6, pc}
20001c8c:	f441 1180 	orr.w	r1, r1, #1048576	; 0x100000
20001c90:	f04f 0e00 	mov.w	lr, #0
20001c94:	3c01      	subs	r4, #1
20001c96:	e690      	b.n	200019ba <__aeabi_dmul+0xde>
20001c98:	ea45 0e06 	orr.w	lr, r5, r6
20001c9c:	e68d      	b.n	200019ba <__aeabi_dmul+0xde>
20001c9e:	ea0c 5513 	and.w	r5, ip, r3, lsr #20
20001ca2:	ea94 0f0c 	teq	r4, ip
20001ca6:	bf08      	it	eq
20001ca8:	ea95 0f0c 	teqeq	r5, ip
20001cac:	f43f af3b 	beq.w	20001b26 <__aeabi_dmul+0x24a>
20001cb0:	ea94 0f0c 	teq	r4, ip
20001cb4:	d10a      	bne.n	20001ccc <__aeabi_ddiv+0x19c>
20001cb6:	ea50 3401 	orrs.w	r4, r0, r1, lsl #12
20001cba:	f47f af34 	bne.w	20001b26 <__aeabi_dmul+0x24a>
20001cbe:	ea95 0f0c 	teq	r5, ip
20001cc2:	f47f af25 	bne.w	20001b10 <__aeabi_dmul+0x234>
20001cc6:	4610      	mov	r0, r2
20001cc8:	4619      	mov	r1, r3
20001cca:	e72c      	b.n	20001b26 <__aeabi_dmul+0x24a>
20001ccc:	ea95 0f0c 	teq	r5, ip
20001cd0:	d106      	bne.n	20001ce0 <__aeabi_ddiv+0x1b0>
20001cd2:	ea52 3503 	orrs.w	r5, r2, r3, lsl #12
20001cd6:	f43f aefd 	beq.w	20001ad4 <__aeabi_dmul+0x1f8>
20001cda:	4610      	mov	r0, r2
20001cdc:	4619      	mov	r1, r3
20001cde:	e722      	b.n	20001b26 <__aeabi_dmul+0x24a>
20001ce0:	ea50 0641 	orrs.w	r6, r0, r1, lsl #1
20001ce4:	bf18      	it	ne
20001ce6:	ea52 0643 	orrsne.w	r6, r2, r3, lsl #1
20001cea:	f47f aec5 	bne.w	20001a78 <__aeabi_dmul+0x19c>
20001cee:	ea50 0441 	orrs.w	r4, r0, r1, lsl #1
20001cf2:	f47f af0d 	bne.w	20001b10 <__aeabi_dmul+0x234>
20001cf6:	ea52 0543 	orrs.w	r5, r2, r3, lsl #1
20001cfa:	f47f aeeb 	bne.w	20001ad4 <__aeabi_dmul+0x1f8>
20001cfe:	e712      	b.n	20001b26 <__aeabi_dmul+0x24a>

20001d00 <__gedf2>:
20001d00:	f04f 3cff 	mov.w	ip, #4294967295
20001d04:	e006      	b.n	20001d14 <__cmpdf2+0x4>
20001d06:	bf00      	nop

20001d08 <__ledf2>:
20001d08:	f04f 0c01 	mov.w	ip, #1
20001d0c:	e002      	b.n	20001d14 <__cmpdf2+0x4>
20001d0e:	bf00      	nop

20001d10 <__cmpdf2>:
20001d10:	f04f 0c01 	mov.w	ip, #1
20001d14:	f84d cd04 	str.w	ip, [sp, #-4]!
20001d18:	ea4f 0c41 	mov.w	ip, r1, lsl #1
20001d1c:	ea7f 5c6c 	mvns.w	ip, ip, asr #21
20001d20:	ea4f 0c43 	mov.w	ip, r3, lsl #1
20001d24:	bf18      	it	ne
20001d26:	ea7f 5c6c 	mvnsne.w	ip, ip, asr #21
20001d2a:	d01b      	beq.n	20001d64 <__cmpdf2+0x54>
20001d2c:	b001      	add	sp, #4
20001d2e:	ea50 0c41 	orrs.w	ip, r0, r1, lsl #1
20001d32:	bf0c      	ite	eq
20001d34:	ea52 0c43 	orrseq.w	ip, r2, r3, lsl #1
20001d38:	ea91 0f03 	teqne	r1, r3
20001d3c:	bf02      	ittt	eq
20001d3e:	ea90 0f02 	teqeq	r0, r2
20001d42:	2000      	moveq	r0, #0
20001d44:	4770      	bxeq	lr
20001d46:	f110 0f00 	cmn.w	r0, #0
20001d4a:	ea91 0f03 	teq	r1, r3
20001d4e:	bf58      	it	pl
20001d50:	4299      	cmppl	r1, r3
20001d52:	bf08      	it	eq
20001d54:	4290      	cmpeq	r0, r2
20001d56:	bf2c      	ite	cs
20001d58:	17d8      	asrcs	r0, r3, #31
20001d5a:	ea6f 70e3 	mvncc.w	r0, r3, asr #31
20001d5e:	f040 0001 	orr.w	r0, r0, #1
20001d62:	4770      	bx	lr
20001d64:	ea4f 0c41 	mov.w	ip, r1, lsl #1
20001d68:	ea7f 5c6c 	mvns.w	ip, ip, asr #21
20001d6c:	d102      	bne.n	20001d74 <__cmpdf2+0x64>
20001d6e:	ea50 3c01 	orrs.w	ip, r0, r1, lsl #12
20001d72:	d107      	bne.n	20001d84 <__cmpdf2+0x74>
20001d74:	ea4f 0c43 	mov.w	ip, r3, lsl #1
20001d78:	ea7f 5c6c 	mvns.w	ip, ip, asr #21
20001d7c:	d1d6      	bne.n	20001d2c <__cmpdf2+0x1c>
20001d7e:	ea52 3c03 	orrs.w	ip, r2, r3, lsl #12
20001d82:	d0d3      	beq.n	20001d2c <__cmpdf2+0x1c>
20001d84:	f85d 0b04 	ldr.w	r0, [sp], #4
20001d88:	4770      	bx	lr
20001d8a:	bf00      	nop

20001d8c <__aeabi_cdrcmple>:
20001d8c:	4684      	mov	ip, r0
20001d8e:	4610      	mov	r0, r2
20001d90:	4662      	mov	r2, ip
20001d92:	468c      	mov	ip, r1
20001d94:	4619      	mov	r1, r3
20001d96:	4663      	mov	r3, ip
20001d98:	e000      	b.n	20001d9c <__aeabi_cdcmpeq>
20001d9a:	bf00      	nop

20001d9c <__aeabi_cdcmpeq>:
20001d9c:	b501      	push	{r0, lr}
20001d9e:	f7ff ffb7 	bl	20001d10 <__cmpdf2>
20001da2:	2800      	cmp	r0, #0
20001da4:	bf48      	it	mi
20001da6:	f110 0f00 	cmnmi.w	r0, #0
20001daa:	bd01      	pop	{r0, pc}

20001dac <__aeabi_dcmpeq>:
20001dac:	f84d ed08 	str.w	lr, [sp, #-8]!
20001db0:	f7ff fff4 	bl	20001d9c <__aeabi_cdcmpeq>
20001db4:	bf0c      	ite	eq
20001db6:	2001      	moveq	r0, #1
20001db8:	2000      	movne	r0, #0
20001dba:	f85d fb08 	ldr.w	pc, [sp], #8
20001dbe:	bf00      	nop

20001dc0 <__aeabi_dcmplt>:
20001dc0:	f84d ed08 	str.w	lr, [sp, #-8]!
20001dc4:	f7ff ffea 	bl	20001d9c <__aeabi_cdcmpeq>
20001dc8:	bf34      	ite	cc
20001dca:	2001      	movcc	r0, #1
20001dcc:	2000      	movcs	r0, #0
20001dce:	f85d fb08 	ldr.w	pc, [sp], #8
20001dd2:	bf00      	nop

20001dd4 <__aeabi_dcmple>:
20001dd4:	f84d ed08 	str.w	lr, [sp, #-8]!
20001dd8:	f7ff ffe0 	bl	20001d9c <__aeabi_cdcmpeq>
20001ddc:	bf94      	ite	ls
20001dde:	2001      	movls	r0, #1
20001de0:	2000      	movhi	r0, #0
20001de2:	f85d fb08 	ldr.w	pc, [sp], #8
20001de6:	bf00      	nop

20001de8 <__aeabi_dcmpge>:
20001de8:	f84d ed08 	str.w	lr, [sp, #-8]!
20001dec:	f7ff ffce 	bl	20001d8c <__aeabi_cdrcmple>
20001df0:	bf94      	ite	ls
20001df2:	2001      	movls	r0, #1
20001df4:	2000      	movhi	r0, #0
20001df6:	f85d fb08 	ldr.w	pc, [sp], #8
20001dfa:	bf00      	nop

20001dfc <__aeabi_dcmpgt>:
20001dfc:	f84d ed08 	str.w	lr, [sp, #-8]!
20001e00:	f7ff ffc4 	bl	20001d8c <__aeabi_cdrcmple>
20001e04:	bf34      	ite	cc
20001e06:	2001      	movcc	r0, #1
20001e08:	2000      	movcs	r0, #0
20001e0a:	f85d fb08 	ldr.w	pc, [sp], #8
20001e0e:	bf00      	nop

20001e10 <__aeabi_d2uiz>:
20001e10:	004a      	lsls	r2, r1, #1
20001e12:	d211      	bcs.n	20001e38 <__aeabi_d2uiz+0x28>
20001e14:	f512 1200 	adds.w	r2, r2, #2097152	; 0x200000
20001e18:	d211      	bcs.n	20001e3e <__aeabi_d2uiz+0x2e>
20001e1a:	d50d      	bpl.n	20001e38 <__aeabi_d2uiz+0x28>
20001e1c:	f46f 7378 	mvn.w	r3, #992	; 0x3e0
20001e20:	ebb3 5262 	subs.w	r2, r3, r2, asr #21
20001e24:	d40e      	bmi.n	20001e44 <__aeabi_d2uiz+0x34>
20001e26:	ea4f 23c1 	mov.w	r3, r1, lsl #11
20001e2a:	f043 4300 	orr.w	r3, r3, #2147483648	; 0x80000000
20001e2e:	ea43 5350 	orr.w	r3, r3, r0, lsr #21
20001e32:	fa23 f002 	lsr.w	r0, r3, r2
20001e36:	4770      	bx	lr
20001e38:	f04f 0000 	mov.w	r0, #0
20001e3c:	4770      	bx	lr
20001e3e:	ea50 3001 	orrs.w	r0, r0, r1, lsl #12
20001e42:	d102      	bne.n	20001e4a <__aeabi_d2uiz+0x3a>
20001e44:	f04f 30ff 	mov.w	r0, #4294967295
20001e48:	4770      	bx	lr
20001e4a:	f04f 0000 	mov.w	r0, #0
20001e4e:	4770      	bx	lr

20001e50 <__errno>:
20001e50:	f642 2310 	movw	r3, #10768	; 0x2a10
20001e54:	f2c2 0300 	movt	r3, #8192	; 0x2000
20001e58:	6818      	ldr	r0, [r3, #0]
20001e5a:	4770      	bx	lr

20001e5c <__libc_init_array>:
20001e5c:	b570      	push	{r4, r5, r6, lr}
20001e5e:	f642 16f0 	movw	r6, #10736	; 0x29f0
20001e62:	f642 15f0 	movw	r5, #10736	; 0x29f0
20001e66:	f2c2 0600 	movt	r6, #8192	; 0x2000
20001e6a:	f2c2 0500 	movt	r5, #8192	; 0x2000
20001e6e:	1b76      	subs	r6, r6, r5
20001e70:	10b6      	asrs	r6, r6, #2
20001e72:	d006      	beq.n	20001e82 <__libc_init_array+0x26>
20001e74:	2400      	movs	r4, #0
20001e76:	f855 3024 	ldr.w	r3, [r5, r4, lsl #2]
20001e7a:	3401      	adds	r4, #1
20001e7c:	4798      	blx	r3
20001e7e:	42a6      	cmp	r6, r4
20001e80:	d8f9      	bhi.n	20001e76 <__libc_init_array+0x1a>
20001e82:	f642 15f0 	movw	r5, #10736	; 0x29f0
20001e86:	f642 16f4 	movw	r6, #10740	; 0x29f4
20001e8a:	f2c2 0500 	movt	r5, #8192	; 0x2000
20001e8e:	f2c2 0600 	movt	r6, #8192	; 0x2000
20001e92:	1b76      	subs	r6, r6, r5
20001e94:	f000 fda0 	bl	200029d8 <_init>
20001e98:	10b6      	asrs	r6, r6, #2
20001e9a:	d006      	beq.n	20001eaa <__libc_init_array+0x4e>
20001e9c:	2400      	movs	r4, #0
20001e9e:	f855 3024 	ldr.w	r3, [r5, r4, lsl #2]
20001ea2:	3401      	adds	r4, #1
20001ea4:	4798      	blx	r3
20001ea6:	42a6      	cmp	r6, r4
20001ea8:	d8f9      	bhi.n	20001e9e <__libc_init_array+0x42>
20001eaa:	bd70      	pop	{r4, r5, r6, pc}

20001eac <free>:
20001eac:	f642 2310 	movw	r3, #10768	; 0x2a10
20001eb0:	4601      	mov	r1, r0
20001eb2:	f2c2 0300 	movt	r3, #8192	; 0x2000
20001eb6:	6818      	ldr	r0, [r3, #0]
20001eb8:	f000 bb46 	b.w	20002548 <_free_r>

20001ebc <malloc>:
20001ebc:	f642 2310 	movw	r3, #10768	; 0x2a10
20001ec0:	4601      	mov	r1, r0
20001ec2:	f2c2 0300 	movt	r3, #8192	; 0x2000
20001ec6:	6818      	ldr	r0, [r3, #0]
20001ec8:	f000 b800 	b.w	20001ecc <_malloc_r>

20001ecc <_malloc_r>:
20001ecc:	e92d 4ff0 	stmdb	sp!, {r4, r5, r6, r7, r8, r9, sl, fp, lr}
20001ed0:	f101 040b 	add.w	r4, r1, #11
20001ed4:	2c16      	cmp	r4, #22
20001ed6:	b083      	sub	sp, #12
20001ed8:	4606      	mov	r6, r0
20001eda:	d82f      	bhi.n	20001f3c <_malloc_r+0x70>
20001edc:	2300      	movs	r3, #0
20001ede:	2410      	movs	r4, #16
20001ee0:	428c      	cmp	r4, r1
20001ee2:	bf2c      	ite	cs
20001ee4:	4619      	movcs	r1, r3
20001ee6:	f043 0101 	orrcc.w	r1, r3, #1
20001eea:	2900      	cmp	r1, #0
20001eec:	d130      	bne.n	20001f50 <_malloc_r+0x84>
20001eee:	4630      	mov	r0, r6
20001ef0:	f000 fabe 	bl	20002470 <__malloc_lock>
20001ef4:	f5b4 7ffc 	cmp.w	r4, #504	; 0x1f8
20001ef8:	d22e      	bcs.n	20001f58 <_malloc_r+0x8c>
20001efa:	ea4f 0ed4 	mov.w	lr, r4, lsr #3
20001efe:	f642 3504 	movw	r5, #11012	; 0x2b04
20001f02:	f2c2 0500 	movt	r5, #8192	; 0x2000
20001f06:	eb05 02ce 	add.w	r2, r5, lr, lsl #3
20001f0a:	68d3      	ldr	r3, [r2, #12]
20001f0c:	4293      	cmp	r3, r2
20001f0e:	f000 8206 	beq.w	2000231e <_malloc_r+0x452>
20001f12:	685a      	ldr	r2, [r3, #4]
20001f14:	f103 0508 	add.w	r5, r3, #8
20001f18:	68d9      	ldr	r1, [r3, #12]
20001f1a:	4630      	mov	r0, r6
20001f1c:	f022 0c03 	bic.w	ip, r2, #3
20001f20:	689a      	ldr	r2, [r3, #8]
20001f22:	4463      	add	r3, ip
20001f24:	685c      	ldr	r4, [r3, #4]
20001f26:	608a      	str	r2, [r1, #8]
20001f28:	f044 0401 	orr.w	r4, r4, #1
20001f2c:	60d1      	str	r1, [r2, #12]
20001f2e:	605c      	str	r4, [r3, #4]
20001f30:	f000 faa0 	bl	20002474 <__malloc_unlock>
20001f34:	4628      	mov	r0, r5
20001f36:	b003      	add	sp, #12
20001f38:	e8bd 8ff0 	ldmia.w	sp!, {r4, r5, r6, r7, r8, r9, sl, fp, pc}
20001f3c:	f024 0407 	bic.w	r4, r4, #7
20001f40:	0fe3      	lsrs	r3, r4, #31
20001f42:	428c      	cmp	r4, r1
20001f44:	bf2c      	ite	cs
20001f46:	4619      	movcs	r1, r3
20001f48:	f043 0101 	orrcc.w	r1, r3, #1
20001f4c:	2900      	cmp	r1, #0
20001f4e:	d0ce      	beq.n	20001eee <_malloc_r+0x22>
20001f50:	230c      	movs	r3, #12
20001f52:	2500      	movs	r5, #0
20001f54:	6033      	str	r3, [r6, #0]
20001f56:	e7ed      	b.n	20001f34 <_malloc_r+0x68>
20001f58:	ea5f 2e54 	movs.w	lr, r4, lsr #9
20001f5c:	bf04      	itt	eq
20001f5e:	ea4f 0ed4 	moveq.w	lr, r4, lsr #3
20001f62:	ea4f 00ce 	moveq.w	r0, lr, lsl #3
20001f66:	f040 8090 	bne.w	2000208a <_malloc_r+0x1be>
20001f6a:	f642 3504 	movw	r5, #11012	; 0x2b04
20001f6e:	f2c2 0500 	movt	r5, #8192	; 0x2000
20001f72:	1828      	adds	r0, r5, r0
20001f74:	68c3      	ldr	r3, [r0, #12]
20001f76:	4298      	cmp	r0, r3
20001f78:	d106      	bne.n	20001f88 <_malloc_r+0xbc>
20001f7a:	e00d      	b.n	20001f98 <_malloc_r+0xcc>
20001f7c:	2a00      	cmp	r2, #0
20001f7e:	f280 816f 	bge.w	20002260 <_malloc_r+0x394>
20001f82:	68db      	ldr	r3, [r3, #12]
20001f84:	4298      	cmp	r0, r3
20001f86:	d007      	beq.n	20001f98 <_malloc_r+0xcc>
20001f88:	6859      	ldr	r1, [r3, #4]
20001f8a:	f021 0103 	bic.w	r1, r1, #3
20001f8e:	1b0a      	subs	r2, r1, r4
20001f90:	2a0f      	cmp	r2, #15
20001f92:	ddf3      	ble.n	20001f7c <_malloc_r+0xb0>
20001f94:	f10e 3eff 	add.w	lr, lr, #4294967295
20001f98:	f10e 0e01 	add.w	lr, lr, #1
20001f9c:	f642 3704 	movw	r7, #11012	; 0x2b04
20001fa0:	f2c2 0700 	movt	r7, #8192	; 0x2000
20001fa4:	f107 0108 	add.w	r1, r7, #8
20001fa8:	688b      	ldr	r3, [r1, #8]
20001faa:	4299      	cmp	r1, r3
20001fac:	bf08      	it	eq
20001fae:	687a      	ldreq	r2, [r7, #4]
20001fb0:	d026      	beq.n	20002000 <_malloc_r+0x134>
20001fb2:	685a      	ldr	r2, [r3, #4]
20001fb4:	f022 0c03 	bic.w	ip, r2, #3
20001fb8:	ebc4 020c 	rsb	r2, r4, ip
20001fbc:	2a0f      	cmp	r2, #15
20001fbe:	f300 8194 	bgt.w	200022ea <_malloc_r+0x41e>
20001fc2:	2a00      	cmp	r2, #0
20001fc4:	60c9      	str	r1, [r1, #12]
20001fc6:	6089      	str	r1, [r1, #8]
20001fc8:	f280 8099 	bge.w	200020fe <_malloc_r+0x232>
20001fcc:	f5bc 7f00 	cmp.w	ip, #512	; 0x200
20001fd0:	f080 8165 	bcs.w	2000229e <_malloc_r+0x3d2>
20001fd4:	ea4f 0cdc 	mov.w	ip, ip, lsr #3
20001fd8:	f04f 0a01 	mov.w	sl, #1
20001fdc:	687a      	ldr	r2, [r7, #4]
20001fde:	eb07 00cc 	add.w	r0, r7, ip, lsl #3
20001fe2:	ea4f 0cac 	mov.w	ip, ip, asr #2
20001fe6:	fa0a fc0c 	lsl.w	ip, sl, ip
20001fea:	60d8      	str	r0, [r3, #12]
20001fec:	f8d0 8008 	ldr.w	r8, [r0, #8]
20001ff0:	ea4c 0202 	orr.w	r2, ip, r2
20001ff4:	607a      	str	r2, [r7, #4]
20001ff6:	f8c3 8008 	str.w	r8, [r3, #8]
20001ffa:	f8c8 300c 	str.w	r3, [r8, #12]
20001ffe:	6083      	str	r3, [r0, #8]
20002000:	f04f 0c01 	mov.w	ip, #1
20002004:	ea4f 03ae 	mov.w	r3, lr, asr #2
20002008:	fa0c fc03 	lsl.w	ip, ip, r3
2000200c:	4594      	cmp	ip, r2
2000200e:	f200 8082 	bhi.w	20002116 <_malloc_r+0x24a>
20002012:	ea12 0f0c 	tst.w	r2, ip
20002016:	d108      	bne.n	2000202a <_malloc_r+0x15e>
20002018:	f02e 0e03 	bic.w	lr, lr, #3
2000201c:	ea4f 0c4c 	mov.w	ip, ip, lsl #1
20002020:	f10e 0e04 	add.w	lr, lr, #4
20002024:	ea12 0f0c 	tst.w	r2, ip
20002028:	d0f8      	beq.n	2000201c <_malloc_r+0x150>
2000202a:	eb07 09ce 	add.w	r9, r7, lr, lsl #3
2000202e:	46f2      	mov	sl, lr
20002030:	46c8      	mov	r8, r9
20002032:	f8d8 300c 	ldr.w	r3, [r8, #12]
20002036:	4598      	cmp	r8, r3
20002038:	d107      	bne.n	2000204a <_malloc_r+0x17e>
2000203a:	e168      	b.n	2000230e <_malloc_r+0x442>
2000203c:	2a00      	cmp	r2, #0
2000203e:	f280 8178 	bge.w	20002332 <_malloc_r+0x466>
20002042:	68db      	ldr	r3, [r3, #12]
20002044:	4598      	cmp	r8, r3
20002046:	f000 8162 	beq.w	2000230e <_malloc_r+0x442>
2000204a:	6858      	ldr	r0, [r3, #4]
2000204c:	f020 0003 	bic.w	r0, r0, #3
20002050:	1b02      	subs	r2, r0, r4
20002052:	2a0f      	cmp	r2, #15
20002054:	ddf2      	ble.n	2000203c <_malloc_r+0x170>
20002056:	461d      	mov	r5, r3
20002058:	191f      	adds	r7, r3, r4
2000205a:	f8d3 c00c 	ldr.w	ip, [r3, #12]
2000205e:	f044 0e01 	orr.w	lr, r4, #1
20002062:	f855 4f08 	ldr.w	r4, [r5, #8]!
20002066:	4630      	mov	r0, r6
20002068:	50ba      	str	r2, [r7, r2]
2000206a:	f042 0201 	orr.w	r2, r2, #1
2000206e:	f8c3 e004 	str.w	lr, [r3, #4]
20002072:	f8cc 4008 	str.w	r4, [ip, #8]
20002076:	f8c4 c00c 	str.w	ip, [r4, #12]
2000207a:	608f      	str	r7, [r1, #8]
2000207c:	60cf      	str	r7, [r1, #12]
2000207e:	607a      	str	r2, [r7, #4]
20002080:	60b9      	str	r1, [r7, #8]
20002082:	60f9      	str	r1, [r7, #12]
20002084:	f000 f9f6 	bl	20002474 <__malloc_unlock>
20002088:	e754      	b.n	20001f34 <_malloc_r+0x68>
2000208a:	f1be 0f04 	cmp.w	lr, #4
2000208e:	bf9e      	ittt	ls
20002090:	ea4f 1e94 	movls.w	lr, r4, lsr #6
20002094:	f10e 0e38 	addls.w	lr, lr, #56	; 0x38
20002098:	ea4f 00ce 	movls.w	r0, lr, lsl #3
2000209c:	f67f af65 	bls.w	20001f6a <_malloc_r+0x9e>
200020a0:	f1be 0f14 	cmp.w	lr, #20
200020a4:	bf9c      	itt	ls
200020a6:	f10e 0e5b 	addls.w	lr, lr, #91	; 0x5b
200020aa:	ea4f 00ce 	movls.w	r0, lr, lsl #3
200020ae:	f67f af5c 	bls.w	20001f6a <_malloc_r+0x9e>
200020b2:	f1be 0f54 	cmp.w	lr, #84	; 0x54
200020b6:	bf9e      	ittt	ls
200020b8:	ea4f 3e14 	movls.w	lr, r4, lsr #12
200020bc:	f10e 0e6e 	addls.w	lr, lr, #110	; 0x6e
200020c0:	ea4f 00ce 	movls.w	r0, lr, lsl #3
200020c4:	f67f af51 	bls.w	20001f6a <_malloc_r+0x9e>
200020c8:	f5be 7faa 	cmp.w	lr, #340	; 0x154
200020cc:	bf9e      	ittt	ls
200020ce:	ea4f 3ed4 	movls.w	lr, r4, lsr #15
200020d2:	f10e 0e77 	addls.w	lr, lr, #119	; 0x77
200020d6:	ea4f 00ce 	movls.w	r0, lr, lsl #3
200020da:	f67f af46 	bls.w	20001f6a <_malloc_r+0x9e>
200020de:	f240 5354 	movw	r3, #1364	; 0x554
200020e2:	459e      	cmp	lr, r3
200020e4:	bf95      	itete	ls
200020e6:	ea4f 4e94 	movls.w	lr, r4, lsr #18
200020ea:	f44f 707c 	movhi.w	r0, #1008	; 0x3f0
200020ee:	f10e 0e7c 	addls.w	lr, lr, #124	; 0x7c
200020f2:	f04f 0e7e 	movhi.w	lr, #126	; 0x7e
200020f6:	bf98      	it	ls
200020f8:	ea4f 00ce 	movls.w	r0, lr, lsl #3
200020fc:	e735      	b.n	20001f6a <_malloc_r+0x9e>
200020fe:	eb03 020c 	add.w	r2, r3, ip
20002102:	f103 0508 	add.w	r5, r3, #8
20002106:	4630      	mov	r0, r6
20002108:	6853      	ldr	r3, [r2, #4]
2000210a:	f043 0301 	orr.w	r3, r3, #1
2000210e:	6053      	str	r3, [r2, #4]
20002110:	f000 f9b0 	bl	20002474 <__malloc_unlock>
20002114:	e70e      	b.n	20001f34 <_malloc_r+0x68>
20002116:	f8d7 8008 	ldr.w	r8, [r7, #8]
2000211a:	f8d8 3004 	ldr.w	r3, [r8, #4]
2000211e:	f023 0903 	bic.w	r9, r3, #3
20002122:	ebc4 0209 	rsb	r2, r4, r9
20002126:	454c      	cmp	r4, r9
20002128:	bf94      	ite	ls
2000212a:	2300      	movls	r3, #0
2000212c:	2301      	movhi	r3, #1
2000212e:	2a0f      	cmp	r2, #15
20002130:	bfd8      	it	le
20002132:	f043 0301 	orrle.w	r3, r3, #1
20002136:	2b00      	cmp	r3, #0
20002138:	f000 80a1 	beq.w	2000227e <_malloc_r+0x3b2>
2000213c:	f642 7b24 	movw	fp, #12068	; 0x2f24
20002140:	f8d5 2408 	ldr.w	r2, [r5, #1032]	; 0x408
20002144:	f2c2 0b00 	movt	fp, #8192	; 0x2000
20002148:	f8db 3000 	ldr.w	r3, [fp]
2000214c:	3310      	adds	r3, #16
2000214e:	191b      	adds	r3, r3, r4
20002150:	f1b2 3fff 	cmp.w	r2, #4294967295
20002154:	d006      	beq.n	20002164 <_malloc_r+0x298>
20002156:	f503 637e 	add.w	r3, r3, #4064	; 0xfe0
2000215a:	331f      	adds	r3, #31
2000215c:	f423 637e 	bic.w	r3, r3, #4064	; 0xfe0
20002160:	f023 031f 	bic.w	r3, r3, #31
20002164:	4619      	mov	r1, r3
20002166:	4630      	mov	r0, r6
20002168:	9301      	str	r3, [sp, #4]
2000216a:	f000 f985 	bl	20002478 <_sbrk_r>
2000216e:	9b01      	ldr	r3, [sp, #4]
20002170:	f1b0 3fff 	cmp.w	r0, #4294967295
20002174:	4682      	mov	sl, r0
20002176:	f000 80f4 	beq.w	20002362 <_malloc_r+0x496>
2000217a:	eb08 0109 	add.w	r1, r8, r9
2000217e:	4281      	cmp	r1, r0
20002180:	f200 80ec 	bhi.w	2000235c <_malloc_r+0x490>
20002184:	f8db 2004 	ldr.w	r2, [fp, #4]
20002188:	189a      	adds	r2, r3, r2
2000218a:	4551      	cmp	r1, sl
2000218c:	f8cb 2004 	str.w	r2, [fp, #4]
20002190:	f000 8145 	beq.w	2000241e <_malloc_r+0x552>
20002194:	f8d5 5408 	ldr.w	r5, [r5, #1032]	; 0x408
20002198:	f642 3004 	movw	r0, #11012	; 0x2b04
2000219c:	f2c2 0000 	movt	r0, #8192	; 0x2000
200021a0:	f1b5 3fff 	cmp.w	r5, #4294967295
200021a4:	bf08      	it	eq
200021a6:	f8c0 a408 	streq.w	sl, [r0, #1032]	; 0x408
200021aa:	d003      	beq.n	200021b4 <_malloc_r+0x2e8>
200021ac:	4452      	add	r2, sl
200021ae:	1a51      	subs	r1, r2, r1
200021b0:	f8cb 1004 	str.w	r1, [fp, #4]
200021b4:	f01a 0507 	ands.w	r5, sl, #7
200021b8:	4630      	mov	r0, r6
200021ba:	bf17      	itett	ne
200021bc:	f1c5 0508 	rsbne	r5, r5, #8
200021c0:	f44f 5580 	moveq.w	r5, #4096	; 0x1000
200021c4:	44aa      	addne	sl, r5
200021c6:	f505 5580 	addne.w	r5, r5, #4096	; 0x1000
200021ca:	4453      	add	r3, sl
200021cc:	051b      	lsls	r3, r3, #20
200021ce:	0d1b      	lsrs	r3, r3, #20
200021d0:	1aed      	subs	r5, r5, r3
200021d2:	4629      	mov	r1, r5
200021d4:	f000 f950 	bl	20002478 <_sbrk_r>
200021d8:	f1b0 3fff 	cmp.w	r0, #4294967295
200021dc:	f000 812c 	beq.w	20002438 <_malloc_r+0x56c>
200021e0:	ebca 0100 	rsb	r1, sl, r0
200021e4:	1949      	adds	r1, r1, r5
200021e6:	f041 0101 	orr.w	r1, r1, #1
200021ea:	f8db 2004 	ldr.w	r2, [fp, #4]
200021ee:	f642 7324 	movw	r3, #12068	; 0x2f24
200021f2:	f8c7 a008 	str.w	sl, [r7, #8]
200021f6:	f2c2 0300 	movt	r3, #8192	; 0x2000
200021fa:	18aa      	adds	r2, r5, r2
200021fc:	45b8      	cmp	r8, r7
200021fe:	f8cb 2004 	str.w	r2, [fp, #4]
20002202:	f8ca 1004 	str.w	r1, [sl, #4]
20002206:	d017      	beq.n	20002238 <_malloc_r+0x36c>
20002208:	f1b9 0f0f 	cmp.w	r9, #15
2000220c:	f240 80df 	bls.w	200023ce <_malloc_r+0x502>
20002210:	f1a9 010c 	sub.w	r1, r9, #12
20002214:	2505      	movs	r5, #5
20002216:	f021 0107 	bic.w	r1, r1, #7
2000221a:	eb08 0001 	add.w	r0, r8, r1
2000221e:	290f      	cmp	r1, #15
20002220:	6085      	str	r5, [r0, #8]
20002222:	6045      	str	r5, [r0, #4]
20002224:	f8d8 0004 	ldr.w	r0, [r8, #4]
20002228:	f000 0001 	and.w	r0, r0, #1
2000222c:	ea41 0000 	orr.w	r0, r1, r0
20002230:	f8c8 0004 	str.w	r0, [r8, #4]
20002234:	f200 80ac 	bhi.w	20002390 <_malloc_r+0x4c4>
20002238:	46d0      	mov	r8, sl
2000223a:	f642 7324 	movw	r3, #12068	; 0x2f24
2000223e:	f8db 102c 	ldr.w	r1, [fp, #44]	; 0x2c
20002242:	f2c2 0300 	movt	r3, #8192	; 0x2000
20002246:	428a      	cmp	r2, r1
20002248:	f8db 1030 	ldr.w	r1, [fp, #48]	; 0x30
2000224c:	bf88      	it	hi
2000224e:	62da      	strhi	r2, [r3, #44]	; 0x2c
20002250:	f642 7324 	movw	r3, #12068	; 0x2f24
20002254:	f2c2 0300 	movt	r3, #8192	; 0x2000
20002258:	428a      	cmp	r2, r1
2000225a:	bf88      	it	hi
2000225c:	631a      	strhi	r2, [r3, #48]	; 0x30
2000225e:	e082      	b.n	20002366 <_malloc_r+0x49a>
20002260:	185c      	adds	r4, r3, r1
20002262:	689a      	ldr	r2, [r3, #8]
20002264:	68d9      	ldr	r1, [r3, #12]
20002266:	4630      	mov	r0, r6
20002268:	6866      	ldr	r6, [r4, #4]
2000226a:	f103 0508 	add.w	r5, r3, #8
2000226e:	608a      	str	r2, [r1, #8]
20002270:	f046 0301 	orr.w	r3, r6, #1
20002274:	60d1      	str	r1, [r2, #12]
20002276:	6063      	str	r3, [r4, #4]
20002278:	f000 f8fc 	bl	20002474 <__malloc_unlock>
2000227c:	e65a      	b.n	20001f34 <_malloc_r+0x68>
2000227e:	eb08 0304 	add.w	r3, r8, r4
20002282:	f042 0201 	orr.w	r2, r2, #1
20002286:	f044 0401 	orr.w	r4, r4, #1
2000228a:	4630      	mov	r0, r6
2000228c:	f8c8 4004 	str.w	r4, [r8, #4]
20002290:	f108 0508 	add.w	r5, r8, #8
20002294:	605a      	str	r2, [r3, #4]
20002296:	60bb      	str	r3, [r7, #8]
20002298:	f000 f8ec 	bl	20002474 <__malloc_unlock>
2000229c:	e64a      	b.n	20001f34 <_malloc_r+0x68>
2000229e:	ea4f 225c 	mov.w	r2, ip, lsr #9
200022a2:	2a04      	cmp	r2, #4
200022a4:	d954      	bls.n	20002350 <_malloc_r+0x484>
200022a6:	2a14      	cmp	r2, #20
200022a8:	f200 8089 	bhi.w	200023be <_malloc_r+0x4f2>
200022ac:	325b      	adds	r2, #91	; 0x5b
200022ae:	ea4f 08c2 	mov.w	r8, r2, lsl #3
200022b2:	44a8      	add	r8, r5
200022b4:	f642 3704 	movw	r7, #11012	; 0x2b04
200022b8:	f2c2 0700 	movt	r7, #8192	; 0x2000
200022bc:	f8d8 0008 	ldr.w	r0, [r8, #8]
200022c0:	4540      	cmp	r0, r8
200022c2:	d103      	bne.n	200022cc <_malloc_r+0x400>
200022c4:	e06f      	b.n	200023a6 <_malloc_r+0x4da>
200022c6:	6880      	ldr	r0, [r0, #8]
200022c8:	4580      	cmp	r8, r0
200022ca:	d004      	beq.n	200022d6 <_malloc_r+0x40a>
200022cc:	6842      	ldr	r2, [r0, #4]
200022ce:	f022 0203 	bic.w	r2, r2, #3
200022d2:	4594      	cmp	ip, r2
200022d4:	d3f7      	bcc.n	200022c6 <_malloc_r+0x3fa>
200022d6:	f8d0 c00c 	ldr.w	ip, [r0, #12]
200022da:	f8c3 c00c 	str.w	ip, [r3, #12]
200022de:	6098      	str	r0, [r3, #8]
200022e0:	687a      	ldr	r2, [r7, #4]
200022e2:	60c3      	str	r3, [r0, #12]
200022e4:	f8cc 3008 	str.w	r3, [ip, #8]
200022e8:	e68a      	b.n	20002000 <_malloc_r+0x134>
200022ea:	191f      	adds	r7, r3, r4
200022ec:	4630      	mov	r0, r6
200022ee:	f044 0401 	orr.w	r4, r4, #1
200022f2:	60cf      	str	r7, [r1, #12]
200022f4:	605c      	str	r4, [r3, #4]
200022f6:	f103 0508 	add.w	r5, r3, #8
200022fa:	50ba      	str	r2, [r7, r2]
200022fc:	f042 0201 	orr.w	r2, r2, #1
20002300:	608f      	str	r7, [r1, #8]
20002302:	607a      	str	r2, [r7, #4]
20002304:	60b9      	str	r1, [r7, #8]
20002306:	60f9      	str	r1, [r7, #12]
20002308:	f000 f8b4 	bl	20002474 <__malloc_unlock>
2000230c:	e612      	b.n	20001f34 <_malloc_r+0x68>
2000230e:	f10a 0a01 	add.w	sl, sl, #1
20002312:	f01a 0f03 	tst.w	sl, #3
20002316:	d05f      	beq.n	200023d8 <_malloc_r+0x50c>
20002318:	f103 0808 	add.w	r8, r3, #8
2000231c:	e689      	b.n	20002032 <_malloc_r+0x166>
2000231e:	f103 0208 	add.w	r2, r3, #8
20002322:	68d3      	ldr	r3, [r2, #12]
20002324:	429a      	cmp	r2, r3
20002326:	bf08      	it	eq
20002328:	f10e 0e02 	addeq.w	lr, lr, #2
2000232c:	f43f ae36 	beq.w	20001f9c <_malloc_r+0xd0>
20002330:	e5ef      	b.n	20001f12 <_malloc_r+0x46>
20002332:	461d      	mov	r5, r3
20002334:	1819      	adds	r1, r3, r0
20002336:	68da      	ldr	r2, [r3, #12]
20002338:	4630      	mov	r0, r6
2000233a:	f855 3f08 	ldr.w	r3, [r5, #8]!
2000233e:	684c      	ldr	r4, [r1, #4]
20002340:	6093      	str	r3, [r2, #8]
20002342:	f044 0401 	orr.w	r4, r4, #1
20002346:	60da      	str	r2, [r3, #12]
20002348:	604c      	str	r4, [r1, #4]
2000234a:	f000 f893 	bl	20002474 <__malloc_unlock>
2000234e:	e5f1      	b.n	20001f34 <_malloc_r+0x68>
20002350:	ea4f 129c 	mov.w	r2, ip, lsr #6
20002354:	3238      	adds	r2, #56	; 0x38
20002356:	ea4f 08c2 	mov.w	r8, r2, lsl #3
2000235a:	e7aa      	b.n	200022b2 <_malloc_r+0x3e6>
2000235c:	45b8      	cmp	r8, r7
2000235e:	f43f af11 	beq.w	20002184 <_malloc_r+0x2b8>
20002362:	f8d7 8008 	ldr.w	r8, [r7, #8]
20002366:	f8d8 2004 	ldr.w	r2, [r8, #4]
2000236a:	f022 0203 	bic.w	r2, r2, #3
2000236e:	4294      	cmp	r4, r2
20002370:	bf94      	ite	ls
20002372:	2300      	movls	r3, #0
20002374:	2301      	movhi	r3, #1
20002376:	1b12      	subs	r2, r2, r4
20002378:	2a0f      	cmp	r2, #15
2000237a:	bfd8      	it	le
2000237c:	f043 0301 	orrle.w	r3, r3, #1
20002380:	2b00      	cmp	r3, #0
20002382:	f43f af7c 	beq.w	2000227e <_malloc_r+0x3b2>
20002386:	4630      	mov	r0, r6
20002388:	2500      	movs	r5, #0
2000238a:	f000 f873 	bl	20002474 <__malloc_unlock>
2000238e:	e5d1      	b.n	20001f34 <_malloc_r+0x68>
20002390:	f108 0108 	add.w	r1, r8, #8
20002394:	4630      	mov	r0, r6
20002396:	9301      	str	r3, [sp, #4]
20002398:	f000 f8d6 	bl	20002548 <_free_r>
2000239c:	9b01      	ldr	r3, [sp, #4]
2000239e:	f8d7 8008 	ldr.w	r8, [r7, #8]
200023a2:	685a      	ldr	r2, [r3, #4]
200023a4:	e749      	b.n	2000223a <_malloc_r+0x36e>
200023a6:	f04f 0a01 	mov.w	sl, #1
200023aa:	f8d7 8004 	ldr.w	r8, [r7, #4]
200023ae:	1092      	asrs	r2, r2, #2
200023b0:	4684      	mov	ip, r0
200023b2:	fa0a f202 	lsl.w	r2, sl, r2
200023b6:	ea48 0202 	orr.w	r2, r8, r2
200023ba:	607a      	str	r2, [r7, #4]
200023bc:	e78d      	b.n	200022da <_malloc_r+0x40e>
200023be:	2a54      	cmp	r2, #84	; 0x54
200023c0:	d824      	bhi.n	2000240c <_malloc_r+0x540>
200023c2:	ea4f 321c 	mov.w	r2, ip, lsr #12
200023c6:	326e      	adds	r2, #110	; 0x6e
200023c8:	ea4f 08c2 	mov.w	r8, r2, lsl #3
200023cc:	e771      	b.n	200022b2 <_malloc_r+0x3e6>
200023ce:	2301      	movs	r3, #1
200023d0:	46d0      	mov	r8, sl
200023d2:	f8ca 3004 	str.w	r3, [sl, #4]
200023d6:	e7c6      	b.n	20002366 <_malloc_r+0x49a>
200023d8:	464a      	mov	r2, r9
200023da:	f01e 0f03 	tst.w	lr, #3
200023de:	4613      	mov	r3, r2
200023e0:	f10e 3eff 	add.w	lr, lr, #4294967295
200023e4:	d033      	beq.n	2000244e <_malloc_r+0x582>
200023e6:	f853 2908 	ldr.w	r2, [r3], #-8
200023ea:	429a      	cmp	r2, r3
200023ec:	d0f5      	beq.n	200023da <_malloc_r+0x50e>
200023ee:	687b      	ldr	r3, [r7, #4]
200023f0:	ea4f 0c4c 	mov.w	ip, ip, lsl #1
200023f4:	459c      	cmp	ip, r3
200023f6:	f63f ae8e 	bhi.w	20002116 <_malloc_r+0x24a>
200023fa:	f1bc 0f00 	cmp.w	ip, #0
200023fe:	f43f ae8a 	beq.w	20002116 <_malloc_r+0x24a>
20002402:	ea1c 0f03 	tst.w	ip, r3
20002406:	d027      	beq.n	20002458 <_malloc_r+0x58c>
20002408:	46d6      	mov	lr, sl
2000240a:	e60e      	b.n	2000202a <_malloc_r+0x15e>
2000240c:	f5b2 7faa 	cmp.w	r2, #340	; 0x154
20002410:	d815      	bhi.n	2000243e <_malloc_r+0x572>
20002412:	ea4f 32dc 	mov.w	r2, ip, lsr #15
20002416:	3277      	adds	r2, #119	; 0x77
20002418:	ea4f 08c2 	mov.w	r8, r2, lsl #3
2000241c:	e749      	b.n	200022b2 <_malloc_r+0x3e6>
2000241e:	0508      	lsls	r0, r1, #20
20002420:	0d00      	lsrs	r0, r0, #20
20002422:	2800      	cmp	r0, #0
20002424:	f47f aeb6 	bne.w	20002194 <_malloc_r+0x2c8>
20002428:	f8d7 8008 	ldr.w	r8, [r7, #8]
2000242c:	444b      	add	r3, r9
2000242e:	f043 0301 	orr.w	r3, r3, #1
20002432:	f8c8 3004 	str.w	r3, [r8, #4]
20002436:	e700      	b.n	2000223a <_malloc_r+0x36e>
20002438:	2101      	movs	r1, #1
2000243a:	2500      	movs	r5, #0
2000243c:	e6d5      	b.n	200021ea <_malloc_r+0x31e>
2000243e:	f240 5054 	movw	r0, #1364	; 0x554
20002442:	4282      	cmp	r2, r0
20002444:	d90d      	bls.n	20002462 <_malloc_r+0x596>
20002446:	f44f 787c 	mov.w	r8, #1008	; 0x3f0
2000244a:	227e      	movs	r2, #126	; 0x7e
2000244c:	e731      	b.n	200022b2 <_malloc_r+0x3e6>
2000244e:	687b      	ldr	r3, [r7, #4]
20002450:	ea23 030c 	bic.w	r3, r3, ip
20002454:	607b      	str	r3, [r7, #4]
20002456:	e7cb      	b.n	200023f0 <_malloc_r+0x524>
20002458:	ea4f 0c4c 	mov.w	ip, ip, lsl #1
2000245c:	f10a 0a04 	add.w	sl, sl, #4
20002460:	e7cf      	b.n	20002402 <_malloc_r+0x536>
20002462:	ea4f 429c 	mov.w	r2, ip, lsr #18
20002466:	327c      	adds	r2, #124	; 0x7c
20002468:	ea4f 08c2 	mov.w	r8, r2, lsl #3
2000246c:	e721      	b.n	200022b2 <_malloc_r+0x3e6>
2000246e:	bf00      	nop

20002470 <__malloc_lock>:
20002470:	4770      	bx	lr
20002472:	bf00      	nop

20002474 <__malloc_unlock>:
20002474:	4770      	bx	lr
20002476:	bf00      	nop

20002478 <_sbrk_r>:
20002478:	b538      	push	{r3, r4, r5, lr}
2000247a:	f643 0478 	movw	r4, #14456	; 0x3878
2000247e:	f2c2 0400 	movt	r4, #8192	; 0x2000
20002482:	4605      	mov	r5, r0
20002484:	4608      	mov	r0, r1
20002486:	2300      	movs	r3, #0
20002488:	6023      	str	r3, [r4, #0]
2000248a:	f7ff f81f 	bl	200014cc <_sbrk>
2000248e:	f1b0 3fff 	cmp.w	r0, #4294967295
20002492:	d000      	beq.n	20002496 <_sbrk_r+0x1e>
20002494:	bd38      	pop	{r3, r4, r5, pc}
20002496:	6823      	ldr	r3, [r4, #0]
20002498:	2b00      	cmp	r3, #0
2000249a:	d0fb      	beq.n	20002494 <_sbrk_r+0x1c>
2000249c:	602b      	str	r3, [r5, #0]
2000249e:	bd38      	pop	{r3, r4, r5, pc}

200024a0 <_malloc_trim_r>:
200024a0:	b5f8      	push	{r3, r4, r5, r6, r7, lr}
200024a2:	f642 3404 	movw	r4, #11012	; 0x2b04
200024a6:	f2c2 0400 	movt	r4, #8192	; 0x2000
200024aa:	460f      	mov	r7, r1
200024ac:	4605      	mov	r5, r0
200024ae:	f7ff ffdf 	bl	20002470 <__malloc_lock>
200024b2:	68a3      	ldr	r3, [r4, #8]
200024b4:	685e      	ldr	r6, [r3, #4]
200024b6:	f026 0603 	bic.w	r6, r6, #3
200024ba:	f506 637e 	add.w	r3, r6, #4064	; 0xfe0
200024be:	330f      	adds	r3, #15
200024c0:	1bdf      	subs	r7, r3, r7
200024c2:	0b3f      	lsrs	r7, r7, #12
200024c4:	3f01      	subs	r7, #1
200024c6:	033f      	lsls	r7, r7, #12
200024c8:	f5b7 5f80 	cmp.w	r7, #4096	; 0x1000
200024cc:	db07      	blt.n	200024de <_malloc_trim_r+0x3e>
200024ce:	2100      	movs	r1, #0
200024d0:	4628      	mov	r0, r5
200024d2:	f7ff ffd1 	bl	20002478 <_sbrk_r>
200024d6:	68a3      	ldr	r3, [r4, #8]
200024d8:	18f3      	adds	r3, r6, r3
200024da:	4283      	cmp	r3, r0
200024dc:	d004      	beq.n	200024e8 <_malloc_trim_r+0x48>
200024de:	4628      	mov	r0, r5
200024e0:	f7ff ffc8 	bl	20002474 <__malloc_unlock>
200024e4:	2000      	movs	r0, #0
200024e6:	bdf8      	pop	{r3, r4, r5, r6, r7, pc}
200024e8:	4279      	negs	r1, r7
200024ea:	4628      	mov	r0, r5
200024ec:	f7ff ffc4 	bl	20002478 <_sbrk_r>
200024f0:	f1b0 3fff 	cmp.w	r0, #4294967295
200024f4:	d010      	beq.n	20002518 <_malloc_trim_r+0x78>
200024f6:	68a2      	ldr	r2, [r4, #8]
200024f8:	f642 7328 	movw	r3, #12072	; 0x2f28
200024fc:	f2c2 0300 	movt	r3, #8192	; 0x2000
20002500:	1bf6      	subs	r6, r6, r7
20002502:	f046 0601 	orr.w	r6, r6, #1
20002506:	4628      	mov	r0, r5
20002508:	6056      	str	r6, [r2, #4]
2000250a:	681a      	ldr	r2, [r3, #0]
2000250c:	1bd7      	subs	r7, r2, r7
2000250e:	601f      	str	r7, [r3, #0]
20002510:	f7ff ffb0 	bl	20002474 <__malloc_unlock>
20002514:	2001      	movs	r0, #1
20002516:	bdf8      	pop	{r3, r4, r5, r6, r7, pc}
20002518:	2100      	movs	r1, #0
2000251a:	4628      	mov	r0, r5
2000251c:	f7ff ffac 	bl	20002478 <_sbrk_r>
20002520:	68a3      	ldr	r3, [r4, #8]
20002522:	1ac2      	subs	r2, r0, r3
20002524:	2a0f      	cmp	r2, #15
20002526:	ddda      	ble.n	200024de <_malloc_trim_r+0x3e>
20002528:	f642 740c 	movw	r4, #12044	; 0x2f0c
2000252c:	f642 7128 	movw	r1, #12072	; 0x2f28
20002530:	f2c2 0400 	movt	r4, #8192	; 0x2000
20002534:	f2c2 0100 	movt	r1, #8192	; 0x2000
20002538:	f042 0201 	orr.w	r2, r2, #1
2000253c:	6824      	ldr	r4, [r4, #0]
2000253e:	1b00      	subs	r0, r0, r4
20002540:	6008      	str	r0, [r1, #0]
20002542:	605a      	str	r2, [r3, #4]
20002544:	e7cb      	b.n	200024de <_malloc_trim_r+0x3e>
20002546:	bf00      	nop

20002548 <_free_r>:
20002548:	e92d 41f0 	stmdb	sp!, {r4, r5, r6, r7, r8, lr}
2000254c:	4605      	mov	r5, r0
2000254e:	460c      	mov	r4, r1
20002550:	2900      	cmp	r1, #0
20002552:	f000 8088 	beq.w	20002666 <_free_r+0x11e>
20002556:	f7ff ff8b 	bl	20002470 <__malloc_lock>
2000255a:	f1a4 0208 	sub.w	r2, r4, #8
2000255e:	f642 3004 	movw	r0, #11012	; 0x2b04
20002562:	6856      	ldr	r6, [r2, #4]
20002564:	f2c2 0000 	movt	r0, #8192	; 0x2000
20002568:	f026 0301 	bic.w	r3, r6, #1
2000256c:	f8d0 c008 	ldr.w	ip, [r0, #8]
20002570:	18d1      	adds	r1, r2, r3
20002572:	458c      	cmp	ip, r1
20002574:	684f      	ldr	r7, [r1, #4]
20002576:	f027 0703 	bic.w	r7, r7, #3
2000257a:	f000 8095 	beq.w	200026a8 <_free_r+0x160>
2000257e:	f016 0601 	ands.w	r6, r6, #1
20002582:	604f      	str	r7, [r1, #4]
20002584:	d05f      	beq.n	20002646 <_free_r+0xfe>
20002586:	2600      	movs	r6, #0
20002588:	19cc      	adds	r4, r1, r7
2000258a:	6864      	ldr	r4, [r4, #4]
2000258c:	f014 0f01 	tst.w	r4, #1
20002590:	d106      	bne.n	200025a0 <_free_r+0x58>
20002592:	19db      	adds	r3, r3, r7
20002594:	2e00      	cmp	r6, #0
20002596:	d07a      	beq.n	2000268e <_free_r+0x146>
20002598:	688c      	ldr	r4, [r1, #8]
2000259a:	68c9      	ldr	r1, [r1, #12]
2000259c:	608c      	str	r4, [r1, #8]
2000259e:	60e1      	str	r1, [r4, #12]
200025a0:	f043 0101 	orr.w	r1, r3, #1
200025a4:	50d3      	str	r3, [r2, r3]
200025a6:	6051      	str	r1, [r2, #4]
200025a8:	2e00      	cmp	r6, #0
200025aa:	d147      	bne.n	2000263c <_free_r+0xf4>
200025ac:	f5b3 7f00 	cmp.w	r3, #512	; 0x200
200025b0:	d35b      	bcc.n	2000266a <_free_r+0x122>
200025b2:	0a59      	lsrs	r1, r3, #9
200025b4:	2904      	cmp	r1, #4
200025b6:	bf9e      	ittt	ls
200025b8:	ea4f 1c93 	movls.w	ip, r3, lsr #6
200025bc:	f10c 0c38 	addls.w	ip, ip, #56	; 0x38
200025c0:	ea4f 04cc 	movls.w	r4, ip, lsl #3
200025c4:	d928      	bls.n	20002618 <_free_r+0xd0>
200025c6:	2914      	cmp	r1, #20
200025c8:	bf9c      	itt	ls
200025ca:	f101 0c5b 	addls.w	ip, r1, #91	; 0x5b
200025ce:	ea4f 04cc 	movls.w	r4, ip, lsl #3
200025d2:	d921      	bls.n	20002618 <_free_r+0xd0>
200025d4:	2954      	cmp	r1, #84	; 0x54
200025d6:	bf9e      	ittt	ls
200025d8:	ea4f 3c13 	movls.w	ip, r3, lsr #12
200025dc:	f10c 0c6e 	addls.w	ip, ip, #110	; 0x6e
200025e0:	ea4f 04cc 	movls.w	r4, ip, lsl #3
200025e4:	d918      	bls.n	20002618 <_free_r+0xd0>
200025e6:	f5b1 7faa 	cmp.w	r1, #340	; 0x154
200025ea:	bf9e      	ittt	ls
200025ec:	ea4f 3cd3 	movls.w	ip, r3, lsr #15
200025f0:	f10c 0c77 	addls.w	ip, ip, #119	; 0x77
200025f4:	ea4f 04cc 	movls.w	r4, ip, lsl #3
200025f8:	d90e      	bls.n	20002618 <_free_r+0xd0>
200025fa:	f240 5c54 	movw	ip, #1364	; 0x554
200025fe:	4561      	cmp	r1, ip
20002600:	bf95      	itete	ls
20002602:	ea4f 4c93 	movls.w	ip, r3, lsr #18
20002606:	f44f 747c 	movhi.w	r4, #1008	; 0x3f0
2000260a:	f10c 0c7c 	addls.w	ip, ip, #124	; 0x7c
2000260e:	f04f 0c7e 	movhi.w	ip, #126	; 0x7e
20002612:	bf98      	it	ls
20002614:	ea4f 04cc 	movls.w	r4, ip, lsl #3
20002618:	1904      	adds	r4, r0, r4
2000261a:	68a1      	ldr	r1, [r4, #8]
2000261c:	42a1      	cmp	r1, r4
2000261e:	d103      	bne.n	20002628 <_free_r+0xe0>
20002620:	e064      	b.n	200026ec <_free_r+0x1a4>
20002622:	6889      	ldr	r1, [r1, #8]
20002624:	428c      	cmp	r4, r1
20002626:	d004      	beq.n	20002632 <_free_r+0xea>
20002628:	6848      	ldr	r0, [r1, #4]
2000262a:	f020 0003 	bic.w	r0, r0, #3
2000262e:	4283      	cmp	r3, r0
20002630:	d3f7      	bcc.n	20002622 <_free_r+0xda>
20002632:	68cb      	ldr	r3, [r1, #12]
20002634:	60d3      	str	r3, [r2, #12]
20002636:	6091      	str	r1, [r2, #8]
20002638:	60ca      	str	r2, [r1, #12]
2000263a:	609a      	str	r2, [r3, #8]
2000263c:	4628      	mov	r0, r5
2000263e:	e8bd 41f0 	ldmia.w	sp!, {r4, r5, r6, r7, r8, lr}
20002642:	f7ff bf17 	b.w	20002474 <__malloc_unlock>
20002646:	f854 4c08 	ldr.w	r4, [r4, #-8]
2000264a:	f100 0c08 	add.w	ip, r0, #8
2000264e:	1b12      	subs	r2, r2, r4
20002650:	191b      	adds	r3, r3, r4
20002652:	6894      	ldr	r4, [r2, #8]
20002654:	4564      	cmp	r4, ip
20002656:	d047      	beq.n	200026e8 <_free_r+0x1a0>
20002658:	f8d2 c00c 	ldr.w	ip, [r2, #12]
2000265c:	f8cc 4008 	str.w	r4, [ip, #8]
20002660:	f8c4 c00c 	str.w	ip, [r4, #12]
20002664:	e790      	b.n	20002588 <_free_r+0x40>
20002666:	e8bd 81f0 	ldmia.w	sp!, {r4, r5, r6, r7, r8, pc}
2000266a:	08db      	lsrs	r3, r3, #3
2000266c:	f04f 0c01 	mov.w	ip, #1
20002670:	6846      	ldr	r6, [r0, #4]
20002672:	eb00 01c3 	add.w	r1, r0, r3, lsl #3
20002676:	109b      	asrs	r3, r3, #2
20002678:	fa0c f303 	lsl.w	r3, ip, r3
2000267c:	60d1      	str	r1, [r2, #12]
2000267e:	688c      	ldr	r4, [r1, #8]
20002680:	ea46 0303 	orr.w	r3, r6, r3
20002684:	6043      	str	r3, [r0, #4]
20002686:	6094      	str	r4, [r2, #8]
20002688:	60e2      	str	r2, [r4, #12]
2000268a:	608a      	str	r2, [r1, #8]
2000268c:	e7d6      	b.n	2000263c <_free_r+0xf4>
2000268e:	688c      	ldr	r4, [r1, #8]
20002690:	4f1c      	ldr	r7, [pc, #112]	; (20002704 <_free_r+0x1bc>)
20002692:	42bc      	cmp	r4, r7
20002694:	d181      	bne.n	2000259a <_free_r+0x52>
20002696:	50d3      	str	r3, [r2, r3]
20002698:	f043 0301 	orr.w	r3, r3, #1
2000269c:	60e2      	str	r2, [r4, #12]
2000269e:	60a2      	str	r2, [r4, #8]
200026a0:	6053      	str	r3, [r2, #4]
200026a2:	6094      	str	r4, [r2, #8]
200026a4:	60d4      	str	r4, [r2, #12]
200026a6:	e7c9      	b.n	2000263c <_free_r+0xf4>
200026a8:	18fb      	adds	r3, r7, r3
200026aa:	f016 0f01 	tst.w	r6, #1
200026ae:	d107      	bne.n	200026c0 <_free_r+0x178>
200026b0:	f854 1c08 	ldr.w	r1, [r4, #-8]
200026b4:	1a52      	subs	r2, r2, r1
200026b6:	185b      	adds	r3, r3, r1
200026b8:	68d4      	ldr	r4, [r2, #12]
200026ba:	6891      	ldr	r1, [r2, #8]
200026bc:	60a1      	str	r1, [r4, #8]
200026be:	60cc      	str	r4, [r1, #12]
200026c0:	f642 7110 	movw	r1, #12048	; 0x2f10
200026c4:	6082      	str	r2, [r0, #8]
200026c6:	f2c2 0100 	movt	r1, #8192	; 0x2000
200026ca:	f043 0001 	orr.w	r0, r3, #1
200026ce:	6050      	str	r0, [r2, #4]
200026d0:	680a      	ldr	r2, [r1, #0]
200026d2:	4293      	cmp	r3, r2
200026d4:	d3b2      	bcc.n	2000263c <_free_r+0xf4>
200026d6:	f642 7324 	movw	r3, #12068	; 0x2f24
200026da:	4628      	mov	r0, r5
200026dc:	f2c2 0300 	movt	r3, #8192	; 0x2000
200026e0:	6819      	ldr	r1, [r3, #0]
200026e2:	f7ff fedd 	bl	200024a0 <_malloc_trim_r>
200026e6:	e7a9      	b.n	2000263c <_free_r+0xf4>
200026e8:	2601      	movs	r6, #1
200026ea:	e74d      	b.n	20002588 <_free_r+0x40>
200026ec:	2601      	movs	r6, #1
200026ee:	6844      	ldr	r4, [r0, #4]
200026f0:	ea4f 0cac 	mov.w	ip, ip, asr #2
200026f4:	460b      	mov	r3, r1
200026f6:	fa06 fc0c 	lsl.w	ip, r6, ip
200026fa:	ea44 040c 	orr.w	r4, r4, ip
200026fe:	6044      	str	r4, [r0, #4]
20002700:	e798      	b.n	20002634 <_free_r+0xec>
20002702:	bf00      	nop
20002704:	20002b0c 	.word	0x20002b0c

20002708 <sqrt>:
20002708:	e92d 4ff0 	stmdb	sp!, {r4, r5, r6, r7, r8, r9, sl, fp, lr}
2000270c:	b08b      	sub	sp, #44	; 0x2c
2000270e:	4606      	mov	r6, r0
20002710:	460f      	mov	r7, r1
20002712:	f000 f84f 	bl	200027b4 <__ieee754_sqrt>
20002716:	f642 7414 	movw	r4, #12052	; 0x2f14
2000271a:	f2c2 0400 	movt	r4, #8192	; 0x2000
2000271e:	f994 3000 	ldrsb.w	r3, [r4]
20002722:	f1b3 3fff 	cmp.w	r3, #4294967295
20002726:	4680      	mov	r8, r0
20002728:	4689      	mov	r9, r1
2000272a:	d031      	beq.n	20002790 <sqrt+0x88>
2000272c:	4630      	mov	r0, r6
2000272e:	4639      	mov	r1, r7
20002730:	f000 f92e 	bl	20002990 <__isnand>
20002734:	4605      	mov	r5, r0
20002736:	2800      	cmp	r0, #0
20002738:	d12a      	bne.n	20002790 <sqrt+0x88>
2000273a:	f04f 0a00 	mov.w	sl, #0
2000273e:	f04f 0b00 	mov.w	fp, #0
20002742:	4630      	mov	r0, r6
20002744:	4639      	mov	r1, r7
20002746:	4652      	mov	r2, sl
20002748:	465b      	mov	r3, fp
2000274a:	f7ff fb39 	bl	20001dc0 <__aeabi_dcmplt>
2000274e:	b1f8      	cbz	r0, 20002790 <sqrt+0x88>
20002750:	7824      	ldrb	r4, [r4, #0]
20002752:	f642 13d0 	movw	r3, #10704	; 0x29d0
20002756:	f2c2 0300 	movt	r3, #8192	; 0x2000
2000275a:	9508      	str	r5, [sp, #32]
2000275c:	9301      	str	r3, [sp, #4]
2000275e:	2301      	movs	r3, #1
20002760:	e9cd 6702 	strd	r6, r7, [sp, #8]
20002764:	9300      	str	r3, [sp, #0]
20002766:	e9cd 6704 	strd	r6, r7, [sp, #16]
2000276a:	b1b4      	cbz	r4, 2000279a <sqrt+0x92>
2000276c:	4650      	mov	r0, sl
2000276e:	4659      	mov	r1, fp
20002770:	4652      	mov	r2, sl
20002772:	465b      	mov	r3, fp
20002774:	f7ff f9dc 	bl	20001b30 <__aeabi_ddiv>
20002778:	2c02      	cmp	r4, #2
2000277a:	e9cd 0106 	strd	r0, r1, [sp, #24]
2000277e:	d10e      	bne.n	2000279e <sqrt+0x96>
20002780:	f7ff fb66 	bl	20001e50 <__errno>
20002784:	2321      	movs	r3, #33	; 0x21
20002786:	6003      	str	r3, [r0, #0]
20002788:	9b08      	ldr	r3, [sp, #32]
2000278a:	b973      	cbnz	r3, 200027aa <sqrt+0xa2>
2000278c:	e9dd 8906 	ldrd	r8, r9, [sp, #24]
20002790:	4640      	mov	r0, r8
20002792:	4649      	mov	r1, r9
20002794:	b00b      	add	sp, #44	; 0x2c
20002796:	e8bd 8ff0 	ldmia.w	sp!, {r4, r5, r6, r7, r8, r9, sl, fp, pc}
2000279a:	e9cd ab06 	strd	sl, fp, [sp, #24]
2000279e:	4668      	mov	r0, sp
200027a0:	f000 f904 	bl	200029ac <matherr>
200027a4:	2800      	cmp	r0, #0
200027a6:	d1ef      	bne.n	20002788 <sqrt+0x80>
200027a8:	e7ea      	b.n	20002780 <sqrt+0x78>
200027aa:	f7ff fb51 	bl	20001e50 <__errno>
200027ae:	9b08      	ldr	r3, [sp, #32]
200027b0:	6003      	str	r3, [r0, #0]
200027b2:	e7eb      	b.n	2000278c <sqrt+0x84>

200027b4 <__ieee754_sqrt>:
200027b4:	f240 0c00 	movw	ip, #0
200027b8:	460b      	mov	r3, r1
200027ba:	f6c7 7cf0 	movt	ip, #32752	; 0x7ff0
200027be:	4602      	mov	r2, r0
200027c0:	e92d 47f0 	stmdb	sp!, {r4, r5, r6, r7, r8, r9, sl, lr}
200027c4:	4666      	mov	r6, ip
200027c6:	ea01 0c0c 	and.w	ip, r1, ip
200027ca:	4604      	mov	r4, r0
200027cc:	45b4      	cmp	ip, r6
200027ce:	460d      	mov	r5, r1
200027d0:	4680      	mov	r8, r0
200027d2:	4689      	mov	r9, r1
200027d4:	f000 80be 	beq.w	20002954 <__ieee754_sqrt+0x1a0>
200027d8:	2900      	cmp	r1, #0
200027da:	f340 808c 	ble.w	200028f6 <__ieee754_sqrt+0x142>
200027de:	ea5f 5821 	movs.w	r8, r1, asr #20
200027e2:	f000 8096 	beq.w	20002912 <__ieee754_sqrt+0x15e>
200027e6:	f5a8 787e 	sub.w	r8, r8, #1016	; 0x3f8
200027ea:	f023 437f 	bic.w	r3, r3, #4278190080	; 0xff000000
200027ee:	f1a8 0807 	sub.w	r8, r8, #7
200027f2:	f423 0370 	bic.w	r3, r3, #15728640	; 0xf00000
200027f6:	f018 0f01 	tst.w	r8, #1
200027fa:	f443 1380 	orr.w	r3, r3, #1048576	; 0x100000
200027fe:	d16a      	bne.n	200028d6 <__ieee754_sqrt+0x122>
20002800:	0fd1      	lsrs	r1, r2, #31
20002802:	f04f 0c00 	mov.w	ip, #0
20002806:	eb01 0343 	add.w	r3, r1, r3, lsl #1
2000280a:	0052      	lsls	r2, r2, #1
2000280c:	4665      	mov	r5, ip
2000280e:	4660      	mov	r0, ip
20002810:	f44f 1100 	mov.w	r1, #2097152	; 0x200000
20002814:	1844      	adds	r4, r0, r1
20002816:	0fd6      	lsrs	r6, r2, #31
20002818:	0052      	lsls	r2, r2, #1
2000281a:	429c      	cmp	r4, r3
2000281c:	f10c 0c01 	add.w	ip, ip, #1
20002820:	dc02      	bgt.n	20002828 <__ieee754_sqrt+0x74>
20002822:	1b1b      	subs	r3, r3, r4
20002824:	186d      	adds	r5, r5, r1
20002826:	1860      	adds	r0, r4, r1
20002828:	0849      	lsrs	r1, r1, #1
2000282a:	f1bc 0f16 	cmp.w	ip, #22
2000282e:	eb06 0343 	add.w	r3, r6, r3, lsl #1
20002832:	d1ef      	bne.n	20002814 <__ieee754_sqrt+0x60>
20002834:	2400      	movs	r4, #0
20002836:	f04f 4100 	mov.w	r1, #2147483648	; 0x80000000
2000283a:	46a2      	mov	sl, r4
2000283c:	4626      	mov	r6, r4
2000283e:	e013      	b.n	20002868 <__ieee754_sqrt+0xb4>
20002840:	4283      	cmp	r3, r0
20002842:	bf14      	ite	ne
20002844:	2700      	movne	r7, #0
20002846:	2701      	moveq	r7, #1
20002848:	4594      	cmp	ip, r2
2000284a:	bf8c      	ite	hi
2000284c:	2700      	movhi	r7, #0
2000284e:	f007 0701 	andls.w	r7, r7, #1
20002852:	b96f      	cbnz	r7, 20002870 <__ieee754_sqrt+0xbc>
20002854:	3401      	adds	r4, #1
20002856:	4607      	mov	r7, r0
20002858:	0849      	lsrs	r1, r1, #1
2000285a:	0fd0      	lsrs	r0, r2, #31
2000285c:	0052      	lsls	r2, r2, #1
2000285e:	2c20      	cmp	r4, #32
20002860:	eb00 0343 	add.w	r3, r0, r3, lsl #1
20002864:	d01b      	beq.n	2000289e <__ieee754_sqrt+0xea>
20002866:	4638      	mov	r0, r7
20002868:	4298      	cmp	r0, r3
2000286a:	eb01 0c06 	add.w	ip, r1, r6
2000286e:	dae7      	bge.n	20002840 <__ieee754_sqrt+0x8c>
20002870:	f00c 4700 	and.w	r7, ip, #2147483648	; 0x80000000
20002874:	eb0c 0601 	add.w	r6, ip, r1
20002878:	f1b7 4f00 	cmp.w	r7, #2147483648	; 0x80000000
2000287c:	d027      	beq.n	200028ce <__ieee754_sqrt+0x11a>
2000287e:	4607      	mov	r7, r0
20002880:	1a1b      	subs	r3, r3, r0
20002882:	4594      	cmp	ip, r2
20002884:	ebcc 0202 	rsb	r2, ip, r2
20002888:	bf88      	it	hi
2000288a:	3b01      	subhi	r3, #1
2000288c:	3401      	adds	r4, #1
2000288e:	448a      	add	sl, r1
20002890:	0fd0      	lsrs	r0, r2, #31
20002892:	0849      	lsrs	r1, r1, #1
20002894:	0052      	lsls	r2, r2, #1
20002896:	2c20      	cmp	r4, #32
20002898:	eb00 0343 	add.w	r3, r0, r3, lsl #1
2000289c:	d1e3      	bne.n	20002866 <__ieee754_sqrt+0xb2>
2000289e:	4313      	orrs	r3, r2
200028a0:	d11e      	bne.n	200028e0 <__ieee754_sqrt+0x12c>
200028a2:	ea4f 0a5a 	mov.w	sl, sl, lsr #1
200028a6:	ea4f 0168 	mov.w	r1, r8, asr #1
200028aa:	f015 0f01 	tst.w	r5, #1
200028ae:	bf18      	it	ne
200028b0:	f04a 4a00 	orrne.w	sl, sl, #2147483648	; 0x80000000
200028b4:	0509      	lsls	r1, r1, #20
200028b6:	4654      	mov	r4, sl
200028b8:	f101 517e 	add.w	r1, r1, #1065353216	; 0x3f800000
200028bc:	f501 01c0 	add.w	r1, r1, #6291456	; 0x600000
200028c0:	eb01 0365 	add.w	r3, r1, r5, asr #1
200028c4:	461d      	mov	r5, r3
200028c6:	4620      	mov	r0, r4
200028c8:	4629      	mov	r1, r5
200028ca:	e8bd 87f0 	ldmia.w	sp!, {r4, r5, r6, r7, r8, r9, sl, pc}
200028ce:	2e00      	cmp	r6, #0
200028d0:	dbd5      	blt.n	2000287e <__ieee754_sqrt+0xca>
200028d2:	1c47      	adds	r7, r0, #1
200028d4:	e7d4      	b.n	20002880 <__ieee754_sqrt+0xcc>
200028d6:	0fd1      	lsrs	r1, r2, #31
200028d8:	0052      	lsls	r2, r2, #1
200028da:	eb01 0343 	add.w	r3, r1, r3, lsl #1
200028de:	e78f      	b.n	20002800 <__ieee754_sqrt+0x4c>
200028e0:	f1ba 3fff 	cmp.w	sl, #4294967295
200028e4:	bf1c      	itt	ne
200028e6:	f00a 0301 	andne.w	r3, sl, #1
200028ea:	449a      	addne	sl, r3
200028ec:	d1d9      	bne.n	200028a2 <__ieee754_sqrt+0xee>
200028ee:	3501      	adds	r5, #1
200028f0:	f04f 0a00 	mov.w	sl, #0
200028f4:	e7d7      	b.n	200028a6 <__ieee754_sqrt+0xf2>
200028f6:	f021 4c00 	bic.w	ip, r1, #2147483648	; 0x80000000
200028fa:	ea5c 0c00 	orrs.w	ip, ip, r0
200028fe:	d0e2      	beq.n	200028c6 <__ieee754_sqrt+0x112>
20002900:	2900      	cmp	r1, #0
20002902:	d13a      	bne.n	2000297a <__ieee754_sqrt+0x1c6>
20002904:	4688      	mov	r8, r1
20002906:	0ad3      	lsrs	r3, r2, #11
20002908:	f1a8 0815 	sub.w	r8, r8, #21
2000290c:	0552      	lsls	r2, r2, #21
2000290e:	2b00      	cmp	r3, #0
20002910:	d0f9      	beq.n	20002906 <__ieee754_sqrt+0x152>
20002912:	f413 1180 	ands.w	r1, r3, #1048576	; 0x100000
20002916:	d12d      	bne.n	20002974 <__ieee754_sqrt+0x1c0>
20002918:	005b      	lsls	r3, r3, #1
2000291a:	3101      	adds	r1, #1
2000291c:	f413 1f80 	tst.w	r3, #1048576	; 0x100000
20002920:	d0fa      	beq.n	20002918 <__ieee754_sqrt+0x164>
20002922:	f1c1 0020 	rsb	r0, r1, #32
20002926:	f108 0801 	add.w	r8, r8, #1
2000292a:	fa32 f000 	lsrs.w	r0, r2, r0
2000292e:	ebc1 0808 	rsb	r8, r1, r8
20002932:	4303      	orrs	r3, r0
20002934:	f5a8 787e 	sub.w	r8, r8, #1016	; 0x3f8
20002938:	408a      	lsls	r2, r1
2000293a:	f1a8 0807 	sub.w	r8, r8, #7
2000293e:	f023 437f 	bic.w	r3, r3, #4278190080	; 0xff000000
20002942:	f018 0f01 	tst.w	r8, #1
20002946:	f423 0370 	bic.w	r3, r3, #15728640	; 0xf00000
2000294a:	f443 1380 	orr.w	r3, r3, #1048576	; 0x100000
2000294e:	f43f af57 	beq.w	20002800 <__ieee754_sqrt+0x4c>
20002952:	e7c0      	b.n	200028d6 <__ieee754_sqrt+0x122>
20002954:	4602      	mov	r2, r0
20002956:	460b      	mov	r3, r1
20002958:	f7fe ffc0 	bl	200018dc <__aeabi_dmul>
2000295c:	4602      	mov	r2, r0
2000295e:	460b      	mov	r3, r1
20002960:	4620      	mov	r0, r4
20002962:	4629      	mov	r1, r5
20002964:	f7fe fe08 	bl	20001578 <__adddf3>
20002968:	4604      	mov	r4, r0
2000296a:	460d      	mov	r5, r1
2000296c:	4620      	mov	r0, r4
2000296e:	4629      	mov	r1, r5
20002970:	e8bd 87f0 	ldmia.w	sp!, {r4, r5, r6, r7, r8, r9, sl, pc}
20002974:	2020      	movs	r0, #32
20002976:	2100      	movs	r1, #0
20002978:	e7d5      	b.n	20002926 <__ieee754_sqrt+0x172>
2000297a:	4602      	mov	r2, r0
2000297c:	460b      	mov	r3, r1
2000297e:	f7fe fdf9 	bl	20001574 <__aeabi_dsub>
20002982:	4602      	mov	r2, r0
20002984:	460b      	mov	r3, r1
20002986:	f7ff f8d3 	bl	20001b30 <__aeabi_ddiv>
2000298a:	4604      	mov	r4, r0
2000298c:	460d      	mov	r5, r1
2000298e:	e79a      	b.n	200028c6 <__ieee754_sqrt+0x112>

20002990 <__isnand>:
20002990:	4602      	mov	r2, r0
20002992:	4240      	negs	r0, r0
20002994:	4310      	orrs	r0, r2
20002996:	f021 4100 	bic.w	r1, r1, #2147483648	; 0x80000000
2000299a:	ea41 70d0 	orr.w	r0, r1, r0, lsr #31
2000299e:	f1c0 40fe 	rsb	r0, r0, #2130706432	; 0x7f000000
200029a2:	f500 0070 	add.w	r0, r0, #15728640	; 0xf00000
200029a6:	0fc0      	lsrs	r0, r0, #31
200029a8:	4770      	bx	lr
200029aa:	bf00      	nop

200029ac <matherr>:
200029ac:	2000      	movs	r0, #0
200029ae:	4770      	bx	lr
200029b0:	70616548 	.word	0x70616548
200029b4:	646e6120 	.word	0x646e6120
200029b8:	61747320 	.word	0x61747320
200029bc:	63206b63 	.word	0x63206b63
200029c0:	696c6c6f 	.word	0x696c6c6f
200029c4:	6e6f6973 	.word	0x6e6f6973
200029c8:	0000000a 	.word	0x0000000a
200029cc:	00000043 	.word	0x00000043
200029d0:	74727173 	.word	0x74727173
200029d4:	00000000 	.word	0x00000000

200029d8 <_init>:
200029d8:	b5f8      	push	{r3, r4, r5, r6, r7, lr}
200029da:	bf00      	nop
200029dc:	bcf8      	pop	{r3, r4, r5, r6, r7}
200029de:	bc08      	pop	{r3}
200029e0:	469e      	mov	lr, r3
200029e2:	4770      	bx	lr

200029e4 <_fini>:
200029e4:	b5f8      	push	{r3, r4, r5, r6, r7, lr}
200029e6:	bf00      	nop
200029e8:	bcf8      	pop	{r3, r4, r5, r6, r7}
200029ea:	bc08      	pop	{r3}
200029ec:	469e      	mov	lr, r3
200029ee:	4770      	bx	lr

200029f0 <__frame_dummy_init_array_entry>:
200029f0:	0485 2000                                   ... 

200029f4 <__do_global_dtors_aux_fini_array_entry>:
200029f4:	0471 2000                                   q.. 
